Archive member included because of file (symbol)

..\..\..\..\bin\framework\peripheral\PIC32MX795F512L_peripherals.a(plib_eth_lib.o)
                              build/pic32mx/debug/_ext/1908841681/drv_ethmac.o (PLIB_ETH_MACSetAddress)

Optional file libmchp_peripheral.a not found

Optional file libmchp_peripheral_32MX795F512L.a not found
c:/program files (x86)/microchip/xc32/v1.40/bin/bin/../../lib/gcc/pic32mx/4.8.3\libgcc.a(_udivdi3.o)
                              build/pic32mx/debug/_ext/1264926591/sys_tmr.o (__udivdi3)
c:/program files (x86)/microchip/xc32/v1.40/bin/bin/../../lib/gcc/pic32mx/4.8.3/../../../../pic32mx/lib\libpic32.a(memcmp.o)
                              build/pic32mx/debug/_ext/1360937237/custom_http_app.o (memcmp)
c:/program files (x86)/microchip/xc32/v1.40/bin/bin/../../lib/gcc/pic32mx/4.8.3/../../../../pic32mx/lib\libpic32.a(memcpy.o)
                              build/pic32mx/debug/_ext/2104899551/sys_fs_media_manager.o (memcpy)
c:/program files (x86)/microchip/xc32/v1.40/bin/bin/../../lib/gcc/pic32mx/4.8.3/../../../../pic32mx/lib\libpic32.a(memset.o)
                              build/pic32mx/debug/_ext/1886890887/random.o (memset)
c:/program files (x86)/microchip/xc32/v1.40/bin/bin/../../lib/gcc/pic32mx/4.8.3/../../../../pic32mx/lib\libpic32.a(strcmp.o)
                              build/pic32mx/debug/_ext/1360937237/app.o (strcmp)
c:/program files (x86)/microchip/xc32/v1.40/bin/bin/../../lib/gcc/pic32mx/4.8.3/../../../../pic32mx/lib\libpic32.a(strcpy.o)
                              build/pic32mx/debug/_ext/425903153/sys_command.o (strcpy)
c:/program files (x86)/microchip/xc32/v1.40/bin/bin/../../lib/gcc/pic32mx/4.8.3/../../../../pic32mx/lib\libpic32.a(strlen.o)
                              build/pic32mx/debug/_ext/1360937237/app.o (strlen)
c:/program files (x86)/microchip/xc32/v1.40/bin/bin/../../lib/gcc/pic32mx/4.8.3/../../../../pic32mx/lib\libpic32.a(default-bootstrap-exception-handler.o)
                              c:/program files (x86)/microchip/xc32/v1.40/bin/bin/../../lib/gcc/pic32mx/4.8.3/../../../../pic32mx/lib/./proc/32MX795F512L/crt0_mips32r2.o (_bootstrap_exception_handler)
c:/program files (x86)/microchip/xc32/v1.40/bin/bin/../../lib/gcc/pic32mx/4.8.3/../../../../pic32mx/lib\libpic32.a(default-on-reset.o)
                              c:/program files (x86)/microchip/xc32/v1.40/bin/bin/../../lib/gcc/pic32mx/4.8.3/../../../../pic32mx/lib/./proc/32MX795F512L/crt0_mips32r2.o (_on_reset)
c:/program files (x86)/microchip/xc32/v1.40/bin/bin/../../lib/gcc/pic32mx/4.8.3/../../../../pic32mx/lib\libpic32.a(default-on-bootstrap.o)
                              c:/program files (x86)/microchip/xc32/v1.40/bin/bin/../../lib/gcc/pic32mx/4.8.3/../../../../pic32mx/lib/./proc/32MX795F512L/crt0_mips32r2.o (_on_bootstrap)
c:/program files (x86)/microchip/xc32/v1.40/bin/bin/../../lib/gcc/pic32mx/4.8.3/../../../../pic32mx/lib\libpic32.a(default-nmi-handler.o)
                              c:/program files (x86)/microchip/xc32/v1.40/bin/bin/../../lib/gcc/pic32mx/4.8.3/../../../../pic32mx/lib/./proc/32MX795F512L/crt0_mips32r2.o (_nmi_handler)
c:/program files (x86)/microchip/xc32/v1.40/bin/bin/../../lib/gcc/pic32mx/4.8.3/../../../../pic32mx/lib\libpic32.a(general-exception.o)
                              c:/program files (x86)/microchip/xc32/v1.40/bin/bin/../../lib/gcc/pic32mx/4.8.3/../../../../pic32mx/lib/./proc/32MX795F512L/crt0_mips32r2.o (_general_exception_context)
c:/program files (x86)/microchip/xc32/v1.40/bin/bin/../../lib/gcc/pic32mx/4.8.3/../../../../pic32mx/lib\libpic32.a(vector0.o)
                              c:/program files (x86)/microchip/xc32/v1.40/bin/bin/../../lib/gcc/pic32mx/4.8.3/../../../../pic32mx/lib/./proc/32MX795F512L\default_isr_vectors.o (__vector_dispatch_0)
c:/program files (x86)/microchip/xc32/v1.40/bin/bin/../../lib/gcc/pic32mx/4.8.3/../../../../pic32mx/lib\libpic32.a(vector1.o)
                              c:/program files (x86)/microchip/xc32/v1.40/bin/bin/../../lib/gcc/pic32mx/4.8.3/../../../../pic32mx/lib/./proc/32MX795F512L\default_isr_vectors.o (__vector_dispatch_1)
c:/program files (x86)/microchip/xc32/v1.40/bin/bin/../../lib/gcc/pic32mx/4.8.3/../../../../pic32mx/lib\libpic32.a(vector2.o)
                              c:/program files (x86)/microchip/xc32/v1.40/bin/bin/../../lib/gcc/pic32mx/4.8.3/../../../../pic32mx/lib/./proc/32MX795F512L\default_isr_vectors.o (__vector_dispatch_2)
c:/program files (x86)/microchip/xc32/v1.40/bin/bin/../../lib/gcc/pic32mx/4.8.3/../../../../pic32mx/lib\libpic32.a(vector3.o)
                              c:/program files (x86)/microchip/xc32/v1.40/bin/bin/../../lib/gcc/pic32mx/4.8.3/../../../../pic32mx/lib/./proc/32MX795F512L\default_isr_vectors.o (__vector_dispatch_3)
c:/program files (x86)/microchip/xc32/v1.40/bin/bin/../../lib/gcc/pic32mx/4.8.3/../../../../pic32mx/lib\libpic32.a(vector5.o)
                              c:/program files (x86)/microchip/xc32/v1.40/bin/bin/../../lib/gcc/pic32mx/4.8.3/../../../../pic32mx/lib/./proc/32MX795F512L\default_isr_vectors.o (__vector_dispatch_5)
c:/program files (x86)/microchip/xc32/v1.40/bin/bin/../../lib/gcc/pic32mx/4.8.3/../../../../pic32mx/lib\libpic32.a(vector6.o)
                              c:/program files (x86)/microchip/xc32/v1.40/bin/bin/../../lib/gcc/pic32mx/4.8.3/../../../../pic32mx/lib/./proc/32MX795F512L\default_isr_vectors.o (__vector_dispatch_6)
c:/program files (x86)/microchip/xc32/v1.40/bin/bin/../../lib/gcc/pic32mx/4.8.3/../../../../pic32mx/lib\libpic32.a(vector7.o)
                              c:/program files (x86)/microchip/xc32/v1.40/bin/bin/../../lib/gcc/pic32mx/4.8.3/../../../../pic32mx/lib/./proc/32MX795F512L\default_isr_vectors.o (__vector_dispatch_7)
c:/program files (x86)/microchip/xc32/v1.40/bin/bin/../../lib/gcc/pic32mx/4.8.3/../../../../pic32mx/lib\libpic32.a(vector8.o)
                              c:/program files (x86)/microchip/xc32/v1.40/bin/bin/../../lib/gcc/pic32mx/4.8.3/../../../../pic32mx/lib/./proc/32MX795F512L\default_isr_vectors.o (__vector_dispatch_8)
c:/program files (x86)/microchip/xc32/v1.40/bin/bin/../../lib/gcc/pic32mx/4.8.3/../../../../pic32mx/lib\libpic32.a(vector9.o)
                              c:/program files (x86)/microchip/xc32/v1.40/bin/bin/../../lib/gcc/pic32mx/4.8.3/../../../../pic32mx/lib/./proc/32MX795F512L\default_isr_vectors.o (__vector_dispatch_9)
c:/program files (x86)/microchip/xc32/v1.40/bin/bin/../../lib/gcc/pic32mx/4.8.3/../../../../pic32mx/lib\libpic32.a(vector10.o)
                              c:/program files (x86)/microchip/xc32/v1.40/bin/bin/../../lib/gcc/pic32mx/4.8.3/../../../../pic32mx/lib/./proc/32MX795F512L\default_isr_vectors.o (__vector_dispatch_10)
c:/program files (x86)/microchip/xc32/v1.40/bin/bin/../../lib/gcc/pic32mx/4.8.3/../../../../pic32mx/lib\libpic32.a(vector11.o)
                              c:/program files (x86)/microchip/xc32/v1.40/bin/bin/../../lib/gcc/pic32mx/4.8.3/../../../../pic32mx/lib/./proc/32MX795F512L\default_isr_vectors.o (__vector_dispatch_11)
c:/program files (x86)/microchip/xc32/v1.40/bin/bin/../../lib/gcc/pic32mx/4.8.3/../../../../pic32mx/lib\libpic32.a(vector12.o)
                              c:/program files (x86)/microchip/xc32/v1.40/bin/bin/../../lib/gcc/pic32mx/4.8.3/../../../../pic32mx/lib/./proc/32MX795F512L\default_isr_vectors.o (__vector_dispatch_12)
c:/program files (x86)/microchip/xc32/v1.40/bin/bin/../../lib/gcc/pic32mx/4.8.3/../../../../pic32mx/lib\libpic32.a(vector13.o)
                              c:/program files (x86)/microchip/xc32/v1.40/bin/bin/../../lib/gcc/pic32mx/4.8.3/../../../../pic32mx/lib/./proc/32MX795F512L\default_isr_vectors.o (__vector_dispatch_13)
c:/program files (x86)/microchip/xc32/v1.40/bin/bin/../../lib/gcc/pic32mx/4.8.3/../../../../pic32mx/lib\libpic32.a(vector14.o)
                              c:/program files (x86)/microchip/xc32/v1.40/bin/bin/../../lib/gcc/pic32mx/4.8.3/../../../../pic32mx/lib/./proc/32MX795F512L\default_isr_vectors.o (__vector_dispatch_14)
c:/program files (x86)/microchip/xc32/v1.40/bin/bin/../../lib/gcc/pic32mx/4.8.3/../../../../pic32mx/lib\libpic32.a(vector15.o)
                              c:/program files (x86)/microchip/xc32/v1.40/bin/bin/../../lib/gcc/pic32mx/4.8.3/../../../../pic32mx/lib/./proc/32MX795F512L\default_isr_vectors.o (__vector_dispatch_15)
c:/program files (x86)/microchip/xc32/v1.40/bin/bin/../../lib/gcc/pic32mx/4.8.3/../../../../pic32mx/lib\libpic32.a(vector16.o)
                              c:/program files (x86)/microchip/xc32/v1.40/bin/bin/../../lib/gcc/pic32mx/4.8.3/../../../../pic32mx/lib/./proc/32MX795F512L\default_isr_vectors.o (__vector_dispatch_16)
c:/program files (x86)/microchip/xc32/v1.40/bin/bin/../../lib/gcc/pic32mx/4.8.3/../../../../pic32mx/lib\libpic32.a(vector17.o)
                              c:/program files (x86)/microchip/xc32/v1.40/bin/bin/../../lib/gcc/pic32mx/4.8.3/../../../../pic32mx/lib/./proc/32MX795F512L\default_isr_vectors.o (__vector_dispatch_17)
c:/program files (x86)/microchip/xc32/v1.40/bin/bin/../../lib/gcc/pic32mx/4.8.3/../../../../pic32mx/lib\libpic32.a(vector18.o)
                              c:/program files (x86)/microchip/xc32/v1.40/bin/bin/../../lib/gcc/pic32mx/4.8.3/../../../../pic32mx/lib/./proc/32MX795F512L\default_isr_vectors.o (__vector_dispatch_18)
c:/program files (x86)/microchip/xc32/v1.40/bin/bin/../../lib/gcc/pic32mx/4.8.3/../../../../pic32mx/lib\libpic32.a(vector19.o)
                              c:/program files (x86)/microchip/xc32/v1.40/bin/bin/../../lib/gcc/pic32mx/4.8.3/../../../../pic32mx/lib/./proc/32MX795F512L\default_isr_vectors.o (__vector_dispatch_19)
c:/program files (x86)/microchip/xc32/v1.40/bin/bin/../../lib/gcc/pic32mx/4.8.3/../../../../pic32mx/lib\libpic32.a(vector20.o)
                              c:/program files (x86)/microchip/xc32/v1.40/bin/bin/../../lib/gcc/pic32mx/4.8.3/../../../../pic32mx/lib/./proc/32MX795F512L\default_isr_vectors.o (__vector_dispatch_20)
c:/program files (x86)/microchip/xc32/v1.40/bin/bin/../../lib/gcc/pic32mx/4.8.3/../../../../pic32mx/lib\libpic32.a(vector21.o)
                              c:/program files (x86)/microchip/xc32/v1.40/bin/bin/../../lib/gcc/pic32mx/4.8.3/../../../../pic32mx/lib/./proc/32MX795F512L\default_isr_vectors.o (__vector_dispatch_21)
c:/program files (x86)/microchip/xc32/v1.40/bin/bin/../../lib/gcc/pic32mx/4.8.3/../../../../pic32mx/lib\libpic32.a(vector22.o)
                              c:/program files (x86)/microchip/xc32/v1.40/bin/bin/../../lib/gcc/pic32mx/4.8.3/../../../../pic32mx/lib/./proc/32MX795F512L\default_isr_vectors.o (__vector_dispatch_22)
c:/program files (x86)/microchip/xc32/v1.40/bin/bin/../../lib/gcc/pic32mx/4.8.3/../../../../pic32mx/lib\libpic32.a(vector23.o)
                              c:/program files (x86)/microchip/xc32/v1.40/bin/bin/../../lib/gcc/pic32mx/4.8.3/../../../../pic32mx/lib/./proc/32MX795F512L\default_isr_vectors.o (__vector_dispatch_23)
c:/program files (x86)/microchip/xc32/v1.40/bin/bin/../../lib/gcc/pic32mx/4.8.3/../../../../pic32mx/lib\libpic32.a(vector24.o)
                              c:/program files (x86)/microchip/xc32/v1.40/bin/bin/../../lib/gcc/pic32mx/4.8.3/../../../../pic32mx/lib/./proc/32MX795F512L\default_isr_vectors.o (__vector_dispatch_24)
c:/program files (x86)/microchip/xc32/v1.40/bin/bin/../../lib/gcc/pic32mx/4.8.3/../../../../pic32mx/lib\libpic32.a(vector25.o)
                              c:/program files (x86)/microchip/xc32/v1.40/bin/bin/../../lib/gcc/pic32mx/4.8.3/../../../../pic32mx/lib/./proc/32MX795F512L\default_isr_vectors.o (__vector_dispatch_25)
c:/program files (x86)/microchip/xc32/v1.40/bin/bin/../../lib/gcc/pic32mx/4.8.3/../../../../pic32mx/lib\libpic32.a(vector26.o)
                              c:/program files (x86)/microchip/xc32/v1.40/bin/bin/../../lib/gcc/pic32mx/4.8.3/../../../../pic32mx/lib/./proc/32MX795F512L\default_isr_vectors.o (__vector_dispatch_26)
c:/program files (x86)/microchip/xc32/v1.40/bin/bin/../../lib/gcc/pic32mx/4.8.3/../../../../pic32mx/lib\libpic32.a(vector27.o)
                              c:/program files (x86)/microchip/xc32/v1.40/bin/bin/../../lib/gcc/pic32mx/4.8.3/../../../../pic32mx/lib/./proc/32MX795F512L\default_isr_vectors.o (__vector_dispatch_27)
c:/program files (x86)/microchip/xc32/v1.40/bin/bin/../../lib/gcc/pic32mx/4.8.3/../../../../pic32mx/lib\libpic32.a(vector28.o)
                              c:/program files (x86)/microchip/xc32/v1.40/bin/bin/../../lib/gcc/pic32mx/4.8.3/../../../../pic32mx/lib/./proc/32MX795F512L\default_isr_vectors.o (__vector_dispatch_28)
c:/program files (x86)/microchip/xc32/v1.40/bin/bin/../../lib/gcc/pic32mx/4.8.3/../../../../pic32mx/lib\libpic32.a(vector29.o)
                              c:/program files (x86)/microchip/xc32/v1.40/bin/bin/../../lib/gcc/pic32mx/4.8.3/../../../../pic32mx/lib/./proc/32MX795F512L\default_isr_vectors.o (__vector_dispatch_29)
c:/program files (x86)/microchip/xc32/v1.40/bin/bin/../../lib/gcc/pic32mx/4.8.3/../../../../pic32mx/lib\libpic32.a(vector30.o)
                              c:/program files (x86)/microchip/xc32/v1.40/bin/bin/../../lib/gcc/pic32mx/4.8.3/../../../../pic32mx/lib/./proc/32MX795F512L\default_isr_vectors.o (__vector_dispatch_30)
c:/program files (x86)/microchip/xc32/v1.40/bin/bin/../../lib/gcc/pic32mx/4.8.3/../../../../pic32mx/lib\libpic32.a(vector31.o)
                              c:/program files (x86)/microchip/xc32/v1.40/bin/bin/../../lib/gcc/pic32mx/4.8.3/../../../../pic32mx/lib/./proc/32MX795F512L\default_isr_vectors.o (__vector_dispatch_31)
c:/program files (x86)/microchip/xc32/v1.40/bin/bin/../../lib/gcc/pic32mx/4.8.3/../../../../pic32mx/lib\libpic32.a(vector32.o)
                              c:/program files (x86)/microchip/xc32/v1.40/bin/bin/../../lib/gcc/pic32mx/4.8.3/../../../../pic32mx/lib/./proc/32MX795F512L\default_isr_vectors.o (__vector_dispatch_32)
c:/program files (x86)/microchip/xc32/v1.40/bin/bin/../../lib/gcc/pic32mx/4.8.3/../../../../pic32mx/lib\libpic32.a(vector33.o)
                              c:/program files (x86)/microchip/xc32/v1.40/bin/bin/../../lib/gcc/pic32mx/4.8.3/../../../../pic32mx/lib/./proc/32MX795F512L\default_isr_vectors.o (__vector_dispatch_33)
c:/program files (x86)/microchip/xc32/v1.40/bin/bin/../../lib/gcc/pic32mx/4.8.3/../../../../pic32mx/lib\libpic32.a(vector34.o)
                              c:/program files (x86)/microchip/xc32/v1.40/bin/bin/../../lib/gcc/pic32mx/4.8.3/../../../../pic32mx/lib/./proc/32MX795F512L\default_isr_vectors.o (__vector_dispatch_34)
c:/program files (x86)/microchip/xc32/v1.40/bin/bin/../../lib/gcc/pic32mx/4.8.3/../../../../pic32mx/lib\libpic32.a(vector35.o)
                              c:/program files (x86)/microchip/xc32/v1.40/bin/bin/../../lib/gcc/pic32mx/4.8.3/../../../../pic32mx/lib/./proc/32MX795F512L\default_isr_vectors.o (__vector_dispatch_35)
c:/program files (x86)/microchip/xc32/v1.40/bin/bin/../../lib/gcc/pic32mx/4.8.3/../../../../pic32mx/lib\libpic32.a(vector36.o)
                              c:/program files (x86)/microchip/xc32/v1.40/bin/bin/../../lib/gcc/pic32mx/4.8.3/../../../../pic32mx/lib/./proc/32MX795F512L\default_isr_vectors.o (__vector_dispatch_36)
c:/program files (x86)/microchip/xc32/v1.40/bin/bin/../../lib/gcc/pic32mx/4.8.3/../../../../pic32mx/lib\libpic32.a(vector37.o)
                              c:/program files (x86)/microchip/xc32/v1.40/bin/bin/../../lib/gcc/pic32mx/4.8.3/../../../../pic32mx/lib/./proc/32MX795F512L\default_isr_vectors.o (__vector_dispatch_37)
c:/program files (x86)/microchip/xc32/v1.40/bin/bin/../../lib/gcc/pic32mx/4.8.3/../../../../pic32mx/lib\libpic32.a(vector38.o)
                              c:/program files (x86)/microchip/xc32/v1.40/bin/bin/../../lib/gcc/pic32mx/4.8.3/../../../../pic32mx/lib/./proc/32MX795F512L\default_isr_vectors.o (__vector_dispatch_38)
c:/program files (x86)/microchip/xc32/v1.40/bin/bin/../../lib/gcc/pic32mx/4.8.3/../../../../pic32mx/lib\libpic32.a(vector39.o)
                              c:/program files (x86)/microchip/xc32/v1.40/bin/bin/../../lib/gcc/pic32mx/4.8.3/../../../../pic32mx/lib/./proc/32MX795F512L\default_isr_vectors.o (__vector_dispatch_39)
c:/program files (x86)/microchip/xc32/v1.40/bin/bin/../../lib/gcc/pic32mx/4.8.3/../../../../pic32mx/lib\libpic32.a(vector40.o)
                              c:/program files (x86)/microchip/xc32/v1.40/bin/bin/../../lib/gcc/pic32mx/4.8.3/../../../../pic32mx/lib/./proc/32MX795F512L\default_isr_vectors.o (__vector_dispatch_40)
c:/program files (x86)/microchip/xc32/v1.40/bin/bin/../../lib/gcc/pic32mx/4.8.3/../../../../pic32mx/lib\libpic32.a(vector41.o)
                              c:/program files (x86)/microchip/xc32/v1.40/bin/bin/../../lib/gcc/pic32mx/4.8.3/../../../../pic32mx/lib/./proc/32MX795F512L\default_isr_vectors.o (__vector_dispatch_41)
c:/program files (x86)/microchip/xc32/v1.40/bin/bin/../../lib/gcc/pic32mx/4.8.3/../../../../pic32mx/lib\libpic32.a(vector42.o)
                              c:/program files (x86)/microchip/xc32/v1.40/bin/bin/../../lib/gcc/pic32mx/4.8.3/../../../../pic32mx/lib/./proc/32MX795F512L\default_isr_vectors.o (__vector_dispatch_42)
c:/program files (x86)/microchip/xc32/v1.40/bin/bin/../../lib/gcc/pic32mx/4.8.3/../../../../pic32mx/lib\libpic32.a(vector43.o)
                              c:/program files (x86)/microchip/xc32/v1.40/bin/bin/../../lib/gcc/pic32mx/4.8.3/../../../../pic32mx/lib/./proc/32MX795F512L\default_isr_vectors.o (__vector_dispatch_43)
c:/program files (x86)/microchip/xc32/v1.40/bin/bin/../../lib/gcc/pic32mx/4.8.3/../../../../pic32mx/lib\libpic32.a(vector46.o)
                              c:/program files (x86)/microchip/xc32/v1.40/bin/bin/../../lib/gcc/pic32mx/4.8.3/../../../../pic32mx/lib/./proc/32MX795F512L\default_isr_vectors.o (__vector_dispatch_46)
c:/program files (x86)/microchip/xc32/v1.40/bin/bin/../../lib/gcc/pic32mx/4.8.3/../../../../pic32mx/lib\libpic32.a(vector47.o)
                              c:/program files (x86)/microchip/xc32/v1.40/bin/bin/../../lib/gcc/pic32mx/4.8.3/../../../../pic32mx/lib/./proc/32MX795F512L\default_isr_vectors.o (__vector_dispatch_47)
c:/program files (x86)/microchip/xc32/v1.40/bin/bin/../../lib/gcc/pic32mx/4.8.3/../../../../pic32mx/lib\libpic32.a(vector49.o)
                              c:/program files (x86)/microchip/xc32/v1.40/bin/bin/../../lib/gcc/pic32mx/4.8.3/../../../../pic32mx/lib/./proc/32MX795F512L\default_isr_vectors.o (__vector_dispatch_49)
c:/program files (x86)/microchip/xc32/v1.40/bin/bin/../../lib/gcc/pic32mx/4.8.3/../../../../pic32mx/lib\libpic32.a(vector50.o)
                              c:/program files (x86)/microchip/xc32/v1.40/bin/bin/../../lib/gcc/pic32mx/4.8.3/../../../../pic32mx/lib/./proc/32MX795F512L\default_isr_vectors.o (__vector_dispatch_50)
c:/program files (x86)/microchip/xc32/v1.40/bin/bin/../../lib/gcc/pic32mx/4.8.3/../../../../pic32mx/lib\libpic32.a(vector51.o)
                              c:/program files (x86)/microchip/xc32/v1.40/bin/bin/../../lib/gcc/pic32mx/4.8.3/../../../../pic32mx/lib/./proc/32MX795F512L\default_isr_vectors.o (__vector_dispatch_51)
c:/program files (x86)/microchip/xc32/v1.40/bin/bin/../../lib/gcc/pic32mx/4.8.3/../../../../pic32mx/lib\libpic32.a(defaultinterrupt.o)
                              c:/program files (x86)/microchip/xc32/v1.40/bin/bin/../../lib/gcc/pic32mx/4.8.3/../../../../pic32mx/lib\libpic32.a(vector0.o) (_DefaultInterrupt)
c:/program files (x86)/microchip/xc32/v1.40/bin/bin/../../lib/gcc/pic32mx/4.8.3/../../../../pic32mx/lib\libm.a(fp32div.o)
                              build/pic32mx/debug/_ext/1360937237/app.o (fpdiv)
c:/program files (x86)/microchip/xc32/v1.40/bin/bin/../../lib/gcc/pic32mx/4.8.3/../../../../pic32mx/lib\libm.a(fp32mul.o)
                              build/pic32mx/debug/_ext/1360937237/app.o (fpmul)
c:/program files (x86)/microchip/xc32/v1.40/bin/bin/../../lib/gcc/pic32mx/4.8.3/../../../../pic32mx/lib\libm.a(fp32subadd.o)
                              build/pic32mx/debug/_ext/1360937237/custom_http_app.o (fpsub)
c:/program files (x86)/microchip/xc32/v1.40/bin/bin/../../lib/gcc/pic32mx/4.8.3/../../../../pic32mx/lib\libm.a(fptoli.o)
                              build/pic32mx/debug/_ext/1360937237/custom_http_app.o (fptosi)
c:/program files (x86)/microchip/xc32/v1.40/bin/bin/../../lib/gcc/pic32mx/4.8.3/../../../../pic32mx/lib\libm.a(sitofp.o)
                              build/pic32mx/debug/_ext/1360937237/app.o (sitofp)
c:/program files (x86)/microchip/xc32/v1.40/bin/bin/../../lib/gcc/pic32mx/4.8.3/../../../../pic32mx/lib\libc.a(atoi.o)
                              build/pic32mx/debug/_ext/1360937237/app.o (atoi)
c:/program files (x86)/microchip/xc32/v1.40/bin/bin/../../lib/gcc/pic32mx/4.8.3/../../../../pic32mx/lib\libc.a(atol.o)
                              build/pic32mx/debug/_ext/1408260596/http.o (atol)
c:/program files (x86)/microchip/xc32/v1.40/bin/bin/../../lib/gcc/pic32mx/4.8.3/../../../../pic32mx/lib\libc.a(ctype.o)
                              build/pic32mx/debug/_ext/1408260596/tcpip_helpers.o (_ctype)
c:/program files (x86)/microchip/xc32/v1.40/bin/bin/../../lib/gcc/pic32mx/4.8.3/../../../../pic32mx/lib\libc.a(malloc.o)
                              build/pic32mx/debug/_ext/425903153/sys_command.o (malloc)
c:/program files (x86)/microchip/xc32/v1.40/bin/bin/../../lib/gcc/pic32mx/4.8.3/../../../../pic32mx/lib\libc.a(rand.o)
                              build/pic32mx/debug/_ext/1886890887/random.o (srand)
c:/program files (x86)/microchip/xc32/v1.40/bin/bin/../../lib/gcc/pic32mx/4.8.3/../../../../pic32mx/lib\libc.a(strcat.o)
                              build/pic32mx/debug/_ext/2104899551/sys_fs.o (strcat)
c:/program files (x86)/microchip/xc32/v1.40/bin/bin/../../lib/gcc/pic32mx/4.8.3/../../../../pic32mx/lib\libc.a(strncat.o)
                              build/pic32mx/debug/_ext/1136935090/sys_fs_wrapper.o (strncat)
c:/program files (x86)/microchip/xc32/v1.40/bin/bin/../../lib/gcc/pic32mx/4.8.3/../../../../pic32mx/lib\libc.a(strncmp.o)
                              build/pic32mx/debug/_ext/2104899551/sys_fs.o (strncmp)
c:/program files (x86)/microchip/xc32/v1.40/bin/bin/../../lib/gcc/pic32mx/4.8.3/../../../../pic32mx/lib\libc.a(strncpy.o)
                              build/pic32mx/debug/_ext/1360937237/custom_http_app.o (strncpy)
c:/program files (x86)/microchip/xc32/v1.40/bin/bin/../../lib/gcc/pic32mx/4.8.3/../../../../pic32mx/lib\libc.a(strtol.o)
                              build/pic32mx/debug/_ext/1408260596/tcpip_helpers.o (strtol)
c:/program files (x86)/microchip/xc32/v1.40/bin/bin/../../lib/gcc/pic32mx/4.8.3/../../../../pic32mx/lib\libc.a(sprintf_cdnopsuxX.eo)
                              build/pic32mx/debug/_ext/1408260596/tcpip_packet.o (_sprintf_cdnopsuxX)
c:/program files (x86)/microchip/xc32/v1.40/bin/bin/../../lib/gcc/pic32mx/4.8.3/../../../../pic32mx/lib\libc.a(sprintf_cdnopuxX.eo)
                              build/pic32mx/debug/_ext/1360937237/custom_http_app.o (_sprintf_cdnopuxX)
c:/program files (x86)/microchip/xc32/v1.40/bin/bin/../../lib/gcc/pic32mx/4.8.3/../../../../pic32mx/lib\libc.a(vsnprintf.o)
                              build/pic32mx/debug/_ext/425903153/sys_command.o (vsnprintf)
c:/program files (x86)/microchip/xc32/v1.40/bin/bin/../../lib/gcc/pic32mx/4.8.3/../../../../pic32mx/lib\libc.a(ctypef.o)
                              c:/program files (x86)/microchip/xc32/v1.40/bin/bin/../../lib/gcc/pic32mx/4.8.3/../../../../pic32mx/lib\libc.a(strtol.o) (toupper)
c:/program files (x86)/microchip/xc32/v1.40/bin/bin/../../lib/gcc/pic32mx/4.8.3/../../../../pic32mx/lib\libc.a(errno.o)
                              c:/program files (x86)/microchip/xc32/v1.40/bin/bin/../../lib/gcc/pic32mx/4.8.3/../../../../pic32mx/lib\libc.a(strtol.o) (errno)
c:/program files (x86)/microchip/xc32/v1.40/bin/bin/../../lib/gcc/pic32mx/4.8.3/../../../../pic32mx/lib\libc.a(doprnt_cdnopsuxX.eo)
                              c:/program files (x86)/microchip/xc32/v1.40/bin/bin/../../lib/gcc/pic32mx/4.8.3/../../../../pic32mx/lib\libc.a(sprintf_cdnopsuxX.eo) (_vfprintf_cdnopsuxX)
c:/program files (x86)/microchip/xc32/v1.40/bin/bin/../../lib/gcc/pic32mx/4.8.3/../../../../pic32mx/lib\libc.a(doprnt_cdnopuxX.eo)
                              c:/program files (x86)/microchip/xc32/v1.40/bin/bin/../../lib/gcc/pic32mx/4.8.3/../../../../pic32mx/lib\libc.a(sprintf_cdnopuxX.eo) (_vfprintf_cdnopuxX)
c:/program files (x86)/microchip/xc32/v1.40/bin/bin/../../lib/gcc/pic32mx/4.8.3/../../../../pic32mx/lib\libc.a(doprnt.o)
                              c:/program files (x86)/microchip/xc32/v1.40/bin/bin/../../lib/gcc/pic32mx/4.8.3/../../../../pic32mx/lib\libc.a(vsnprintf.o) (vfprintf)
c:/program files (x86)/microchip/xc32/v1.40/bin/bin/../../lib/gcc/pic32mx/4.8.3/../../../../pic32mx/lib\libc.a(_fputc_simple.o)
                              c:/program files (x86)/microchip/xc32/v1.40/bin/bin/../../lib/gcc/pic32mx/4.8.3/../../../../pic32mx/lib\libc.a(doprnt_cdnopsuxX.eo) (fputc)
c:/program files (x86)/microchip/xc32/v1.40/bin/bin/../../lib/gcc/pic32mx/4.8.3/../../../../pic32mx/lib\libc.a(powersf.o)
                              c:/program files (x86)/microchip/xc32/v1.40/bin/bin/../../lib/gcc/pic32mx/4.8.3/../../../../pic32mx/lib\libc.a(doprnt.o) (_powers_f)
c:/program files (x86)/microchip/xc32/v1.40/bin/bin/../../lib/gcc/pic32mx/4.8.3/../../../../pic32mx/lib\libc.a(_iob.o)
                              c:/program files (x86)/microchip/xc32/v1.40/bin/bin/../../lib/gcc/pic32mx/4.8.3/../../../../pic32mx/lib\libc.a(_fputc_simple.o) (_outdone)
c:/program files (x86)/microchip/xc32/v1.40/bin/bin/../../lib/gcc/pic32mx/4.8.3/../../../../pic32mx/lib\libc.a(_flsbuf_simple.o)
                              c:/program files (x86)/microchip/xc32/v1.40/bin/bin/../../lib/gcc/pic32mx/4.8.3/../../../../pic32mx/lib\libc.a(_fputc_simple.o) (_flsbuf)
c:/program files (x86)/microchip/xc32/v1.40/bin/bin/../../lib/gcc/pic32mx/4.8.3/../../../../pic32mx/lib\libpic32.a(sbrk.o)
                              c:/program files (x86)/microchip/xc32/v1.40/bin/bin/../../lib/gcc/pic32mx/4.8.3/../../../../pic32mx/lib\libc.a(malloc.o) (sbrk)
c:/program files (x86)/microchip/xc32/v1.40/bin/bin/../../lib/gcc/pic32mx/4.8.3/../../../../pic32mx/lib\libpic32.a(write.o)
                              c:/program files (x86)/microchip/xc32/v1.40/bin/bin/../../lib/gcc/pic32mx/4.8.3/../../../../pic32mx/lib\libc.a(_fputc_simple.o) (write)
c:/program files (x86)/microchip/xc32/v1.40/bin/bin/../../lib/gcc/pic32mx/4.8.3/../../../../pic32mx/lib\libpic32.a(_mon_putc.o)
                              c:/program files (x86)/microchip/xc32/v1.40/bin/bin/../../lib/gcc/pic32mx/4.8.3/../../../../pic32mx/lib\libpic32.a(write.o) (_mon_putc)
c:/program files (x86)/microchip/xc32/v1.40/bin/bin/../../lib/gcc/pic32mx/4.8.3/../../../../pic32mx/lib\libpic32.a(xc32_uart.o)
                              c:/program files (x86)/microchip/xc32/v1.40/bin/bin/../../lib/gcc/pic32mx/4.8.3/../../../../pic32mx/lib\libpic32.a(_mon_putc.o) (__XC_UART)
c:/program files (x86)/microchip/xc32/v1.40/bin/bin/../../lib/gcc/pic32mx/4.8.3/../../../../pic32mx/lib\libm.a(fpcmp.o)
                              c:/program files (x86)/microchip/xc32/v1.40/bin/bin/../../lib/gcc/pic32mx/4.8.3/../../../../pic32mx/lib\libc.a(doprnt.o) (fpcmp)
c:/program files (x86)/microchip/xc32/v1.40/bin/bin/../../lib/gcc/pic32mx/4.8.3/../../../../pic32mx/lib\libm.a(fpfrexp.o)
                              c:/program files (x86)/microchip/xc32/v1.40/bin/bin/../../lib/gcc/pic32mx/4.8.3/../../../../pic32mx/lib\libc.a(doprnt.o) (frexpf)
c:/program files (x86)/microchip/xc32/v1.40/bin/bin/../../lib/gcc/pic32mx/4.8.3/../../../../pic32mx/lib\libm.a(fptoul.o)
                              c:/program files (x86)/microchip/xc32/v1.40/bin/bin/../../lib/gcc/pic32mx/4.8.3/../../../../pic32mx/lib\libc.a(doprnt.o) (fptoui)
c:/program files (x86)/microchip/xc32/v1.40/bin/bin/../../lib/gcc/pic32mx/4.8.3/../../../../pic32mx/lib\libe.a(_floatdisf.o)
                              c:/program files (x86)/microchip/xc32/v1.40/bin/bin/../../lib/gcc/pic32mx/4.8.3/../../../../pic32mx/lib\libc.a(doprnt.o) (__floatdisf)
c:/program files (x86)/microchip/xc32/v1.40/bin/bin/../../lib/gcc/pic32mx/4.8.3\libgcc.a(_umoddi3.o)
                              c:/program files (x86)/microchip/xc32/v1.40/bin/bin/../../lib/gcc/pic32mx/4.8.3/../../../../pic32mx/lib\libc.a(doprnt_cdnopsuxX.eo) (__umoddi3)
c:/program files (x86)/microchip/xc32/v1.40/bin/bin/../../lib/gcc/pic32mx/4.8.3\libgcc.a(floatunsisf.o)
                              c:/program files (x86)/microchip/xc32/v1.40/bin/bin/../../lib/gcc/pic32mx/4.8.3/../../../../pic32mx/lib\libc.a(doprnt.o) (__floatunsisf)

Allocating common symbols
Common symbol       size              file

gDrvETHPHYClientObj
                    0x34              build/pic32mx/debug/_ext/732687875/drv_ethphy.o
charbuff            0x4               build/pic32mx/debug/_ext/1360937237/app.o
check               0x4               build/pic32mx/debug/_ext/1360937237/app.o
gSYSFSObj           0x8               build/pic32mx/debug/_ext/2104899551/sys_fs.o
dupa                0x2               build/pic32mx/debug/_ext/1360937237/app.o
mutexFileSystemObj  0x1               build/pic32mx/debug/_ext/2104899551/sys_fs.o
gUSBDeviceCDCInstance
                    0x40              build/pic32mx/debug/_ext/610166344/usb_device_cdc.o
gNVMGeometryTable   0x4               build/pic32mx/debug/_ext/571308596/drv_nvm.o
AppBuffer2          0x4               build/pic32mx/debug/_ext/1360937237/app.o
endPointTable       0x60              build/pic32mx/debug/_ext/435813987/system_init.o
addrw               0x4               build/pic32mx/debug/_ext/1360937237/app.o
gUSBDeviceCDCIRP    0x6c              build/pic32mx/debug/_ext/610166344/usb_device_cdc.o
modeSeljunk         0x4               build/pic32mx/debug/_ext/1482089478/sys_clk_static.o
sysObj              0x20              build/pic32mx/debug/_ext/435813987/system_init.o
lastBlock           0x40              build/pic32mx/debug/_ext/1136935090/hashes.o
BDT_ENTRY           0x8               build/pic32mx/debug/_ext/1482089478/sys_clk_static.o
rdQElements         0x8               build/pic32mx/debug/_ext/30809027/sys_console_usb_cdc.o
Napiecie_int        0x4               build/pic32mx/debug/_ext/1360937237/app.o
gSYSFSFileObj       0x1a90            build/pic32mx/debug/_ext/2104899551/sys_fs.o
gSYSFSDirObj        0x190             build/pic32mx/debug/_ext/2104899551/sys_fs.o
wCurrentChunk       0x2               build/pic32mx/debug/_ext/1360937237/app.o
gDrvNVMObj          0x34              build/pic32mx/debug/_ext/571308596/drv_nvm.o
gSYSFSMountPoint    0x14              build/pic32mx/debug/_ext/2104899551/sys_fs.o
gDrvNVMBufferObject
                    0xf0              build/pic32mx/debug/_ext/571308596/drv_nvm.o
gDrvNVMClientObj    0x18              build/pic32mx/debug/_ext/571308596/drv_nvm.o
nvmClientObjMutex   0x1               build/pic32mx/debug/_ext/571308596/drv_nvm.o
wrQElements         0x400             build/pic32mx/debug/_ext/30809027/sys_console_usb_cdc.o
mpfsObject          0x10              build/pic32mx/debug/_ext/850537704/mpfs.o
gDrvUSBGroup        0xc0              build/pic32mx/debug/_ext/764219029/drv_usbfs.o
sysDevconObj        0x8               build/pic32mx/debug/_ext/1271179505/sys_devcon.o
AppBuffer           0x4               build/pic32mx/debug/_ext/1360937237/app.o
portc               0x4               build/pic32mx/debug/_ext/1360937237/app.o
gSYSFSMediaObject   0x30              build/pic32mx/debug/_ext/2104899551/sys_fs_media_manager.o
sysRandCtx          0x108             build/pic32mx/debug/_ext/1283840359/sys_random.o
nvmBufObjMutex      0x1               build/pic32mx/debug/_ext/571308596/drv_nvm.o
gSYSFSCurrentMountPoint
                    0x8               build/pic32mx/debug/_ext/2104899551/sys_fs.o
gUSBDeviceCdcCommonDataObj
                    0x2               build/pic32mx/debug/_ext/610166344/usb_device_cdc.o
gDrvETHPHYObj       0x28              build/pic32mx/debug/_ext/732687875/drv_ethphy.o
Napiecie_to_fix     0x4               build/pic32mx/debug/_ext/1360937237/app.o
errorValue          0x4               build/pic32mx/debug/_ext/2104899551/sys_fs.o
wMaxPut             0x2               build/pic32mx/debug/_ext/1360937237/app.o
gDrvNVMMediaGeometry
                    0x4               build/pic32mx/debug/_ext/571308596/drv_nvm.o
gSYSFSVolumeObject  0x20              build/pic32mx/debug/_ext/2104899551/sys_fs_media_manager.o
sxed                0x4               build/pic32mx/debug/_ext/1360937237/app.o
wMaxGet             0x2               build/pic32mx/debug/_ext/1360937237/app.o
VolToPart           0x2               build/pic32mx/debug/_ext/2104899551/sys_fs_media_manager.o
port                0x2               build/pic32mx/debug/_ext/1360937237/app.o
mutexDirObj         0x1               build/pic32mx/debug/_ext/2104899551/sys_fs.o

Microchip PIC32 Memory-Usage Report

kseg0 Program-Memory Usage
section                    address  length [bytes]      (dec)  Description
-------                 ----------  -------------------------  -----------
.text.vfprintf          0x9d000000         0x1c08        7176   
.text.TCPIP_HTTP_Proces 0x9d001c08         0x19e4        6628   
.text.TCPIP_TCP_Process 0x9d0035ec          0xed4        3796   
.text._vfprintf_cdnopsu 0x9d0044c0          0xad0        2768   
.rodata                 0x9d004f90          0x920        2336  Read-only const 
.text.TCPIP_STACK_Task  0x9d0058b0          0x8ac        2220   
.text.TCPIP_DHCP_Task   0x9d00615c          0x844        2116   
.text._DRV_USBFS_DEVICE 0x9d0069a0          0x6e8        1768   
.text._TcpSend          0x9d007088          0x6d0        1744   
.text.APP_Tasks         0x9d007758          0x6b0        1712   
.text.TCPIP_HTTP_PostEx 0x9d007e08          0x6ac        1708   
.dinit                  0x9d0084b4          0x6a0        1696   
.text.SYS_FS_MEDIA_MANA 0x9d008b54          0x658        1624   
.text.TCPIP_ZCLL_Task   0x9d0091ac          0x5ec        1516   
.text.SYS_CMD_Tasks     0x9d009798          0x4f0        1264   
.text.Console_USB_Tasks 0x9d009c88          0x4d0        1232   
.text.TCPIP_SNTP_Task   0x9d00a158          0x4b0        1200   
.text.TCPIP_TCP_FifoSiz 0x9d00a608          0x4ac        1196   
.text.TCPIP_TCP_Tick    0x9d00aab4          0x494        1172   
.text.DRV_ETHMAC_PIC32M 0x9d00af48          0x480        1152   
.text                   0x9d00b3c8          0x8bc        2236  App's exec code 
.text.TCPIP_Helper_Stri 0x9d00bc84          0x3f0        1008   
.text.DRV_NVM_Tasks     0x9d00c074          0x3d0         976   
.text.TCPIP_DNS_Send_Qu 0x9d00c444          0x3cc         972   
.rodata                 0x9d00c810          0x3a0         928  Read-only const 
.text.TCPIP_TCP_ArrayFi 0x9d00cbb0          0x3a0         928   
.text._TCP_Open         0x9d00cf50          0x380         896   
.text._DNS_GetResultPro 0x9d00d2d0          0x33c         828   
.text.TCPIP_ARP_Initial 0x9d00d60c          0x334         820   
.text.TCPIP_NBNS_Task   0x9d00d940          0x32c         812   
.text.TCPIP_STACK_Bring 0x9d00dc6c          0x328         808   
.text.TCPIP_DNS_ClientI 0x9d00df94          0x308         776   
.text.ParseCmdBuffer    0x9d00e29c          0x2fc         764   
.text.SYS_TMR_Tasks     0x9d00e598          0x2f4         756   
.text._DHCPSend         0x9d00e88c          0x2ec         748   
.text.TCPIP_IPV4_Packet 0x9d00eb78          0x2e0         736   
.text.CommandHelp       0x9d00ee58          0x2dc         732   
.text.TCPIP_ARP_Task    0x9d00f134          0x2cc         716   
.text.TCPIP_ANNOUNCE_Se 0x9d00f400          0x2bc         700   
.text.MPFS_Open         0x9d00f6bc          0x29c         668   
.text.malloc            0x9d00f958          0x288         648   
.text.TCPIP_IPV4_Proces 0x9d00fbe0          0x280         640   
.text.TCPIP_UDP_Process 0x9d00fe60          0x27c         636   
.text.TCPIP_STACK_Initi 0x9d0100dc          0x278         632   
.text.fpsubadd          0x9d010354          0x278         632   
.text.TCPIP_TCP_ArrayPu 0x9d0105cc          0x274         628   
.text.TCPIP_UDP_Flush   0x9d010840          0x270         624   
.text.TCPIP_DNS_IsResol 0x9d010ab0          0x268         616   
.text._USB_DEVICE_Proce 0x9d010d18          0x268         616   
.rodata                 0x9d010f80          0x264         612  Read-only const 
.text.DRV_NVM_EraseWrit 0x9d0111e4          0x25c         604   
.text.TCPIP_ARP_Process 0x9d011440          0x25c         604   
.text.TCPIP_ICMP_Proces 0x9d01169c          0x25c         604   
.text                   0x9d0118f8          0x25c         604  App's exec code 
.text.SYS_FS_FileOpen   0x9d011b54          0x258         600   
.text._DHCPReceive      0x9d011dac          0x254         596   
.text.DRV_ETHMAC_PIC32M 0x9d012000          0x244         580   
.text.DRV_ETHMAC_LibRxB 0x9d012244          0x240         576   
.text.MPFS_Stat         0x9d012484          0x23c         572   
.text.TCPIP_HTTP_Initia 0x9d0126c0          0x234         564   
.text._TCPIP_HEAP_Free  0x9d0128f4          0x230         560   
.text.fp32div           0x9d012b24          0x230         560   
.text._DNS_RESPONSE_Has 0x9d012d54          0x224         548   
.text._DRV_NVM_BlockOpe 0x9d012f78          0x220         544   
.text._UDPOpen          0x9d013198          0x220         544   
.text.DRV_TMR_Initializ 0x9d0133b8          0x21c         540   
.text.DRV_USBFS_DEVICE_ 0x9d0135d4          0x21c         540   
.text.scale             0x9d0137f0          0x21c         540   
.text._USB_DEVICE_Proce 0x9d013a0c          0x214         532   
.text.__floatdisf       0x9d013c20          0x214         532   
.text.MD5Calculate      0x9d013e34          0x20c         524   
.text._DRV_PHY_SMITrans 0x9d014040          0x1f8         504   
.text._USB_DEVICE_Event 0x9d014238          0x1f8         504   
.text._DRV_ETHPHY_Setup 0x9d014430          0x1f4         500   
.text._LoadDefaultConfi 0x9d014624          0x1e8         488   
.text.TCPIP_UDP_Bind    0x9d01480c          0x1e0         480   
.text.SYS_FS_MEDIA_MANA 0x9d0149ec          0x1dc         476   
.text.DRV_USBFS_Initial 0x9d014bc8          0x1d8         472   
.text._USB_DEVICE_Contr 0x9d014da0          0x1d8         472   
.text.DRV_ETHMAC_PIC32M 0x9d014f78          0x1d4         468   
.text.strtoul           0x9d01514c          0x1d4         468   
.rodata                 0x9d015320          0x1d0         464  Read-only const 
.text.TCPIP_Helper_Stri 0x9d0154f0          0x1cc         460   
.text.TCPIP_ARP_EntryRe 0x9d0156bc          0x1c8         456   
.text.USB_DEVICE_CDC_Wr 0x9d015884          0x1c8         456   
.text._EthAckPacket     0x9d015a4c          0x1bc         444   
.text.SYS_FS_MEDIA_MANA 0x9d015c08          0x1bc         444   
.text.fp32mul           0x9d015dc4          0x1bc         444   
.text.DRV_NVM_Read      0x9d015f80          0x1b8         440   
.text.DRV_USBFS_DEVICE_ 0x9d016138          0x1b8         440   
.text.SYS_Initialize    0x9d0162f0          0x1b4         436   
.text.DRV_USBFS_DEVICE_ 0x9d0164a4          0x1b0         432   
.text.TCPIP_UDP_ArrayGe 0x9d016654          0x1b0         432   
.text.TCPIP_UDP_Options 0x9d016804          0x1b0         432   
.text.DRV_USBFS_DEVICE_ 0x9d0169b4          0x1ac         428   
.text.TCPIP_Helper_Base 0x9d016b60          0x1ac         428   
.text._DRV_ETHMAC_AddRx 0x9d016d0c          0x1a8         424   
.text.USB_DEVICE_CDC_Re 0x9d016eb4          0x1a8         424   
.text.DRV_TMR_CounterFr 0x9d01705c          0x1a4         420   
.text.fround            0x9d017200          0x1a4         420   
.text                   0x9d0173a4          0x1a0         416  App's exec code 
.text.DRV_ETHMAC_LibRxG 0x9d017544          0x19c         412   
.text._DRV_TMR_ClockPre 0x9d0176e0          0x19c         412   
.text.TCPIP_UDP_Initial 0x9d01787c          0x19c         412   
.text.strtol            0x9d017a18          0x19c         412   
.text.DRV_ETHMAC_LibMAC 0x9d017bb4          0x198         408   
.text._SYS_FS_MEDIA_MAN 0x9d017d4c          0x198         408   
.text.TCPIP_UDP_Deiniti 0x9d017ee4          0x198         408   
.text._ARPProbeAddress  0x9d01807c          0x198         408   
.text.TCPIP_DNS_CacheTi 0x9d018214          0x194         404   
.text._sbrk_init        0x9d0183a8          0x194         404   
.text._HTTP_ReadTo      0x9d01853c          0x190         400   
.text.TCPIP_TCP_ArrayGe 0x9d0186cc          0x18c         396   
.text.TCPIP_DNS_ClientT 0x9d018858          0x18c         396   
.text.DRV_ETHMAC_LibIni 0x9d0189e4          0x188         392   
.text.DRV_ETHMAC_LibRxA 0x9d018b6c          0x184         388   
.text._USB_DEVICE_Ep0Re 0x9d018cf0          0x184         388   
.text._DRV_ETHPHY_NegRe 0x9d018e74          0x180         384   
.text.TCPIP_TCP_Options 0x9d018ff4          0x180         384   
.text.TCPIP_DHCP_Initia 0x9d019174          0x180         384   
.text._TCPIP_HEAP_Mallo 0x9d0192f4          0x180         384   
.text.DRV_ETHMAC_PIC32M 0x9d019474          0x17c         380   
.text.MD5HashBlock      0x9d0195f0          0x178         376   
.text._ZeroconfARPPktNo 0x9d019768          0x178         376   
.text._USB_DEVICE_CDC_A 0x9d0198e0          0x178         376   
.text.SYS_FS_FileSeek   0x9d019a58          0x170         368   
.text._EthAppendBusyLis 0x9d019bc8          0x168         360   
.text.SYS_FS_Mount      0x9d019d30          0x168         360   
.text._UDPv4AllocateSkt 0x9d019e98          0x168         360   
.text.USB_DEVICE_Tasks  0x9d01a000          0x168         360   
.text                   0x9d01a168          0x2d0         720  App's exec code 
.text.TCPIP_IPV4_Select 0x9d01a438          0x164         356   
.text._SYS_TMR_ClientCr 0x9d01a59c          0x160         352   
.text._DRV_ETHPHY_Setup 0x9d01a6fc          0x15c         348   
.text.DRV_EXTPHY_MDIXCo 0x9d01a858          0x15c         348   
.text._DHCPProcessRecei 0x9d01a9b4          0x15c         348   
.text.DRV_ETHMAC_LibTxS 0x9d01ab10          0x158         344   
.text.DRV_USBFS_DEVICE_ 0x9d01ac68          0x158         344   
.text._ARPSendIfPkt     0x9d01adc0          0x158         344   
.text.USB_DEVICE_Initia 0x9d01af18          0x158         344   
.text._USB_DEVICE_CDC_I 0x9d01b070          0x158         344   
.text.TCPIP_HTTP_GetExe 0x9d01b1c8          0x150         336   
.text._TcpDisconnect    0x9d01b318          0x14c         332   
.rodata                 0x9d01b464          0x148         328  Read-only const 
.text._MACDeinit        0x9d01b5ac          0x148         328   
.text.TCPIP_UDP_Options 0x9d01b6f4          0x148         328   
.text.TCPIP_HTTP_URLDec 0x9d01b83c          0x148         328   
.text.DRV_TMR_Alarm16Bi 0x9d01b984          0x144         324   
.text.TCPIP_UDP_OpenSer 0x9d01bac8          0x144         324   
.text.fputc             0x9d01bc0c          0x144         324   
.text.DRV_EXTPHY_MIICon 0x9d01bd50          0x140         320   
.text.DRV_NVM_Initializ 0x9d01be90          0x140         320   
.text.DisplayNodeMsg    0x9d01bfd0          0x140         320   
.text._SYS_FS_DiskNumbe 0x9d01c110          0x140         320   
.rodata                 0x9d01c250          0x140         320  Read-only const 
.text._DRV_TMR_ClockSou 0x9d01c390          0x13c         316   
.text.DRV_USBFS_DEVICE_ 0x9d01c4cc          0x13c         316   
.text.TCPIP_SNTP_Initia 0x9d01c608          0x138         312   
.text._IntHandlerDrvTmr 0x9d01c740          0x134         308   
.text._IntHandlerDrvNvm 0x9d01c874          0x134         308   
.text._IntHandlerUSBIns 0x9d01c9a8          0x134         308   
.text._DRV_ETHPHY_Setup 0x9d01cadc          0x134         308   
.text.TCPIP_Helper_Stri 0x9d01cc10          0x134         308   
.text._IntHandler_ETHMA 0x9d01cd44          0x130         304   
.text._DRV_NVM_UnlockSe 0x9d01ce74          0x130         304   
.text._TCPIP_PKT_Flight 0x9d01cfa4          0x130         304   
.text.DRV_ETHMAC_LibDes 0x9d01d0d4          0x12c         300   
.text.TCPIP_ANNOUNCE_In 0x9d01d200          0x12c         300   
.text._flsbuf           0x9d01d32c          0x12c         300   
.text.DRV_ETHMAC_PIC32M 0x9d01d458          0x128         296   
.text._ARPDeleteResourc 0x9d01d580          0x128         296   
.text._OAHashFindBkt    0x9d01d6a8          0x124         292   
.text.TCPIP_IPV4_ArpHan 0x9d01d7cc          0x124         292   
.text.DRV_ETHMAC_Tasks_ 0x9d01d8f0          0x120         288   
.text                   0x9d01da10          0x120         288  App's exec code 
.text.DRV_ETHMAC_PIC32M 0x9d01db30          0x11c         284   
.text._GetMaxSegSizeOpt 0x9d01dc4c          0x11c         284   
.text.TCPIP_ARP_IsResol 0x9d01dd68          0x11c         284   
.text._DNS_Enable       0x9d01de84          0x11c         284   
.text._MacRxPacketAck   0x9d01dfa0          0x118         280   
.text.DRV_NVM_Close     0x9d01e0b8          0x118         280   
.text._DRV_TMR_Resume   0x9d01e1d0          0x118         280   
.text._DHCPSetLeaseTime 0x9d01e2e8          0x118         280   
.text.TCPIP_Helper_Pack 0x9d01e400          0x118         280   
.text.DRV_ETHMAC_PIC32M 0x9d01e518          0x114         276   
.text.TCPIP_HTTP_Deinit 0x9d01e62c          0x114         276   
.text.DRV_ETHMAC_LibClo 0x9d01e740          0x110         272   
.rodata                 0x9d01e850          0x110         272  Read-only const 
.text._DRV_ETHPHY_Setup 0x9d01e960          0x10c         268   
.text.TCPIP_TCP_Initial 0x9d01ea6c          0x10c         268   
.text.TCPIP_DNS_OAHASH_ 0x9d01eb78          0x108         264   
.text.TCPIP_STACK_Deini 0x9d01ec80          0x108         264   
.text.MPFS_Mount        0x9d01ed88          0x104         260   
.text.TCPIP_HTTP_Server 0x9d01ee8c          0x104         260   
.rodata                 0x9d01ef90          0x104         260  Read-only const 
.text.USBDeviceCDCEvent 0x9d01f094          0x100         256   
.text.TCPIP_STACK_Bring 0x9d01f194          0x100         256   
.text._USB_DEVICE_Proce 0x9d01f294          0x100         256   
.text._USB_DEVICE_Confi 0x9d01f394          0x100         256   
.text.MPFSGet           0x9d01f494           0xfc         252   
.text.TCPIP_TCP_ServerO 0x9d01f590           0xfc         252   
.text._TcpSocketSetIdle 0x9d01f68c           0xfc         252   
.text._USB_DEVICE_CDC_C 0x9d01f788           0xfc         252   
.text._DRV_TMR_Suspend  0x9d01f884           0xf8         248   
.text._DHCPClose        0x9d01f97c           0xf8         248   
.rodata                 0x9d01fa74           0xf8         248  Read-only const 
.text._DRV_ETHPHY_NegCo 0x9d01fb6c           0xf4         244   
.text.SYS_CMD_READY_TO_ 0x9d01fc60           0xf4         244   
.text.MPFSGetArray      0x9d01fd54           0xf4         244   
.text.TCPIP_DHCP_Connec 0x9d01fe48           0xf4         244   
.text._DRV_ETHPHY_Reset 0x9d01ff3c           0xf0         240   
.text.TCPIP_DNS_GetIPv6 0x9d02002c           0xf0         240   
.text._DRV_ETHPHY_Setup 0x9d02011c           0xec         236   
.text.TCPIP_DNS_ClientD 0x9d020208           0xec         236   
.text.TCPIP_Helper_Pack 0x9d0202f4           0xec         236   
.text._TCPIP_StackSyncF 0x9d0203e0           0xec         236   
.text.DRV_ETHMAC_PIC32M 0x9d0204cc           0xe8         232   
.text._SYS_TMR_ClientPa 0x9d0205b4           0xe8         232   
.rodata                 0x9d02069c            0x4           4  Read-only const 
.rodata                 0x9d0206a0           0xe8         232  Read-only const 
.text._Tcpv4AllocateTxP 0x9d020788           0xe4         228   
.text.TCPIP_UDP_Disconn 0x9d02086c           0xe4         228   
.rodata                 0x9d020950           0xe0         224  Read-only const 
.text.DRV_ETHPHY_Setup  0x9d020a30           0xe0         224   
.text.DRV_TMR_CounterVa 0x9d020b10           0xe0         224   
.text.MD5AddData        0x9d020bf0           0xe0         224   
.text._DHCPEnable       0x9d020cd0           0xe0         224   
.text.TCPIP_DNS_SelectD 0x9d020db0           0xe0         224   
.text.TCPIP_OAHASH_Entr 0x9d020e90           0xe0         224   
.rodata                 0x9d020f70           0xdc         220  Read-only const 
.text.DRV_ETHPHY_SMIClo 0x9d02104c           0xdc         220   
.text.SYS_CMD_DELETE    0x9d021128           0xdc         220   
.text.SYS_DEVCON_Perfor 0x9d021204           0xdc         220   
.text._TcpCloseSocket   0x9d0212e0           0xdc         220   
.text._TCPIP_PKT_Packet 0x9d0213bc           0xdc         220   
.text.general_exception 0x9d021498           0xdc         220   
.text._DRV_USBFS_DEVICE 0x9d021574           0xd8         216   
.text.SYS_CMD_Initializ 0x9d02164c           0xd8         216   
.text._ARPUpdateEntry   0x9d021724           0xd8         216   
.text._DHCPOpenSocket   0x9d0217fc           0xd8         216   
.text._DNSNotifyClients 0x9d0218d4           0xd8         216   
.text._DRV_ETHPHY_NegRe 0x9d0219ac           0xd4         212   
.text.DRV_NVM_Open      0x9d021a80           0xd4         212   
.text._UDPv4TxAckFnc    0x9d021b54           0xd4         212   
.text.TCPIP_DNS_Resolve 0x9d021c28           0xd4         212   
.text._USB_DEVICE_GetSt 0x9d021cfc           0xd4         212   
.text._mon_putc         0x9d021dd0           0xd4         212   
.text._MacTxPendingPack 0x9d021ea4           0xd0         208   
.text.TCPIP_DNS_ActiveD 0x9d021f74           0xd0         208   
.text.PLIB_ETH_MACSetAd 0x9d022044           0xd0         208   
.rodata                 0x9d022118           0xd0         208  Read-only const 
.text.GenerateSeed      0x9d0221e8           0xcc         204   
.text.TCPIP_UDP_RemoteB 0x9d0222b4           0xcc         204   
.text.TCPIP_ARP_EntryRe 0x9d022380           0xcc         204   
.text._UDPsetPacketInfo 0x9d02244c           0xc8         200   
.text.TCPIP_NBNS_Initia 0x9d022514           0xc8         200   
.text.TCPIP_STACK_NetDo 0x9d0225dc           0xc8         200   
.text._sbrk             0x9d0226a4           0xc8         200   
.text._DHCPOptionWriteS 0x9d02276c           0xc4         196   
.text.SYS_CMD_PRINT     0x9d022830           0xc0         192   
.text.SYS_FS_Unmount    0x9d0228f0           0xc0         192   
.text.SYS_FS_MEDIA_MANA 0x9d0229b0           0xc0         192   
.text.TCPIP_UDP_ArrayPu 0x9d022a70           0xc0         192   
.text._DHCPOptionProces 0x9d022b30           0xc0         192   
.text.TCPIP_OAHASH_Entr 0x9d022bf0           0xc0         192   
.text.SYS_CMDIO_ADD     0x9d022cb0           0xbc         188   
.text.SendCommandPrint  0x9d022d6c           0xbc         188   
.text.SYS_FS_FileRead   0x9d022e28           0xbc         188   
.text.SYS_FS_FileStat   0x9d022ee4           0xbc         188   
.text.SYS_FS_MEDIA_MANA 0x9d022fa0           0xbc         188   
.text.SYS_TMR_Initializ 0x9d02305c           0xbc         188   
.text._DHCPOptionWriteI 0x9d023118           0xbc         188   
.text.TCPIP_PKT_DataSeg 0x9d0231d4           0xbc         188   
.text._EthTxSchedList   0x9d023290           0xb8         184   
.text._SYS_FS_DiskGet   0x9d023348           0xb8         184   
.text.SYS_FS_FileClose  0x9d023400           0xb8         184   
.text.TCPIP_UDP_BcastIP 0x9d0234b8           0xb8         184   
.text._DNS_RemoveHashAl 0x9d023570           0xb8         184   
.text._DRV_ETHMAC_LinkS 0x9d023628           0xb4         180   
.text.DRV_ETHMAC_PIC32M 0x9d0236dc           0xb4         180   
.text._EthTxSchedBuffer 0x9d023790           0xb4         180   
.rodata                 0x9d023844           0xb4         180  Read-only const 
.text.DRV_TMR_Tasks_ISR 0x9d0238f8           0xb4         180   
.text.Console_USB_Write 0x9d0239ac           0xb4         180   
.text.Console_USB_Read  0x9d023a60           0xb4         180   
.text.MPFS_Seek         0x9d023b14           0xb4         180   
.text._ARPNotifyClients 0x9d023bc8           0xb4         180   
.text.TCPIP_DNS_GetIPv4 0x9d023c7c           0xb4         180   
.text._DRV_ETHPHY_Reset 0x9d023d30           0xb0         176   
.text.DRV_ETHPHY_Vendor 0x9d023de0           0xb0         176   
.text.TCPIP_HTTP_PostVa 0x9d023e90           0xb0         176   
.text.TCPIP_ZCLL_Initia 0x9d023f40           0xb0         176   
.text.TCPIP_STACK_Addre 0x9d023ff0           0xb0         176   
.text.TCPIP_IPV4_Packet 0x9d0240a0           0xb0         176   
.text._USB_DEVICE_Ep0Tr 0x9d024150           0xb0         176   
.text._DRV_ETHPHY_NegCo 0x9d024200           0xac         172   
.text.DRV_ETHPHY_Vendor 0x9d0242ac           0xac         172   
.text.SYS_FS_Initialize 0x9d024358           0xac         172   
.text.TCPIP_TCP_Deiniti 0x9d024404           0xac         172   
.text.TCPIP_HEAP_Create 0x9d0244b0           0xac         172   
.text.atol              0x9d02455c           0xac         172   
.text.DRV_ETHMAC_PIC32M 0x9d024608           0xa8         168   
.text._DRV_ETHPHY_Setup 0x9d0246b0           0xa8         168   
.text.SYS_FS_FileNameFo 0x9d024758           0xa8         168   
.text.TCPIP_IPV4_ListPu 0x9d024800           0xa8         168   
.text._USB_DEVICE_DeIni 0x9d0248a8           0xa8         168   
.text                   0x9d024950           0xa8         168  App's exec code 
.text.atoi              0x9d0249f8           0xa8         168   
.text._DRV_ETHMAC_LinkS 0x9d024aa0           0xa4         164   
.text.TCPIP_UDP_PutIsRe 0x9d024b44           0xa4         164   
.text.TCPIP_IPV4_DeInit 0x9d024be8           0xa4         164   
.text.TCPIP_HTTP_Print_ 0x9d024c8c           0xa0         160   
.text._DRV_ETHPHY_LinkS 0x9d024d2c           0xa0         160   
.text.stricmppgm2ram    0x9d024dcc           0xa0         160   
.text._TCPSendWinIncUpd 0x9d024e6c           0xa0         160   
.text._DHCPPacketFilter 0x9d024f0c           0xa0         160   
.text.TCPIP_Helper_Sing 0x9d024fac           0xa0         160   
.text.TCPIP_PKT_PacketM 0x9d02504c           0xa0         160   
.text._USB_DEVICE_Forwa 0x9d0250ec           0xa0         160   
.text._USB_DEVICE_CDC_R 0x9d02518c           0xa0         160   
.text._USB_DEVICE_CDC_W 0x9d02522c           0xa0         160   
.text.TCPIP_ARP_Probe   0x9d0252cc           0x9c         156   
.text.TCPIP_STACK_IPAdd 0x9d025368           0x9c         156   
.text.write             0x9d025404           0x9c         156   
.text.fpcmp             0x9d0254a0           0x9c         156   
.text.DRV_ETHMAC_LibDes 0x9d02553c           0x98         152   
.text.TCPIP_UDP_Destina 0x9d0255d4           0x98         152   
.text._DNSDiscardName   0x9d02566c           0x98         152   
.text._TCPIPStackAsyncH 0x9d025704           0x98         152   
.text._TCPIP_PKT_Packet 0x9d02579c           0x98         152   
.text                   0x9d025834           0x98         152  App's exec code 
.text.SYS_FS_FileNameGe 0x9d0258cc           0x94         148   
.text._TcpCleanup       0x9d025960           0x94         148   
.text._UDPSetNewRxPacke 0x9d0259f4           0x94         148   
.text.TCPIP_ARP_EntryGe 0x9d025a88           0x94         148   
.text.TCPIP_DNS_GetNumb 0x9d025b1c           0x94         148   
.text.TCPIP_HTTP_ArgGet 0x9d025bb0           0x94         148   
.text._DRV_ETHPHY_NegCo 0x9d025c44           0x90         144   
.text.SYS_CONSOLE_Statu 0x9d025cd4           0x90         144   
.rodata                 0x9d025d64           0x90         144  Read-only const 
.text._SYS_TMR_ClientCh 0x9d025df4           0x90         144   
.text._TcpAbort         0x9d025e84           0x90         144   
.text.TCPIP_UDP_SocketI 0x9d025f14           0x90         144   
.text.TCPIP_UDP_TxOffse 0x9d025fa4           0x90         144   
.text._DNSHashEntryFrom 0x9d026034           0x90         144   
.text.TCPIP_DNS_Validat 0x9d0260c4           0x90         144   
.text._TCPIPStackIpAddF 0x9d026154           0x90         144   
.text.SYS_CONSOLE_Write 0x9d0261e4           0x8c         140   
.text._LoadFATRecord    0x9d026270           0x8c         140   
.text.hexatob           0x9d0262fc           0x8c         140   
.text._UDPFreeTxResourc 0x9d026388           0x8c         140   
.text._DHCPNotifyClient 0x9d026414           0x8c         140   
.text._DNS_UpdateExpire 0x9d0264a0           0x8c         140   
.text.TCPIP_Helper_Form 0x9d02652c           0x8c         140   
.text.rand              0x9d0265b8           0x8c         140   
.text._DRV_ETHMAC_LinkS 0x9d026644           0x88         136   
.text.SYS_RANDOM_Initia 0x9d0266cc           0x88         136   
.text.TCPIP_UDP_SourceI 0x9d026754           0x88         136   
.text.TCPIP_Helper_Prot 0x9d0267dc           0x88         136   
.text._USB_DEVICE_GetFu 0x9d026864           0x88         136   
.text._USB_DEVICE_FindE 0x9d0268ec           0x88         136   
.text.libm              0x9d026974           0x88         136   
.text.DRV_ETHPHY_Vendor 0x9d0269fc           0x84         132   
.text._DRV_TMR_ModuleOb 0x9d026a80           0x84         132   
.text.DRV_USBFS_DEVICE_ 0x9d026b04           0x84         132   
.text.ReadCommandCharac 0x9d026b88           0x84         132   
.text._TcpClientSocketC 0x9d026c0c           0x84         132   
.text.zgzc_wait_for     0x9d026c90           0x84         132   
.text._TCPIP_AnnounceCl 0x9d026d14           0x84         132   
.text.TCPIP_STACK_NetHa 0x9d026d98           0x84         132   
.text.TCPIP_PKT_Initial 0x9d026e1c           0x84         132   
.text.USB_DEVICE_Contro 0x9d026ea0           0x84         132   
.text._DRV_ETHPHY_Setup 0x9d026f24           0x80         128   
.text.DRV_USBFS_Tasks_I 0x9d026fa4           0x80         128   
.text.SYS_CONSOLE_Read  0x9d027024           0x80         128   
.text.SYS_TMR_SystemCou 0x9d0270a4           0x80         128   
.text.TCPIP_DNS_OAHASH_ 0x9d027124           0x80         128   
.text.fptoli            0x9d0271a4           0x80         128   
.text.Arc4SetKey        0x9d027224           0x7c         124   
.text._DRV_ETHPHY_Setup 0x9d0272a0           0x7c         124   
.text.CommandCleanup    0x9d02731c           0x7c         124   
.text._TCP_EphemeralPor 0x9d027398           0x7c         124   
.text._UDPAllocateEphem 0x9d027414           0x7c         124   
.text.TCPIP_ARP_Deiniti 0x9d027490           0x7c         124   
.text._DHCPOptionHostNa 0x9d02750c           0x7c         124   
.text.TCPIP_DNS_RemoveE 0x9d027588           0x7c         124   
.text.DNS_DhcpNotify    0x9d027604           0x7c         124   
.text._TCPIPStackAnyNet 0x9d027680           0x7c         124   
.text.USB_DEVICE_Contro 0x9d0276fc           0x7c         124   
.text.PLIB_ETH_MACGetAd 0x9d027778           0x7c         124   
.text.fptoul            0x9d0277f4           0x7c         124   
.text._DRV_ETHMAC_LinkS 0x9d027870           0x78         120   
.text.DRV_ETHPHY_Open   0x9d0278e8           0x78         120   
.text._DRV_ETHPHY_NegRe 0x9d027960           0x78         120   
.text.DRV_USBFS_ClientE 0x9d0279d8           0x78         120   
.text.SYS_CONSOLE_Initi 0x9d027a50           0x78         120   
.text._Tcpv4TxAckFnc    0x9d027ac8           0x78         120   
.text.TCPIP_UDP_Close   0x9d027b40           0x78         120   
.rodata                 0x9d027bb8           0x78         120  Read-only const 
.text.TCPIP_ANNOUNCE_Ta 0x9d027c30           0x78         120   
.rodata                 0x9d027ca8           0x78         120  Read-only const 
.text.DRV_ETHMAC_PIC32M 0x9d027d20           0x74         116   
.text._DRV_ETHPHY_NegCo 0x9d027d94           0x74         116   
.text.DRV_NVM_CommandSt 0x9d027e08           0x74         116   
.text.USBDeviceEventHan 0x9d027e7c           0x74         116   
.text.MPFSGetSize       0x9d027ef0           0x74         116   
.text.MPFSGetStartAddr  0x9d027f64           0x74         116   
.text._TcpSwapHeader    0x9d027fd8           0x74         116   
.text._DHCPOptionProces 0x9d02804c           0x74         116   
.text._DHCPOptionProces 0x9d0280c0           0x74         116   
.text.TCPIP_Helper_Stri 0x9d028134           0x74         116   
.text.TCPIP_Helper_Prot 0x9d0281a8           0x74         116   
.text.TCPIP_Helper_Prot 0x9d02821c           0x74         116   
.text.TCPIP_Helper_Prot 0x9d028290           0x74         116   
.text._TCPIP_PKT_Socket 0x9d028304           0x74         116   
.text.strncpy           0x9d028378           0x74         116   
.text.SYS_Tasks         0x9d0283ec           0x70         112   
.text.Arc4Process       0x9d02845c           0x70         112   
.text._EnetPoolFreeDcpt 0x9d0284cc           0x70         112   
.text._DRV_ETHPHY_LinkS 0x9d02853c           0x70         112   
.text.CommandQuit       0x9d0285ac           0x70         112   
.text.SYS_FS_FileTell   0x9d02861c           0x70         112   
.text.SYS_FS_FileSize   0x9d02868c           0x70         112   
.text.TCPIP_UDP_SocketN 0x9d0286fc           0x70         112   
.text._ARPSetEntry      0x9d02876c           0x70         112   
.text._ARPRemoveEntry   0x9d0287dc           0x70         112   
.text.TCPIP_ARP_Handler 0x9d02884c           0x70         112   
.text.TCPIP_DNS_GetArra 0x9d0288bc           0x70         112   
.text.TCPIP_SNTP_Deinit 0x9d02892c           0x70         112   
.text._USB_DEVICE_CDC_D 0x9d02899c           0x70         112   
.text.strncmp           0x9d028a0c           0x70         112   
.text._MacRxFreeCallbac 0x9d028a7c           0x6c         108   
.text._DRV_ETHPHY_Setup 0x9d028ae8           0x6c         108   
.text.DRV_USBFS_DEVICE_ 0x9d028b54           0x6c         108   
.text._UDPClose         0x9d028bc0           0x6c         108   
.text.TCPIP_DHCP_Handle 0x9d028c2c           0x6c         108   
.text._HTTP_Cleanup     0x9d028c98           0x6c         108   
.text.TCPIP_ANNOUNCE_De 0x9d028d04           0x6c         108   
.text.TCPIP_Helper_Prot 0x9d028d70           0x6c         108   
.text.TCPIP_IPV4_Initia 0x9d028ddc           0x6c         108   
.text.strncat           0x9d028e48           0x6c         108   
.text.SYS_PORTS_Initial 0x9d028eb4           0x68         104   
.text.DRV_NVM_Erase     0x9d028f1c           0x68         104   
.text._DRV_USBFS_DEVICE 0x9d028f84           0x68         104   
.text.TCPIP_TCP_Close   0x9d028fec           0x68         104   
.text._TCP_PayloadSet   0x9d029054           0x68         104   
.text.TCPIP_UDP_OpenCli 0x9d0290bc           0x68         104   
.text.TCPIP_ARP_HashEnt 0x9d029124           0x68         104   
.text._DHCPSetTimeout   0x9d02918c           0x68         104   
.text._ZCLLEnable       0x9d0291f4           0x68         104   
.text.TCPIP_ZCLL_Enable 0x9d02925c           0x68         104   
.text.TCPIP_STACK_IsBca 0x9d0292c4           0x68         104   
.text._TCPIPStackInsert 0x9d02932c           0x68         104   
.text._sprintf_cdnopsux 0x9d029394           0x68         104   
.rodata                 0x9d0293fc           0x68         104  Read-only const 
.text.DRV_TMR_Start     0x9d029464           0x64         100   
.text.SendCommandCharac 0x9d0294c8           0x64         100   
.text.TCPIP_TCP_Discard 0x9d02952c           0x64         100   
.text.TCPIP_UDP_GetIsRe 0x9d029590           0x64         100   
.text._DHCPCleanup      0x9d0295f4           0x64         100   
.text.TCPIP_DHCP_Deinit 0x9d029658           0x64         100   
.text.InitRng           0x9d0296bc           0x60          96   
.text.DRV_ETHMAC_PIC32M 0x9d02971c           0x60          96   
.text._DRV_ETHPHY_Setup 0x9d02977c           0x60          96   
.text._DRV_ETHPHY_Clien 0x9d0297dc           0x60          96   
.text._DRV_ETHPHY_Clien 0x9d02983c           0x60          96   
.text._DRV_ETHPHY_Clien 0x9d02989c           0x60          96   
.text._DRV_ETHPHY_Clien 0x9d0298fc           0x60          96   
.text._DRV_ETHPHY_Clien 0x9d02995c           0x60          96   
.text.SYS_FS_MEDIA_MANA 0x9d0299bc           0x60          96   
.text._TCPIsPutReady    0x9d029a1c           0x60          96   
.text.TCPIP_ARP_Callbac 0x9d029a7c           0x60          96   
.text._DHCPOptionProces 0x9d029adc           0x60          96   
.text.IPv4RegisterFilte 0x9d029b3c           0x60          96   
.text._USB_DEVICE_CDC_E 0x9d029b9c           0x60          96   
.text.sitofp            0x9d029bfc           0x60          96   
.text.TCPIP_HTTP_FileAu 0x9d029c5c           0x5c          92   
.text._DRV_ETHPHY_Clien 0x9d029cb8           0x5c          92   
.text._DRV_ETHPHY_Clien 0x9d029d14           0x5c          92   
.text.DRV_ETHPHY_Negoti 0x9d029d70           0x5c          92   
.text.DRV_ETHPHY_LinkSt 0x9d029dcc           0x5c          92   
.text.DRV_TMR_Open      0x9d029e28           0x5c          92   
.text.SYS_FS_MEDIA_MANA 0x9d029e84           0x5c          92   
.text.TCPIP_ICMP_Initia 0x9d029ee0           0x5c          92   
.text.fnv_32_hash       0x9d029f3c           0x5c          92   
.text.TCPIP_OAHASH_Entr 0x9d029f98           0x5c          92   
.text.TCPIP_STACK_MACId 0x9d029ff4           0x5c          92   
.text.vsnprintf         0x9d02a050           0x5c          92   
.text.SYS_CLK_Initializ 0x9d02a0ac           0x58          88   
.text.TCPIP_STACK_Init  0x9d02a104           0x58          88   
.text.RNG_GenerateBlock 0x9d02a15c           0x58          88   
.text.DRV_ETHMAC_PIC32M 0x9d02a1b4           0x58          88   
.text.DRV_ETHMAC_PIC32M 0x9d02a20c           0x58          88   
.text._MacTxDiscardQueu 0x9d02a264           0x58          88   
.text.DRV_ETHPHY_Initia 0x9d02a2bc           0x58          88   
.text._DRV_NVM_WriteBuf 0x9d02a314           0x58          88   
.text.SendCommandMessag 0x9d02a36c           0x58          88   
.text.SYS_DEVCON_System 0x9d02a3c4           0x58          88   
.text.SYS_INT_SourceDis 0x9d02a41c           0x58          88   
.text._TcpSocketKill    0x9d02a474           0x58          88   
.text._TCPSocketTxFreeS 0x9d02a4cc           0x58          88   
.text._TCP_PortIsAvaila 0x9d02a524           0x58          88   
.text._DHCPOptionProces 0x9d02a57c           0x58          88   
.text._DHCPOptionProces 0x9d02a5d4           0x58          88   
.text._DHCPOptionProces 0x9d02a62c           0x58          88   
.text.TCPIP_HTTP_PostNa 0x9d02a684           0x58          88   
.text.TCPIP_ZCLL_Deinit 0x9d02a6dc           0x58          88   
.text.TCPIP_STACK_NetBy 0x9d02a734           0x58          88   
.text.USB_DEVICE_EventH 0x9d02a78c           0x58          88   
.text.main_entry        0x9d02a7e4           0x54          84   
.text.TCPIP_HTTP_UserAu 0x9d02a838           0x54          84   
.text._EnetDescriptorsC 0x9d02a88c           0x54          84   
.text.DRV_USBFS_Open    0x9d02a8e0           0x54          84   
.text.SYS_TMR_ObjectDel 0x9d02a934           0x54          84   
.text.TCPIP_STACK_Addre 0x9d02a988           0x54          84   
.text.TCPIP_Notificatio 0x9d02a9dc           0x54          84   
.text._XtlEventsTcp2Eth 0x9d02aa30           0x50          80   
.text.DRV_ETHPHY_HWConf 0x9d02aa80           0x50          80   
.text._DRV_ETHPHY_NegRe 0x9d02aad0           0x50          80   
.text._DRV_ETHPHY_NegRe 0x9d02ab20           0x50          80   
.text.Console_USB_Flush 0x9d02ab70           0x50          80   
.text._TCPSetSourceAddr 0x9d02abc0           0x50          80   
.text.TCPIP_TCP_Flush   0x9d02ac10           0x50          80   
.text._TcpFlush         0x9d02ac60           0x50          80   
.text.TCPIP_TCP_FifoRxF 0x9d02acb0           0x50          80   
.text._TCPSetHalfFlushF 0x9d02ad00           0x50          80   
.text._DHCPOptionProces 0x9d02ad50           0x50          80   
.text._DHCPOptionWriteP 0x9d02ada0           0x50          80   
.text.TCPIP_DNS_OAHASH_ 0x9d02adf0           0x50          80   
.text.TCPIP_NBNS_Deinit 0x9d02ae40           0x50          80   
.text._ZCLLDisable      0x9d02ae90           0x50          80   
.text.TCPIP_HEAP_Delete 0x9d02aee0           0x50          80   
.text._TCPIP_PKT_Packet 0x9d02af30           0x50          80   
.text.USB_DEVICE_Open   0x9d02af80           0x50          80   
.text.sbrk              0x9d02afd0           0x50          80   
.text._DRV_ETHMAC_LinkS 0x9d02b020           0x4c          76   
.text._MACTxPacketAckCa 0x9d02b06c           0x4c          76   
.text._DRV_ETHPHY_Setup 0x9d02b0b8           0x4c          76   
.text.DRV_ETHPHY_Negoti 0x9d02b104           0x4c          76   
.text._DRV_PHY_NegCompl 0x9d02b150           0x4c          76   
.text.DRV_USBFS_DEVICE_ 0x9d02b19c           0x4c          76   
.text.SYS_CONSOLE_Tasks 0x9d02b1e8           0x4c          76   
.text.SYS_CONSOLE_Flush 0x9d02b234           0x4c          76   
.text.Console_USB_Statu 0x9d02b280           0x4c          76   
.text._ARPRemoveCacheEn 0x9d02b2cc           0x4c          76   
.text.TCPIP_ICMP_Deinit 0x9d02b318           0x4c          76   
.text.TCPIP_NBNS_Cleanu 0x9d02b364           0x4c          76   
.text.TCPIP_SNTP_Cleanu 0x9d02b3b0           0x4c          76   
.text._TCPIP_HEAP_Callo 0x9d02b3fc           0x4c          76   
.text.TCPIP_STACK_Strin 0x9d02b448           0x4c          76   
.text.TCPIP_Notificatio 0x9d02b494           0x4c          76   
.text._USB_DEVICE_Redir 0x9d02b4e0           0x4c          76   
.text                   0x9d02b52c           0x4c          76  App's exec code 
.text.DRV_ETHPHY_Tasks  0x9d02b578           0x48          72   
.text._DRV_ETHPHY_Clien 0x9d02b5c0           0x48          72   
.text._DRV_ETHPHY_NegRe 0x9d02b608           0x48          72   
.text.SYS_DEVCON_System 0x9d02b650           0x48          72   
.text.SYS_RESET_Softwar 0x9d02b698           0x48          72   
.text.SYS_FS_FileStat_W 0x9d02b6e0           0x48          72   
.text.strupr            0x9d02b728           0x48          72   
.text.TCPIP_TCP_WasRese 0x9d02b770           0x48          72   
.text.TCPIP_TCP_StringP 0x9d02b7b8           0x48          72   
.text.TCPIP_UDP_TxPoint 0x9d02b800           0x48          72   
.text._UDPIsAvailablePo 0x9d02b848           0x48          72   
.rodata                 0x9d02b890           0x48          72  Read-only const 
.text.TCPIP_ARP_Handler 0x9d02b8d8           0x48          72   
.text._DHCPOptionWriteM 0x9d02b920           0x48          72   
.text.ANNOUNCE_Notify   0x9d02b968           0x48          72   
.text.TCPIP_Helper_Prot 0x9d02b9b0           0x48          72   
.text.TCPIP_STACK_IPAdd 0x9d02b9f8           0x48          72   
.text.TCPIP_Notificatio 0x9d02ba40           0x48          72   
.text.USB_DEVICE_Contro 0x9d02ba88           0x48          72   
.text._bootstrap_except 0x9d02bad0           0x48          72   
.vector_default         0x9d02bb18           0x48          72   
.text._general_exceptio 0x9d02bb60           0x44          68   
.text.TCPIP_HTTP_Print  0x9d02bba4           0x44          68   
.text._DRV_NVM_ClientHa 0x9d02bbe8           0x44          68   
.text.DRV_USBFS_DEVICE_ 0x9d02bc2c           0x44          68   
.text.DRV_USBFS_DEVICE_ 0x9d02bc70           0x44          68   
.text.IsCommandReady    0x9d02bcb4           0x44          68   
.text.MPFS_EOF          0x9d02bcf8           0x44          68   
.text._SwapARPPacket    0x9d02bd3c           0x44          68   
.text.TCPIP_DHCP_Handle 0x9d02bd80           0x44          68   
.text.TCPIP_STACK_NetIs 0x9d02bdc4           0x44          68   
.text.Ipv4DeRegisterFil 0x9d02be08           0x44          68   
.text.PLIB_ETH_RxSetBuf 0x9d02be4c           0x44          68   
.text                   0x9d02be90           0x44          68  App's exec code 
.text._DRV_ETHPHY_NegCo 0x9d02bed4           0x40          64   
.text._DRV_NVM_EraseBuf 0x9d02bf14           0x40          64   
.text.DRV_NVM_EventHand 0x9d02bf54           0x40          64   
.text.consUSBReset      0x9d02bf94           0x40          64   
.text.MPFSGetPosition   0x9d02bfd4           0x40          64   
.text.SYS_FS_FileOpen_W 0x9d02c014           0x40          64   
.text.TCPIP_TCP_Find    0x9d02c054           0x40          64   
.text._DRV_ETHMAC_LinkS 0x9d02c094           0x3c          60   
.text.DRV_ETHMAC_Single 0x9d02c0d0           0x3c          60   
.text._DRV_USBFS_DEVICE 0x9d02c10c           0x3c          60   
.text.SYS_FS_MEDIA_MANA 0x9d02c148           0x3c          60   
.text.MD5Initialize     0x9d02c184           0x3c          60   
.text.LFSRRand          0x9d02c1c0           0x3c          60   
.text._TCP_TxPktValid   0x9d02c1fc           0x3c          60   
.text.TCPIP_TCP_Disconn 0x9d02c238           0x3c          60   
.text._TCPIsGetReady    0x9d02c274           0x3c          60   
.text._UDPTxPktValid    0x9d02c2b0           0x3c          60   
.text._UDPFreeRxQueue   0x9d02c2ec           0x3c          60   
.text.TCPIP_ARP_Callbac 0x9d02c328           0x3c          60   
.text._ARPTxAckFnc      0x9d02c364           0x3c          60   
.text.TCPIP_ARP_HashKey 0x9d02c3a0           0x3c          60   
.text._ICMPAllocateTxPa 0x9d02c3dc           0x3c          60   
.text._ZCLLCleanup      0x9d02c418           0x3c          60   
.text.TCPIP_OAHASH_Init 0x9d02c454           0x3c          60   
.text.TCPIP_Helper_Sing 0x9d02c490           0x3c          60   
.text.TCPIP_Helper_Prot 0x9d02c4cc           0x3c          60   
.text._TCPIPStackSetCon 0x9d02c508           0x3c          60   
.text._EthMacReset      0x9d02c544           0x38          56   
.text.DRV_ETHMAC_LibDes 0x9d02c57c           0x38          56   
.text.DRV_ETHMAC_LibRxP 0x9d02c5b4           0x38          56   
.text.DRV_ETHMAC_LibRxS 0x9d02c5ec           0x38          56   
.text.DRV_ETHMAC_LibTxP 0x9d02c624           0x38          56   
.text._DRV_PHY_SMIReadS 0x9d02c65c           0x38          56   
.text._DRV_PHY_SMIWrite 0x9d02c694           0x38          56   
.text._DRV_ETHPHY_Reset 0x9d02c6cc           0x38          56   
.text.DRV_NVM_AddressGe 0x9d02c704           0x38          56   
.text.DRV_USBFS_DEVICE_ 0x9d02c73c           0x38          56   
.text.CommandReset      0x9d02c774           0x38          56   
.text.SYS_FS_Unmount_Wr 0x9d02c7ac           0x38          56   
.text._TcpSocketChk     0x9d02c7e4           0x38          56   
.text._UDPSocketDcpt    0x9d02c81c           0x38          56   
.text._ARPAllocateTxPac 0x9d02c854           0x38          56   
.rodata                 0x9d02c88c           0x38          56  Read-only const 
.text.TCPIP_STACK_Addre 0x9d02c8c4           0x38          56   
.text.USB_DEVICE_CDC_Ev 0x9d02c8fc           0x38          56   
.text.SYS_INT_SourceRes 0x9d02c934           0x34          52   
.text.BSP_LEDStateSet   0x9d02c968           0x34          52   
.text.DRV_ETHMAC_LibTxA 0x9d02c99c           0x34          52   
.text.DRV_ETHPHY_PhyAdd 0x9d02c9d0           0x34          52   
.text._DRV_ETHPHY_NegRe 0x9d02ca04           0x34          52   
.text._DRV_ETHPHY_NegCo 0x9d02ca38           0x34          52   
.text._DRV_ETHPHY_NegRe 0x9d02ca6c           0x34          52   
.text._DRV_ETHPHY_LinkS 0x9d02caa0           0x34          52   
.text.SYS_CMDIO_GET_HAN 0x9d02cad4           0x34          52   
.text.MPFS_Unmount      0x9d02cb08           0x34          52   
.text.MPFSClose         0x9d02cb3c           0x34          52   
.text.TCPIP_TCP_PutIsRe 0x9d02cb70           0x34          52   
.text.TCPIP_TCP_GetIsRe 0x9d02cba4           0x34          52   
.text._UDPUpdatePacketL 0x9d02cbd8           0x34          52   
.text.TCPIP_Helper_Prot 0x9d02cc0c           0x34          52   
.text.TCPIP_STACK_Index 0x9d02cc40           0x34          52   
.text.TCPIP_STACK_NetAd 0x9d02cc74           0x34          52   
.text.TCPIP_STACK_NetAd 0x9d02cca8           0x34          52   
.text.TCPIP_STACK_NetIs 0x9d02ccdc           0x34          52   
.text.TCPIP_STACK_DNSSe 0x9d02cd10           0x34          52   
.text._TCPIPStackHandle 0x9d02cd44           0x34          52   
.text._TCPIPStackAsyncH 0x9d02cd78           0x34          52   
.text.CRYPT_RNG_Initial 0x9d02cdac           0x30          48   
.text.DRV_ETHMAC_PIC32M 0x9d02cddc           0x30          48   
.text._MacCallocCallbac 0x9d02ce0c           0x30          48   
.text.DRV_ETHMAC_Single 0x9d02ce3c           0x30          48   
.text.DRV_ETHPHY_Vendor 0x9d02ce6c           0x30          48   
.rodata                 0x9d02ce9c           0x30          48  Read-only const 
.text.popQ              0x9d02cecc           0x30          48   
.text.SYS_FS_MEDIA_MANA 0x9d02cefc           0x30          48   
.text._Tcpv4UnlinkDataS 0x9d02cf2c           0x30          48   
.text.TCPIP_Helper_Sing 0x9d02cf5c           0x30          48   
.text._TCPIP_MacEventCB 0x9d02cf8c           0x30          48   
.text.TCPIP_STACK_NetNa 0x9d02cfbc           0x30          48   
.text.TCPIP_STACK_NetAd 0x9d02cfec           0x30          48   
.text.TCPIP_STACK_NetMa 0x9d02d01c           0x30          48   
.text.TCPIP_STACK_Netwo 0x9d02d04c           0x30          48   
.text.free              0x9d02d07c           0x30          48   
.text.DRV_USBFS_DEVICE_ 0x9d02d0ac           0x2c          44   
.text.DRV_USBFS_DEVICE_ 0x9d02d0d8           0x2c          44   
.text.MPFS_Read         0x9d02d104           0x2c          44   
.text._SYS_TMR_AlarmCal 0x9d02d130           0x2c          44   
.text.TCPIP_UDP_Discard 0x9d02d15c           0x2c          44   
.text.TCPIP_OAHASH_Entr 0x9d02d188           0x2c          44   
.text.TCPIP_Notificatio 0x9d02d1b4           0x2c          44   
.text._stub_sbd_memlayo 0x9d02d1e0           0x2c          44   
.text.Heartbeat         0x9d02d20c           0x28          40   
.text.BSP_Initialize    0x9d02d234           0x28          40   
.text._MacTxFreeCallbac 0x9d02d25c           0x28          40   
.text.DRV_NVM_GeometryG 0x9d02d284           0x28          40   
.text.DRV_USBFS_Close   0x9d02d2ac           0x28          40   
.text.Console_USB_Regis 0x9d02d2d4           0x28          40   
.text.TCPIP_TCP_Put     0x9d02d2fc           0x28          40   
.text.TCPIP_TCP_SocketN 0x9d02d324           0x28          40   
.text.TCPIP_UDP_Put     0x9d02d34c           0x28          40   
.text.TCPIP_UDP_SocketN 0x9d02d374           0x28          40   
.text.TCPIP_STACK_NetMA 0x9d02d39c           0x28          40   
.text._USB_DEVICE_Clien 0x9d02d3c4           0x28          40   
.text.PLIB_ETH_MACSetMa 0x9d02d3ec           0x28          40   
.text.DRV_ETHMAC_PIC32M 0x9d02d414           0x24          36   
.text.SYS_TMR_TickCount 0x9d02d438           0x24          36   
.text.SYS_TMR_TickCount 0x9d02d45c           0x24          36   
.text.SYS_TMR_SystemCou 0x9d02d480           0x24          36   
.text._DHCPOptionWriteE 0x9d02d4a4           0x24          36   
.text.TCPIP_DNS_IsEnabl 0x9d02d4c8           0x24          36   
.text.TCPIP_HEAP_FreeSi 0x9d02d4ec           0x24          36   
.text.toupper           0x9d02d510           0x24          36   
.text.main              0x9d02d534           0x20          32   
.text.DRV_ETHMAC_PIC32M 0x9d02d554           0x20          32   
.text._DRV_ETHMAC_GetFr 0x9d02d574           0x20          32   
.text._DRV_ETHMAC_GetFr 0x9d02d594           0x20          32   
.text._DRV_ETHMAC_GetFr 0x9d02d5b4           0x20          32   
.text._DRV_ETHMAC_GetFr 0x9d02d5d4           0x20          32   
.text._DRV_ETHMAC_GetFr 0x9d02d5f4           0x20          32   
.text._DRV_ETHMAC_GetAl 0x9d02d614           0x20          32   
.text._DRV_ETHMAC_GetSC 0x9d02d634           0x20          32   
.text._DRV_ETHMAC_GetMC 0x9d02d654           0x20          32   
.text._DRV_ETHPHY_Clien 0x9d02d674           0x20          32   
.text.DRV_ETHPHY_Close  0x9d02d694           0x20          32   
.text.DRV_NVM_IsAttache 0x9d02d6b4           0x20          32   
.text.SYS_CMD_MESSAGE   0x9d02d6d4           0x20          32   
.text.MPFS_Close        0x9d02d6f4           0x20          32   
.text.SYS_INT_Disable   0x9d02d714           0x20          32   
.text.TCPIP_TCP_ArrayPu 0x9d02d734           0x20          32   
.text.TCPIP_TCP_Get     0x9d02d754           0x20          32   
.text.TCPIP_TCP_ArrayGe 0x9d02d774           0x20          32   
.text.TCPIP_UDP_ServerO 0x9d02d794           0x20          32   
.text.TCPIP_UDP_ClientO 0x9d02d7b4           0x20          32   
.text.TCPIP_UDP_IsConne 0x9d02d7d4           0x20          32   
.text.TCPIP_UDP_ArrayPu 0x9d02d7f4           0x20          32   
.text.TCPIP_UDP_Get     0x9d02d814           0x20          32   
.text.TCPIP_UDP_ArrayGe 0x9d02d834           0x20          32   
.text.TCPIP_DNS_OAHASH_ 0x9d02d854           0x20          32   
.text._ICMPAckPacket    0x9d02d874           0x20          32   
.text.TCPIP_STACK_Statu 0x9d02d894           0x20          32   
.text.TCPIP_STACK_Addre 0x9d02d8b4           0x20          32   
.text._USB_DEVICE_CDC_G 0x9d02d8d4           0x20          32   
.text.Singleshot        0x9d02d8f4           0x1c          28   
.text.BSP_LEDToggle     0x9d02d910           0x1c          28   
.text._DRV_ETHPHY_Clien 0x9d02d92c           0x1c          28   
.text.DRV_ETHPHY_Vendor 0x9d02d948           0x1c          28   
.rodata                 0x9d02d964           0x1c          28  Read-only const 
.text.SYS_FS_Tasks      0x9d02d980           0x1c          28   
.text.MPFS_GetSize      0x9d02d99c           0x1c          28   
.text.MPFS_GetPosition  0x9d02d9b8           0x1c          28   
.text.SYS_RANDOM_Pseudo 0x9d02d9d4           0x1c          28   
.text.SYS_TMR_CallbackS 0x9d02d9f0           0x1c          28   
.text.SYS_TMR_CallbackP 0x9d02da0c           0x1c          28   
.text.SYS_TMR_CallbackS 0x9d02da28           0x1c          28   
.text.btohexa_high      0x9d02da44           0x1c          28   
.text.btohexa_low       0x9d02da60           0x1c          28   
.text.TCPIP_UDP_TxPutIs 0x9d02da7c           0x1c          28   
.text.TCPIP_OAHASH_Entr 0x9d02da98           0x1c          28   
.text.TCPIP_Helper_Chec 0x9d02dab4           0x1c          28   
.text.TCPIP_STACK_MACId 0x9d02dad0           0x1c          28   
.text.TCPIP_Notificatio 0x9d02daec           0x1c          28   
.text.PLIB_ETH_RxFilter 0x9d02db08           0x1c          28   
.text.PLIB_ETH_EventsGe 0x9d02db24           0x1c          28   
.text.srand             0x9d02db40           0x1c          28   
.text.DRV_ETHPHY_Deinit 0x9d02db5c           0x18          24   
.text.DRV_ETHPHY_Client 0x9d02db74           0x18          24   
.text.DRV_ETHPHY_Client 0x9d02db8c           0x18          24   
.text.SYS_DEVCON_JTAGEn 0x9d02dba4           0x18          24   
.rodata                 0x9d02dbbc           0x18          24  Read-only const 
.text.SYS_INT_Initializ 0x9d02dbd4           0x18          24   
.text.TCPIP_ARP_HashKey 0x9d02dbec           0x18          24   
.rodata                 0x9d02dc04           0x18          24  Read-only const 
.text._TCPIP_STACK_Find 0x9d02dc1c           0x18          24   
.text.TCPIP_STACK_NetIx 0x9d02dc34           0x18          24   
.text.TCPIP_STACK_Gatew 0x9d02dc4c           0x18          24   
.text.TCPIP_STACK_Prima 0x9d02dc64           0x18          24   
.text.TCPIP_STACK_Secon 0x9d02dc7c           0x18          24   
.text.PLIB_ETH_RxFilter 0x9d02dc94           0x18          24   
.text.PLIB_ETH_RxFilter 0x9d02dcac           0x18          24   
.text                   0x9d02dcc4           0x18          24  App's exec code 
.text.SYS_DEVCON_Initia 0x9d02dcdc           0x14          20   
.text._TCPIP_STACK_Tick 0x9d02dcf0           0x14          20   
.rodata                 0x9d02dd04           0x14          20  Read-only const 
.text.PLIB_ETH_EventsEn 0x9d02dd18           0x14          20   
.text.PLIB_ETH_EventsEn 0x9d02dd2c           0x14          20   
.text.PLIB_ETH_EventsCl 0x9d02dd40           0x14          20   
.rodata                 0x9d02dd54           0x10          16  Read-only const 
.text.DRV_USBFS_DEVICE_ 0x9d02dd64           0x10          16   
.rodata                 0x9d02dd74           0x10          16  Read-only const 
.text.TCPIP_ARP_HashKey 0x9d02dd84           0x10          16   
.text.TCPIP_HTTP_Curren 0x9d02dd94           0x10          16   
.text.TCPIP_Helper_Sing 0x9d02dda4           0x10          16   
.text.__exception_handl 0x9d02ddb4            0xc          12   
.text.SYS_CLK_SystemFre 0x9d02ddc0            0xc          12   
.text.SYS_CLK_Periphera 0x9d02ddcc            0xc          12   
.text.APP_Initialize    0x9d02ddd8            0xc          12   
.text.DRV_ETHMAC_PIC32M 0x9d02dde4            0xc          12   
.text.DRV_EXTPHY_SMIClo 0x9d02ddf0            0xc          12   
.text.SYS_TMR_ModuleSta 0x9d02ddfc            0xc          12   
.text.TCPIP_ANNOUNCE_Se 0x9d02de08            0xc          12   
.text.TCPIP_STACK_Numbe 0x9d02de14            0xc          12   
.text.TCPIP_STACK_NetBI 0x9d02de20            0xc          12   
.rodata                 0x9d02de2c            0x8           8  Read-only const 
.text.DRV_ETHMAC_PIC32M 0x9d02de34            0x8           8   
.text.DRV_ETHMAC_PIC32M 0x9d02de3c            0x8           8   
.text._DRV_ETHPHY_Clien 0x9d02de44            0x8           8   
.text.DRV_TMR_Tasks     0x9d02de4c            0x8           8   
.text.DRV_USBFS_Tasks   0x9d02de54            0x8           8   
.text.GetCommandCharact 0x9d02de5c            0x8           8   
.text.SYS_DEVCON_Tasks  0x9d02de64            0x8           8   
.rodata                 0x9d02de6c           0x18          24  Read-only const 
.text.TCPIP_TLSTCP_Stil 0x9d02de84            0x8           8   
.text.TCPIP_TLSTCP_Sock 0x9d02de8c            0x8           8   
.rodata                 0x9d02de94            0x8           8  Read-only const 
.text._DHCPOptionProces 0x9d02de9c            0x8           8   
.text.TCPIP_HTTP_Curren 0x9d02dea4            0x8           8   
.text.TCPIP_HTTP_Curren 0x9d02deac            0x8           8   
.text.TCPIP_HTTP_Curren 0x9d02deb4            0x8           8   
.text.TCPIP_HTTP_Curren 0x9d02debc            0x8           8   
.text.TCPIP_HTTP_Curren 0x9d02dec4            0x8           8   
.text.TCPIP_HTTP_Curren 0x9d02decc            0x8           8   
.text.TCPIP_HTTP_Curren 0x9d02ded4            0x8           8   
.text.TCPIP_HTTP_Curren 0x9d02dedc            0x8           8   
.text.TCPIP_STACK_NetDe 0x9d02dee4            0x8           8   
.text.TCPIP_STACK_DNSSe 0x9d02deec            0x8           8   
.text.TCPIP_PKT_Deiniti 0x9d02def4            0x8           8   
.text._on_reset         0x9d02defc            0x8           8   
.text._on_bootstrap     0x9d02df04            0x8           8   
_0430b6c058139ba9       0x9d070000        0x10000       65536   
      Total kseg0_program_mem used  :     0x3df08      253704  48.4% of 0x80000

kseg0 Boot-Memory Usage
section                    address  length [bytes]      (dec)  Description
-------                 ----------  -------------------------  -----------
         Total kseg0_boot_mem used  :           0           0  <1% of 0x970

Exception-Memory Usage 
section                    address  length [bytes]      (dec)  Description
-------                 ----------  -------------------------  -----------
.app_excpt              0x9fc01180           0x10          16  General-Exception 
.vector_0               0x9fc01200            0x8           8  Interrupt Vector 0 
.vector_1               0x9fc01220            0x8           8  Interrupt Vector 1 
.vector_2               0x9fc01240            0x8           8  Interrupt Vector 2 
.vector_3               0x9fc01260            0x8           8  Interrupt Vector 3 
.vector_4               0x9fc01280            0x8           8  Interrupt Vector 4 
.vector_5               0x9fc012a0            0x8           8  Interrupt Vector 5 
.vector_6               0x9fc012c0            0x8           8  Interrupt Vector 6 
.vector_7               0x9fc012e0            0x8           8  Interrupt Vector 7 
.vector_8               0x9fc01300            0x8           8  Interrupt Vector 8 
.vector_9               0x9fc01320            0x8           8  Interrupt Vector 9 
.vector_10              0x9fc01340            0x8           8  Interrupt Vector 10 
.vector_11              0x9fc01360            0x8           8  Interrupt Vector 11 
.vector_12              0x9fc01380            0x8           8  Interrupt Vector 12 
.vector_13              0x9fc013a0            0x8           8  Interrupt Vector 13 
.vector_14              0x9fc013c0            0x8           8  Interrupt Vector 14 
.vector_15              0x9fc013e0            0x8           8  Interrupt Vector 15 
.vector_16              0x9fc01400            0x8           8  Interrupt Vector 16 
.vector_17              0x9fc01420            0x8           8  Interrupt Vector 17 
.vector_18              0x9fc01440            0x8           8  Interrupt Vector 18 
.vector_19              0x9fc01460            0x8           8  Interrupt Vector 19 
.vector_20              0x9fc01480            0x8           8  Interrupt Vector 20 
.vector_21              0x9fc014a0            0x8           8  Interrupt Vector 21 
.vector_22              0x9fc014c0            0x8           8  Interrupt Vector 22 
.vector_23              0x9fc014e0            0x8           8  Interrupt Vector 23 
.vector_24              0x9fc01500            0x8           8  Interrupt Vector 24 
.vector_25              0x9fc01520            0x8           8  Interrupt Vector 25 
.vector_26              0x9fc01540            0x8           8  Interrupt Vector 26 
.vector_27              0x9fc01560            0x8           8  Interrupt Vector 27 
.vector_28              0x9fc01580            0x8           8  Interrupt Vector 28 
.vector_29              0x9fc015a0            0x8           8  Interrupt Vector 29 
.vector_30              0x9fc015c0            0x8           8  Interrupt Vector 30 
.vector_31              0x9fc015e0            0x8           8  Interrupt Vector 31 
.vector_32              0x9fc01600            0x8           8  Interrupt Vector 32 
.vector_33              0x9fc01620            0x8           8  Interrupt Vector 33 
.vector_34              0x9fc01640            0x8           8  Interrupt Vector 34 
.vector_35              0x9fc01660            0x8           8  Interrupt Vector 35 
.vector_36              0x9fc01680            0x8           8  Interrupt Vector 36 
.vector_37              0x9fc016a0            0x8           8  Interrupt Vector 37 
.vector_38              0x9fc016c0            0x8           8  Interrupt Vector 38 
.vector_39              0x9fc016e0            0x8           8  Interrupt Vector 39 
.vector_40              0x9fc01700            0x8           8  Interrupt Vector 40 
.vector_41              0x9fc01720            0x8           8  Interrupt Vector 41 
.vector_42              0x9fc01740            0x8           8  Interrupt Vector 42 
.vector_43              0x9fc01760            0x8           8  Interrupt Vector 43 
.vector_44              0x9fc01780            0x8           8  Interrupt Vector 44 
.vector_45              0x9fc017a0            0x8           8  Interrupt Vector 45 
.vector_46              0x9fc017c0            0x8           8  Interrupt Vector 46 
.vector_47              0x9fc017e0            0x8           8  Interrupt Vector 47 
.vector_48              0x9fc01800            0x8           8  Interrupt Vector 48 
.vector_49              0x9fc01820            0x8           8  Interrupt Vector 49 
.vector_50              0x9fc01840            0x8           8  Interrupt Vector 50 
.vector_51              0x9fc01860            0x8           8  Interrupt Vector 51 
          Total exception_mem used  :       0x1b0         432  10.5% of 0x1000

kseg1 Boot-Memory Usage
section                    address  length [bytes]      (dec)  Description
-------                 ----------  -------------------------  -----------
.reset                  0xbfc00000          0x1f4         500  Reset handler 
.bev_excpt              0xbfc00380           0x10          16  BEV-Exception 
.dbg_excpt              0xbfc00480            0x8           8   
         Total kseg1_boot_mem used  :       0x20c         524  44.9% of 0x490
        --------------------------------------------------------------------------
         Total Program Memory used  :     0x3e2c4      254660  47.9% of 0x81e00
        --------------------------------------------------------------------------


kseg1 Data-Memory Usage
section                    address  length [bytes]      (dec)  Description
-------                 ----------  -------------------------  -----------
.dbg_data               0xa0000000          0x200         512  Memory reserved for debugger exec 
.sdata                  0xa0000200           0x3c          60  Small init data 
.sbss                   0xa000023c          0x264         612  Small uninit data 
.bss                    0xa00004a0          0x114         276  Uninitialized data 
.data                   0xa00005b4           0x4c          76  Initialized data 
.bss                    0xa0000600         0x2560        9568  Uninitialized data 
.bss                    0xa0003b60          0x9e0        2528  Uninitialized data 
.bss                    0xa0004950          0x168         360  Uninitialized data 
.data                   0xa0004ab8          0x104         260  Initialized data 
.bss                    0xa0004bbc           0xf0         240  Uninitialized data 
.data                   0xa0004cac           0xc0         192  Initialized data 
.bss                    0xa0004d6c          0x150         336  Uninitialized data 
.data                   0xa0004ebc           0x4c          76  Initialized data 
.bss                    0xa0004f08           0xd4         212  Uninitialized data 
.data                   0xa0004fdc           0x20          32  Initialized data 
.bss                    0xa0004ffc           0x40          64  Uninitialized data 
.data                   0xa000503c           0x18          24  Initialized data 
.bss                    0xa0005054           0x30          48  Uninitialized data 
.data                   0xa0005084           0x10          16  Initialized data 
.bss                    0xa0005094           0x20          32  Uninitialized data 
.bss.errno              0xa00050b4            0x4           4   
.bss                    0xa00050b8           0x1c          28  Uninitialized data 
.data                   0xa00050d4            0xc          12  Initialized data 
         Total kseg1_data_mem used  :      0x3cd0       15568  11.9% of 0x20000
        --------------------------------------------------------------------------
            Total Data Memory used  :      0x3cd0       15568  11.9% of 0x20000
        --------------------------------------------------------------------------


Dynamic Data-Memory Reservation
section                    address  length [bytes]      (dec)  Description
-------                 ----------  -------------------------  -----------
heap                    0xa00050e8         0xafa0       44960  Reserved for heap 
stack                   0xa00100a0         0xff58       65368  Reserved for stack 

        --------------------------------------------------------------------------

Discarded input sections

 .text          0x00000000        0x0 c:/program files (x86)/microchip/xc32/v1.40/bin/bin/../../lib/gcc/pic32mx/4.8.3/../../../../pic32mx/lib/./proc/32MX795F512L/crt0_mips32r2.o
 .data          0x00000000        0x0 c:/program files (x86)/microchip/xc32/v1.40/bin/bin/../../lib/gcc/pic32mx/4.8.3/../../../../pic32mx/lib/./proc/32MX795F512L/crt0_mips32r2.o
 .bss           0x00000000        0x0 c:/program files (x86)/microchip/xc32/v1.40/bin/bin/../../lib/gcc/pic32mx/4.8.3/../../../../pic32mx/lib/./proc/32MX795F512L/crt0_mips32r2.o
 .text          0x00000000        0x0 c:/program files (x86)/microchip/xc32/v1.40/bin/bin/../../lib/gcc/pic32mx/4.8.3/../../../../pic32mx/lib\software-debug-break.o
 .data          0x00000000        0x0 c:/program files (x86)/microchip/xc32/v1.40/bin/bin/../../lib/gcc/pic32mx/4.8.3/../../../../pic32mx/lib\software-debug-break.o
 .bss           0x00000000        0x0 c:/program files (x86)/microchip/xc32/v1.40/bin/bin/../../lib/gcc/pic32mx/4.8.3/../../../../pic32mx/lib\software-debug-break.o
 .reginfo       0x00000000       0x18 c:/program files (x86)/microchip/xc32/v1.40/bin/bin/../../lib/gcc/pic32mx/4.8.3/../../../../pic32mx/lib\software-debug-break.o
 .text          0x00000000        0x0 build/pic32mx/debug/_ext/1482089478/sys_clk_static.o
 .data          0x00000000        0x0 build/pic32mx/debug/_ext/1482089478/sys_clk_static.o
 .bss           0x00000000        0x0 build/pic32mx/debug/_ext/1482089478/sys_clk_static.o
 .reginfo       0x00000000       0x18 build/pic32mx/debug/_ext/1482089478/sys_clk_static.o
 .text.SYS_CLK_ReferenceClockFrequencyGet
                0x00000000        0x8 build/pic32mx/debug/_ext/1482089478/sys_clk_static.o
 .text          0x00000000        0x0 build/pic32mx/debug/_ext/148571690/sys_ports_static.o
 .data          0x00000000        0x0 build/pic32mx/debug/_ext/148571690/sys_ports_static.o
 .bss           0x00000000        0x0 build/pic32mx/debug/_ext/148571690/sys_ports_static.o
 .reginfo       0x00000000       0x18 build/pic32mx/debug/_ext/148571690/sys_ports_static.o
 .text          0x00000000        0x0 build/pic32mx/debug/_ext/435813987/system_init.o
 .bss           0x00000000        0x0 build/pic32mx/debug/_ext/435813987/system_init.o
 .reginfo       0x00000000       0x18 build/pic32mx/debug/_ext/435813987/system_init.o
 .text          0x00000000        0x0 build/pic32mx/debug/_ext/435813987/system_interrupt.o
 .data          0x00000000        0x0 build/pic32mx/debug/_ext/435813987/system_interrupt.o
 .bss           0x00000000        0x0 build/pic32mx/debug/_ext/435813987/system_interrupt.o
 .reginfo       0x00000000       0x18 build/pic32mx/debug/_ext/435813987/system_interrupt.o
 .text          0x00000000        0x0 build/pic32mx/debug/_ext/435813987/system_exceptions.o
 .bss           0x00000000        0x0 build/pic32mx/debug/_ext/435813987/system_exceptions.o
 .reginfo       0x00000000       0x18 build/pic32mx/debug/_ext/435813987/system_exceptions.o
 .text          0x00000000        0x0 build/pic32mx/debug/_ext/435813987/system_tasks.o
 .data          0x00000000        0x0 build/pic32mx/debug/_ext/435813987/system_tasks.o
 .bss           0x00000000        0x0 build/pic32mx/debug/_ext/435813987/system_tasks.o
 .reginfo       0x00000000       0x18 build/pic32mx/debug/_ext/435813987/system_tasks.o
 .text          0x00000000        0x0 build/pic32mx/debug/_ext/1360937237/app.o
 .reginfo       0x00000000       0x18 build/pic32mx/debug/_ext/1360937237/app.o
 .text          0x00000000        0x0 build/pic32mx/debug/_ext/1360937237/main.o
 .data          0x00000000        0x0 build/pic32mx/debug/_ext/1360937237/main.o
 .bss           0x00000000        0x0 build/pic32mx/debug/_ext/1360937237/main.o
 .reginfo       0x00000000       0x18 build/pic32mx/debug/_ext/1360937237/main.o
 .text          0x00000000        0x0 build/pic32mx/debug/_ext/1360937237/custom_http_app.o
 .data          0x00000000        0x0 build/pic32mx/debug/_ext/1360937237/custom_http_app.o
 .reginfo       0x00000000       0x18 build/pic32mx/debug/_ext/1360937237/custom_http_app.o
 .text.TCPIP_HTTP_Print_builddate
                0x00000000       0x6c build/pic32mx/debug/_ext/1360937237/custom_http_app.o
 .text.TCPIP_HTTP_Print_version
                0x00000000       0x2c build/pic32mx/debug/_ext/1360937237/custom_http_app.o
 .text.TCPIP_HTTP_Print_btn
                0x00000000       0xa0 build/pic32mx/debug/_ext/1360937237/custom_http_app.o
 .text.TCPIP_HTTP_Print_led
                0x00000000       0x94 build/pic32mx/debug/_ext/1360937237/custom_http_app.o
 .text.TCPIP_HTTP_Print_ledSelected
                0x00000000       0xb0 build/pic32mx/debug/_ext/1360937237/custom_http_app.o
 .text.TCPIP_HTTP_Print_pot
                0x00000000       0x44 build/pic32mx/debug/_ext/1360937237/custom_http_app.o
 .text.TCPIP_HTTP_Print_drive
                0x00000000       0x2c build/pic32mx/debug/_ext/1360937237/custom_http_app.o
 .text.TCPIP_HTTP_Print_fstype
                0x00000000       0x2c build/pic32mx/debug/_ext/1360937237/custom_http_app.o
 .text.TCPIP_HTTP_Print_hellomsg
                0x00000000       0x6c build/pic32mx/debug/_ext/1360937237/custom_http_app.o
 .text.TCPIP_HTTP_Print_cookiename
                0x00000000       0x6c build/pic32mx/debug/_ext/1360937237/custom_http_app.o
 .text.TCPIP_HTTP_Print_cookiefav
                0x00000000       0x6c build/pic32mx/debug/_ext/1360937237/custom_http_app.o
 .text.TCPIP_HTTP_Print_uploadedmd5
                0x00000000      0x160 build/pic32mx/debug/_ext/1360937237/custom_http_app.o
 .text.HTTPPrintIP
                0x00000000       0xb4 build/pic32mx/debug/_ext/1360937237/custom_http_app.o
 .text.TCPIP_HTTP_Print_config_hostname
                0x00000000       0x40 build/pic32mx/debug/_ext/1360937237/custom_http_app.o
 .text.TCPIP_HTTP_Print_config_dhcpchecked
                0x00000000       0x4c build/pic32mx/debug/_ext/1360937237/custom_http_app.o
 .text.TCPIP_HTTP_Print_config_ip
                0x00000000       0x40 build/pic32mx/debug/_ext/1360937237/custom_http_app.o
 .text.TCPIP_HTTP_Print_config_gw
                0x00000000       0x40 build/pic32mx/debug/_ext/1360937237/custom_http_app.o
 .text.TCPIP_HTTP_Print_config_subnet
                0x00000000       0x40 build/pic32mx/debug/_ext/1360937237/custom_http_app.o
 .text.TCPIP_HTTP_Print_config_dns1
                0x00000000       0x40 build/pic32mx/debug/_ext/1360937237/custom_http_app.o
 .text.TCPIP_HTTP_Print_config_dns2
                0x00000000       0x40 build/pic32mx/debug/_ext/1360937237/custom_http_app.o
 .text.TCPIP_HTTP_Print_config_mac
                0x00000000      0x134 build/pic32mx/debug/_ext/1360937237/custom_http_app.o
 .text.TCPIP_HTTP_Print_read_comm
                0x00000000        0x8 build/pic32mx/debug/_ext/1360937237/custom_http_app.o
 .text.TCPIP_HTTP_Print_write_comm
                0x00000000        0x8 build/pic32mx/debug/_ext/1360937237/custom_http_app.o
 .text.TCPIP_HTTP_Print_reboot
                0x00000000       0xb4 build/pic32mx/debug/_ext/1360937237/custom_http_app.o
 .text.TCPIP_HTTP_Print_ddns_user
                0x00000000        0x8 build/pic32mx/debug/_ext/1360937237/custom_http_app.o
 .text.TCPIP_HTTP_Print_ddns_pass
                0x00000000        0x8 build/pic32mx/debug/_ext/1360937237/custom_http_app.o
 .text.TCPIP_HTTP_Print_ddns_host
                0x00000000        0x8 build/pic32mx/debug/_ext/1360937237/custom_http_app.o
 .text.TCPIP_HTTP_Print_ddns_service
                0x00000000        0x8 build/pic32mx/debug/_ext/1360937237/custom_http_app.o
 .text.TCPIP_HTTP_Print_ddns_status
                0x00000000       0x2c build/pic32mx/debug/_ext/1360937237/custom_http_app.o
 .text.TCPIP_HTTP_Print_ddns_status_msg
                0x00000000       0x70 build/pic32mx/debug/_ext/1360937237/custom_http_app.o
 .text          0x00000000        0x0 build/pic32mx/debug/_ext/1360937237/http_print.o
 .data          0x00000000        0x0 build/pic32mx/debug/_ext/1360937237/http_print.o
 .bss           0x00000000        0x0 build/pic32mx/debug/_ext/1360937237/http_print.o
 .reginfo       0x00000000       0x18 build/pic32mx/debug/_ext/1360937237/http_print.o
 .text.TCPIP_HTTP_Print_
                0x00000000       0x28 build/pic32mx/debug/_ext/1360937237/http_print.o
 .text          0x00000000        0x0 build/pic32mx/debug/_ext/1360937237/mpfs_img2.o
 .data          0x00000000        0xc build/pic32mx/debug/_ext/1360937237/mpfs_img2.o
 .bss           0x00000000        0x0 build/pic32mx/debug/_ext/1360937237/mpfs_img2.o
 .reginfo       0x00000000       0x18 build/pic32mx/debug/_ext/1360937237/mpfs_img2.o
 .rodata        0x00000000        0x8 build/pic32mx/debug/_ext/1360937237/mpfs_img2.o
 .text          0x00000000        0x0 build/pic32mx/debug/_ext/1837361561/bsp_sys_init.o
 .data          0x00000000        0x0 build/pic32mx/debug/_ext/1837361561/bsp_sys_init.o
 .bss           0x00000000        0x0 build/pic32mx/debug/_ext/1837361561/bsp_sys_init.o
 .reginfo       0x00000000       0x18 build/pic32mx/debug/_ext/1837361561/bsp_sys_init.o
 .text.BSP_LEDOn
                0x00000000       0x1c build/pic32mx/debug/_ext/1837361561/bsp_sys_init.o
 .text.BSP_LEDOff
                0x00000000       0x1c build/pic32mx/debug/_ext/1837361561/bsp_sys_init.o
 .text.BSP_LEDStateGet
                0x00000000       0x20 build/pic32mx/debug/_ext/1837361561/bsp_sys_init.o
 .text.BSP_SwitchStateGet
                0x00000000       0x20 build/pic32mx/debug/_ext/1837361561/bsp_sys_init.o
 .text          0x00000000        0x0 build/pic32mx/debug/_ext/1886890887/random.o
 .data          0x00000000        0x0 build/pic32mx/debug/_ext/1886890887/random.o
 .bss           0x00000000        0x0 build/pic32mx/debug/_ext/1886890887/random.o
 .reginfo       0x00000000       0x18 build/pic32mx/debug/_ext/1886890887/random.o
 .text.RNG_GenerateByte
                0x00000000       0x24 build/pic32mx/debug/_ext/1886890887/random.o
 .text          0x00000000        0x0 build/pic32mx/debug/_ext/1886890887/arc4.o
 .data          0x00000000        0x0 build/pic32mx/debug/_ext/1886890887/arc4.o
 .bss           0x00000000        0x0 build/pic32mx/debug/_ext/1886890887/arc4.o
 .reginfo       0x00000000       0x18 build/pic32mx/debug/_ext/1886890887/arc4.o
 .text          0x00000000        0x0 build/pic32mx/debug/_ext/1886890887/crypto.o
 .data          0x00000000        0x0 build/pic32mx/debug/_ext/1886890887/crypto.o
 .bss           0x00000000        0x0 build/pic32mx/debug/_ext/1886890887/crypto.o
 .reginfo       0x00000000       0x18 build/pic32mx/debug/_ext/1886890887/crypto.o
 .text.CRYPT_RNG_Get
                0x00000000       0x4c build/pic32mx/debug/_ext/1886890887/crypto.o
 .text.CRYPT_RNG_BlockGenerate
                0x00000000       0x44 build/pic32mx/debug/_ext/1886890887/crypto.o
 .text.CRYPT_TDES_KeySet
                0x00000000       0x44 build/pic32mx/debug/_ext/1886890887/crypto.o
 .text.CRYPT_TDES_IvSet
                0x00000000       0x44 build/pic32mx/debug/_ext/1886890887/crypto.o
 .text.CRYPT_TDES_CBC_Encrypt
                0x00000000       0x54 build/pic32mx/debug/_ext/1886890887/crypto.o
 .text.CRYPT_TDES_CBC_Decrypt
                0x00000000       0x54 build/pic32mx/debug/_ext/1886890887/crypto.o
 .text.CRYPT_ERROR_StringGet
                0x00000000       0x34 build/pic32mx/debug/_ext/1886890887/crypto.o
 .text          0x00000000        0x0 build/pic32mx/debug/_ext/1908841681/drv_ethmac.o
 .bss           0x00000000        0x0 build/pic32mx/debug/_ext/1908841681/drv_ethmac.o
 .reginfo       0x00000000       0x18 build/pic32mx/debug/_ext/1908841681/drv_ethmac.o
 .text          0x00000000        0x0 build/pic32mx/debug/_ext/1908841681/drv_ethmac_lib.o
 .data          0x00000000        0x0 build/pic32mx/debug/_ext/1908841681/drv_ethmac_lib.o
 .bss           0x00000000        0x0 build/pic32mx/debug/_ext/1908841681/drv_ethmac_lib.o
 .reginfo       0x00000000       0x18 build/pic32mx/debug/_ext/1908841681/drv_ethmac_lib.o
 .text.DRV_ETHMAC_LibDescriptorsPoolRemove
                0x00000000       0xc4 build/pic32mx/debug/_ext/1908841681/drv_ethmac_lib.o
 .text.DRV_ETHMAC_LibTxSendBuffer
                0x00000000       0xc8 build/pic32mx/debug/_ext/1908841681/drv_ethmac_lib.o
 .text.DRV_ETHMAC_LibTxGetBufferStatus
                0x00000000       0x84 build/pic32mx/debug/_ext/1908841681/drv_ethmac_lib.o
 .text.DRV_ETHMAC_LibRxGetBuffer
                0x00000000       0x3c build/pic32mx/debug/_ext/1908841681/drv_ethmac_lib.o
 .text          0x00000000        0x0 build/pic32mx/debug/_ext/732687875/drv_ethphy.o
 .data          0x00000000        0x0 build/pic32mx/debug/_ext/732687875/drv_ethphy.o
 .bss           0x00000000        0x0 build/pic32mx/debug/_ext/732687875/drv_ethphy.o
 .reginfo       0x00000000       0x18 build/pic32mx/debug/_ext/732687875/drv_ethphy.o
 .text.DRV_ETHPHY_Reinitialize
                0x00000000       0x2c build/pic32mx/debug/_ext/732687875/drv_ethphy.o
 .text.DRV_ETHPHY_Status
                0x00000000       0x18 build/pic32mx/debug/_ext/732687875/drv_ethphy.o
 .text.DRV_ETHPHY_ClientOperationAbort
                0x00000000       0x34 build/pic32mx/debug/_ext/732687875/drv_ethphy.o
 .text.DRV_ETHPHY_SMIRead
                0x00000000       0x7c build/pic32mx/debug/_ext/732687875/drv_ethphy.o
 .text.DRV_ETHPHY_SMIWrite
                0x00000000       0xa8 build/pic32mx/debug/_ext/732687875/drv_ethphy.o
 .text.DRV_ETHPHY_SMIScanStart
                0x00000000       0x80 build/pic32mx/debug/_ext/732687875/drv_ethphy.o
 .text.DRV_ETHPHY_SMIScanStop
                0x00000000       0x7c build/pic32mx/debug/_ext/732687875/drv_ethphy.o
 .text.DRV_ETHPHY_SMIScanStatusGet
                0x00000000       0x64 build/pic32mx/debug/_ext/732687875/drv_ethphy.o
 .text.DRV_ETHPHY_SMIScanDataGet
                0x00000000       0x90 build/pic32mx/debug/_ext/732687875/drv_ethphy.o
 .text.DRV_ETHPHY_SMIStatus
                0x00000000       0x38 build/pic32mx/debug/_ext/732687875/drv_ethphy.o
 .text.DRV_ETHPHY_RestartNegotiation
                0x00000000       0x48 build/pic32mx/debug/_ext/732687875/drv_ethphy.o
 .text.DRV_ETHPHY_Reset
                0x00000000       0x4c build/pic32mx/debug/_ext/732687875/drv_ethphy.o
 .text          0x00000000        0x0 build/pic32mx/debug/_ext/732687875/drv_extphy_dp83848.o
 .data          0x00000000        0x0 build/pic32mx/debug/_ext/732687875/drv_extphy_dp83848.o
 .bss           0x00000000        0x0 build/pic32mx/debug/_ext/732687875/drv_extphy_dp83848.o
 .reginfo       0x00000000       0x18 build/pic32mx/debug/_ext/732687875/drv_extphy_dp83848.o
 .text          0x00000000        0x0 build/pic32mx/debug/_ext/571308596/drv_nvm.o
 .data          0x00000000        0x0 build/pic32mx/debug/_ext/571308596/drv_nvm.o
 .bss           0x00000000        0x0 build/pic32mx/debug/_ext/571308596/drv_nvm.o
 .reginfo       0x00000000       0x18 build/pic32mx/debug/_ext/571308596/drv_nvm.o
 .text.DRV_NVM_Deinitialize
                0x00000000       0x4c build/pic32mx/debug/_ext/571308596/drv_nvm.o
 .text.DRV_NVM_Status
                0x00000000       0x18 build/pic32mx/debug/_ext/571308596/drv_nvm.o
 .text.DRV_NVM_Write
                0x00000000       0x78 build/pic32mx/debug/_ext/571308596/drv_nvm.o
 .text.DRV_NVM_IsWriteProtected
                0x00000000        0x8 build/pic32mx/debug/_ext/571308596/drv_nvm.o
 .text          0x00000000        0x0 build/pic32mx/debug/_ext/571308596/drv_nvm_erasewrite.o
 .data          0x00000000        0x0 build/pic32mx/debug/_ext/571308596/drv_nvm_erasewrite.o
 .bss           0x00000000        0x0 build/pic32mx/debug/_ext/571308596/drv_nvm_erasewrite.o
 .reginfo       0x00000000       0x18 build/pic32mx/debug/_ext/571308596/drv_nvm_erasewrite.o
 .text          0x00000000        0x0 build/pic32mx/debug/_ext/185269848/drv_tmr.o
 .data          0x00000000        0x0 build/pic32mx/debug/_ext/185269848/drv_tmr.o
 .reginfo       0x00000000       0x18 build/pic32mx/debug/_ext/185269848/drv_tmr.o
 .text.DRV_TMR_Deinitialize
                0x00000000       0x5c build/pic32mx/debug/_ext/185269848/drv_tmr.o
 .text.DRV_TMR_Status
                0x00000000       0x28 build/pic32mx/debug/_ext/185269848/drv_tmr.o
 .text.DRV_TMR_Close
                0x00000000       0x48 build/pic32mx/debug/_ext/185269848/drv_tmr.o
 .text.DRV_TMR_ClientStatus
                0x00000000       0x44 build/pic32mx/debug/_ext/185269848/drv_tmr.o
 .text.DRV_TMR_CounterValue16BitSet
                0x00000000       0xc4 build/pic32mx/debug/_ext/185269848/drv_tmr.o
 .text.DRV_TMR_CounterValue32BitSet
                0x00000000       0x80 build/pic32mx/debug/_ext/185269848/drv_tmr.o
 .text.DRV_TMR_CounterValueSet
                0x00000000      0x114 build/pic32mx/debug/_ext/185269848/drv_tmr.o
 .text.DRV_TMR_CounterValue32BitGet
                0x00000000       0x9c build/pic32mx/debug/_ext/185269848/drv_tmr.o
 .text.DRV_TMR_CounterValueGet
                0x00000000      0x134 build/pic32mx/debug/_ext/185269848/drv_tmr.o
 .text.DRV_TMR_CounterClear
                0x00000000      0x10c build/pic32mx/debug/_ext/185269848/drv_tmr.o
 .text.DRV_TMR_Alarm32BitRegister
                0x00000000       0xec build/pic32mx/debug/_ext/185269848/drv_tmr.o
 .text.DRV_TMR_AlarmRegister
                0x00000000      0x1c4 build/pic32mx/debug/_ext/185269848/drv_tmr.o
 .text.DRV_TMR_AlarmDisable
                0x00000000       0x64 build/pic32mx/debug/_ext/185269848/drv_tmr.o
 .text.DRV_TMR_AlarmEnable
                0x00000000       0x60 build/pic32mx/debug/_ext/185269848/drv_tmr.o
 .text.DRV_TMR_AlarmPeriod16BitSet
                0x00000000      0x108 build/pic32mx/debug/_ext/185269848/drv_tmr.o
 .text.DRV_TMR_AlarmPeriod32BitSet
                0x00000000       0xac build/pic32mx/debug/_ext/185269848/drv_tmr.o
 .text.DRV_TMR_AlarmPeriodSet
                0x00000000      0x138 build/pic32mx/debug/_ext/185269848/drv_tmr.o
 .text.DRV_TMR_AlarmPeriod16BitGet
                0x00000000       0x4c build/pic32mx/debug/_ext/185269848/drv_tmr.o
 .text.DRV_TMR_AlarmPeriod32BitGet
                0x00000000       0x4c build/pic32mx/debug/_ext/185269848/drv_tmr.o
 .text.DRV_TMR_AlarmPeriodGet
                0x00000000       0x3c build/pic32mx/debug/_ext/185269848/drv_tmr.o
 .text.DRV_TMR_Alarm16BitDeregister
                0x00000000       0x74 build/pic32mx/debug/_ext/185269848/drv_tmr.o
 .text.DRV_TMR_Alarm32BitDeregister
                0x00000000       0x74 build/pic32mx/debug/_ext/185269848/drv_tmr.o
 .text.DRV_TMR_AlarmDeregister
                0x00000000       0x60 build/pic32mx/debug/_ext/185269848/drv_tmr.o
 .text.DRV_TMR_Stop
                0x00000000       0x80 build/pic32mx/debug/_ext/185269848/drv_tmr.o
 .text.DRV_TMR_AlarmHasElapsed
                0x00000000       0x3c build/pic32mx/debug/_ext/185269848/drv_tmr.o
 .text.DRV_TMR_OperationModeGet
                0x00000000       0x3c build/pic32mx/debug/_ext/185269848/drv_tmr.o
 .text.DRV_TMR_DividerRangeGet
                0x00000000       0x74 build/pic32mx/debug/_ext/185269848/drv_tmr.o
 .text.DRV_TMR_GateModeSet
                0x00000000      0x12c build/pic32mx/debug/_ext/185269848/drv_tmr.o
 .text.DRV_TMR_GateModeClear
                0x00000000      0x12c build/pic32mx/debug/_ext/185269848/drv_tmr.o
 .text.DRV_TMR_ClockSet
                0x00000000       0xe4 build/pic32mx/debug/_ext/185269848/drv_tmr.o
 .text.DRV_TMR_PrescalerGet
                0x00000000      0x1fc build/pic32mx/debug/_ext/185269848/drv_tmr.o
 .text          0x00000000        0x0 build/pic32mx/debug/_ext/764219029/drv_usbfs.o
 .data          0x00000000        0x0 build/pic32mx/debug/_ext/764219029/drv_usbfs.o
 .bss           0x00000000        0x0 build/pic32mx/debug/_ext/764219029/drv_usbfs.o
 .reginfo       0x00000000       0x18 build/pic32mx/debug/_ext/764219029/drv_usbfs.o
 .text.DRV_USBFS_Deinitialize
                0x00000000       0x94 build/pic32mx/debug/_ext/764219029/drv_usbfs.o
 .text.DRV_USBFS_Status
                0x00000000       0x18 build/pic32mx/debug/_ext/764219029/drv_usbfs.o
 .text.DRV_USBFS_HOST_Resume
                0x00000000       0x64 build/pic32mx/debug/_ext/764219029/drv_usbfs.o
 .text.DRV_USBFS_HOST_Suspend
                0x00000000       0x64 build/pic32mx/debug/_ext/764219029/drv_usbfs.o
 .text.DRV_USBFS_Tasks_ISR_USBDMA
                0x00000000        0x8 build/pic32mx/debug/_ext/764219029/drv_usbfs.o
 .text          0x00000000        0x0 build/pic32mx/debug/_ext/764219029/drv_usbfs_device.o
 .bss           0x00000000        0x0 build/pic32mx/debug/_ext/764219029/drv_usbfs_device.o
 .reginfo       0x00000000       0x18 build/pic32mx/debug/_ext/764219029/drv_usbfs_device.o
 .text._DRV_USBFS_DEVICE_EndpointObjectEnable
                0x00000000       0x24 build/pic32mx/debug/_ext/764219029/drv_usbfs_device.o
 .text          0x00000000        0x0 build/pic32mx/debug/_ext/425903153/sys_command.o
 .data          0x00000000        0x0 build/pic32mx/debug/_ext/425903153/sys_command.o
 .reginfo       0x00000000       0x18 build/pic32mx/debug/_ext/425903153/sys_command.o
 .text.SYS_CMD_READY_TO_WRITE
                0x00000000       0x88 build/pic32mx/debug/_ext/425903153/sys_command.o
 .text.SYS_CMD_ADDGRP
                0x00000000      0x10c build/pic32mx/debug/_ext/425903153/sys_command.o
 .text.SYS_CMD_RegisterCallback
                0x00000000       0x5c build/pic32mx/debug/_ext/425903153/sys_command.o
 .text          0x00000000        0x0 build/pic32mx/debug/_ext/30809027/sys_console.o
 .data          0x00000000        0x0 build/pic32mx/debug/_ext/30809027/sys_console.o
 .reginfo       0x00000000       0x18 build/pic32mx/debug/_ext/30809027/sys_console.o
 .text.SYS_CONSOLE_Reinitialize
                0x00000000       0x68 build/pic32mx/debug/_ext/30809027/sys_console.o
 .text.SYS_CONSOLE_Deinitialize
                0x00000000       0x44 build/pic32mx/debug/_ext/30809027/sys_console.o
 .text.SYS_CONSOLE_RegisterCallback
                0x00000000       0x4c build/pic32mx/debug/_ext/30809027/sys_console.o
 .text          0x00000000        0x0 build/pic32mx/debug/_ext/30809027/sys_console_usb_cdc.o
 .bss           0x00000000        0x0 build/pic32mx/debug/_ext/30809027/sys_console_usb_cdc.o
 .reginfo       0x00000000       0x18 build/pic32mx/debug/_ext/30809027/sys_console_usb_cdc.o
 .text          0x00000000        0x0 build/pic32mx/debug/_ext/1271179505/sys_devcon.o
 .data          0x00000000        0x0 build/pic32mx/debug/_ext/1271179505/sys_devcon.o
 .bss           0x00000000        0x0 build/pic32mx/debug/_ext/1271179505/sys_devcon.o
 .reginfo       0x00000000       0x18 build/pic32mx/debug/_ext/1271179505/sys_devcon.o
 .text.SYS_DEVCON_Reinitialize
                0x00000000       0x10 build/pic32mx/debug/_ext/1271179505/sys_devcon.o
 .text.SYS_DEVCON_Deinitialize
                0x00000000        0x8 build/pic32mx/debug/_ext/1271179505/sys_devcon.o
 .text.SYS_DEVCON_Status
                0x00000000        0x8 build/pic32mx/debug/_ext/1271179505/sys_devcon.o
 .text.SYS_DEVCON_JTAGDisable
                0x00000000       0x1c build/pic32mx/debug/_ext/1271179505/sys_devcon.o
 .text.SYS_DEVCON_TraceEnable
                0x00000000       0x18 build/pic32mx/debug/_ext/1271179505/sys_devcon.o
 .text.SYS_DEVCON_TraceDisable
                0x00000000       0x18 build/pic32mx/debug/_ext/1271179505/sys_devcon.o
 .text.SYS_DEVCON_PowerModeEnter
                0x00000000       0x54 build/pic32mx/debug/_ext/1271179505/sys_devcon.o
 .text          0x00000000        0x0 build/pic32mx/debug/_ext/1271179505/sys_devcon_pic32mx.o
 .data          0x00000000        0x0 build/pic32mx/debug/_ext/1271179505/sys_devcon_pic32mx.o
 .bss           0x00000000        0x0 build/pic32mx/debug/_ext/1271179505/sys_devcon_pic32mx.o
 .reginfo       0x00000000       0x18 build/pic32mx/debug/_ext/1271179505/sys_devcon_pic32mx.o
 .text          0x00000000        0x0 build/pic32mx/debug/_ext/2104899551/sys_fs.o
 .data          0x00000000        0x0 build/pic32mx/debug/_ext/2104899551/sys_fs.o
 .bss           0x00000000        0x0 build/pic32mx/debug/_ext/2104899551/sys_fs.o
 .reginfo       0x00000000       0x18 build/pic32mx/debug/_ext/2104899551/sys_fs.o
 .text.SYS_FS_EventHandlerSet
                0x00000000       0x10 build/pic32mx/debug/_ext/2104899551/sys_fs.o
 .text._SYS_FS_StringWildCardCompare
                0x00000000       0xb0 build/pic32mx/debug/_ext/2104899551/sys_fs.o
 .text.SYS_FS_FileWrite
                0x00000000       0xbc build/pic32mx/debug/_ext/2104899551/sys_fs.o
 .text.SYS_FS_FileEOF
                0x00000000       0x90 build/pic32mx/debug/_ext/2104899551/sys_fs.o
 .text.SYS_FS_Error
                0x00000000        0x8 build/pic32mx/debug/_ext/2104899551/sys_fs.o
 .text.SYS_FS_FileError
                0x00000000       0x20 build/pic32mx/debug/_ext/2104899551/sys_fs.o
 .text.SYS_FS_DirectoryMake
                0x00000000       0xd8 build/pic32mx/debug/_ext/2104899551/sys_fs.o
 .text.SYS_FS_DirectoryChange
                0x00000000       0xd8 build/pic32mx/debug/_ext/2104899551/sys_fs.o
 .text.SYS_FS_FileDirectoryRemove
                0x00000000       0xd8 build/pic32mx/debug/_ext/2104899551/sys_fs.o
 .text.SYS_FS_CurrentDriveGet
                0x00000000       0x60 build/pic32mx/debug/_ext/2104899551/sys_fs.o
 .text.SYS_FS_CurrentDriveSet
                0x00000000       0xa4 build/pic32mx/debug/_ext/2104899551/sys_fs.o
 .text.SYS_FS_DriveLabelGet
                0x00000000      0x108 build/pic32mx/debug/_ext/2104899551/sys_fs.o
 .text.SYS_FS_DriveLabelSet
                0x00000000      0x118 build/pic32mx/debug/_ext/2104899551/sys_fs.o
 .text.SYS_FS_FileTruncate
                0x00000000       0xb8 build/pic32mx/debug/_ext/2104899551/sys_fs.o
 .text.SYS_FS_CurrentWorkingDirectoryGet
                0x00000000      0x298 build/pic32mx/debug/_ext/2104899551/sys_fs.o
 .text.SYS_FS_FileDirectoryModeSet
                0x00000000       0xe8 build/pic32mx/debug/_ext/2104899551/sys_fs.o
 .text.SYS_FS_FileDirectoryTimeSet
                0x00000000       0xe8 build/pic32mx/debug/_ext/2104899551/sys_fs.o
 .text.SYS_FS_FileDirectoryRenameMove
                0x00000000      0x124 build/pic32mx/debug/_ext/2104899551/sys_fs.o
 .text.SYS_FS_FileSync
                0x00000000       0xb8 build/pic32mx/debug/_ext/2104899551/sys_fs.o
 .text.SYS_FS_FileStringGet
                0x00000000       0xd0 build/pic32mx/debug/_ext/2104899551/sys_fs.o
 .text.SYS_FS_FileCharacterPut
                0x00000000       0xc4 build/pic32mx/debug/_ext/2104899551/sys_fs.o
 .text.SYS_FS_FileStringPut
                0x00000000       0xc4 build/pic32mx/debug/_ext/2104899551/sys_fs.o
 .text.SYS_FS_FilePrintf
                0x00000000       0xb4 build/pic32mx/debug/_ext/2104899551/sys_fs.o
 .text.SYS_FS_FileTestError
                0x00000000       0x8c build/pic32mx/debug/_ext/2104899551/sys_fs.o
 .text.SYS_FS_DriveFormat
                0x00000000       0xa4 build/pic32mx/debug/_ext/2104899551/sys_fs.o
 .text.SYS_FS_DirOpen
                0x00000000      0x154 build/pic32mx/debug/_ext/2104899551/sys_fs.o
 .text.SYS_FS_DirRead
                0x00000000       0xb8 build/pic32mx/debug/_ext/2104899551/sys_fs.o
 .text.SYS_FS_DirRewind
                0x00000000       0xbc build/pic32mx/debug/_ext/2104899551/sys_fs.o
 .text.SYS_FS_DirSearch
                0x00000000       0xf8 build/pic32mx/debug/_ext/2104899551/sys_fs.o
 .text.SYS_FS_DirClose
                0x00000000       0x90 build/pic32mx/debug/_ext/2104899551/sys_fs.o
 .text.SYS_FS_DrivePartition
                0x00000000       0xa4 build/pic32mx/debug/_ext/2104899551/sys_fs.o
 .text.SYS_FS_DriveSectorGet
                0x00000000      0x114 build/pic32mx/debug/_ext/2104899551/sys_fs.o
 .text          0x00000000        0x0 build/pic32mx/debug/_ext/2104899551/sys_fs_media_manager.o
 .data          0x00000000        0x0 build/pic32mx/debug/_ext/2104899551/sys_fs_media_manager.o
 .bss           0x00000000        0x0 build/pic32mx/debug/_ext/2104899551/sys_fs_media_manager.o
 .reginfo       0x00000000       0x18 build/pic32mx/debug/_ext/2104899551/sys_fs_media_manager.o
 .text.SYS_FS_MEDIA_MANAGER_DeRegister
                0x00000000       0x28 build/pic32mx/debug/_ext/2104899551/sys_fs_media_manager.o
 .text.SYS_FS_MEDIA_MANAGER_SectorRead
                0x00000000       0x88 build/pic32mx/debug/_ext/2104899551/sys_fs_media_manager.o
 .text._SYS_FS_MEDIA_MANAGER_updateVolToPart
                0x00000000       0x1c build/pic32mx/debug/_ext/2104899551/sys_fs_media_manager.o
 .text.disk_read
                0x00000000       0xd4 build/pic32mx/debug/_ext/2104899551/sys_fs_media_manager.o
 .text.disk_write
                0x00000000       0xd4 build/pic32mx/debug/_ext/2104899551/sys_fs_media_manager.o
 .text          0x00000000        0x0 build/pic32mx/debug/_ext/850537704/mpfs.o
 .data          0x00000000        0x0 build/pic32mx/debug/_ext/850537704/mpfs.o
 .reginfo       0x00000000       0x18 build/pic32mx/debug/_ext/850537704/mpfs.o
 .text.MPFSGetLong
                0x00000000       0x24 build/pic32mx/debug/_ext/850537704/mpfs.o
 .text.MPFSGetTimestamp
                0x00000000       0x74 build/pic32mx/debug/_ext/850537704/mpfs.o
 .text.MPFSGetMicrotime
                0x00000000       0x74 build/pic32mx/debug/_ext/850537704/mpfs.o
 .text.MPFSGetFlags
                0x00000000       0x74 build/pic32mx/debug/_ext/850537704/mpfs.o
 .text.MPFSGetBytesRem
                0x00000000       0x5c build/pic32mx/debug/_ext/850537704/mpfs.o
 .text.MPFSGetEndAddr
                0x00000000       0x80 build/pic32mx/debug/_ext/850537704/mpfs.o
 .text.MPFSGetFilename
                0x00000000       0xb0 build/pic32mx/debug/_ext/850537704/mpfs.o
 .text.MPFSGetID
                0x00000000       0x20 build/pic32mx/debug/_ext/850537704/mpfs.o
 .text          0x00000000        0x0 build/pic32mx/debug/_ext/122796885/sys_int_pic32.o
 .data          0x00000000        0x0 build/pic32mx/debug/_ext/122796885/sys_int_pic32.o
 .bss           0x00000000        0x0 build/pic32mx/debug/_ext/122796885/sys_int_pic32.o
 .reginfo       0x00000000       0x18 build/pic32mx/debug/_ext/122796885/sys_int_pic32.o
 .text.SYS_INT_StatusGetAndDisable
                0x00000000       0x1c build/pic32mx/debug/_ext/122796885/sys_int_pic32.o
 .text.SYS_INT_StatusRestore
                0x00000000       0x1c build/pic32mx/debug/_ext/122796885/sys_int_pic32.o
 .text.SYS_INT_ExternalInterruptTriggerSet
                0x00000000       0x34 build/pic32mx/debug/_ext/122796885/sys_int_pic32.o
 .text          0x00000000        0x0 build/pic32mx/debug/_ext/77319752/sys_ports.o
 .data          0x00000000        0x0 build/pic32mx/debug/_ext/77319752/sys_ports.o
 .bss           0x00000000        0x0 build/pic32mx/debug/_ext/77319752/sys_ports.o
 .reginfo       0x00000000       0x18 build/pic32mx/debug/_ext/77319752/sys_ports.o
 .text.SYS_PORTS_Read
                0x00000000       0x38 build/pic32mx/debug/_ext/77319752/sys_ports.o
 .text.SYS_PORTS_Write
                0x00000000       0x2c build/pic32mx/debug/_ext/77319752/sys_ports.o
 .text.SYS_PORTS_Set
                0x00000000       0x38 build/pic32mx/debug/_ext/77319752/sys_ports.o
 .text.SYS_PORTS_Clear
                0x00000000       0x34 build/pic32mx/debug/_ext/77319752/sys_ports.o
 .text.SYS_PORTS_DirectionSelect
                0x00000000       0x6c build/pic32mx/debug/_ext/77319752/sys_ports.o
 .text.SYS_PORTS_DirectionGet
                0x00000000       0x38 build/pic32mx/debug/_ext/77319752/sys_ports.o
 .text.SYS_PORTS_Toggle
                0x00000000       0x34 build/pic32mx/debug/_ext/77319752/sys_ports.o
 .text.SYS_PORTS_OpenDrainEnable
                0x00000000       0x34 build/pic32mx/debug/_ext/77319752/sys_ports.o
 .text.SYS_PORTS_OpenDrainDisable
                0x00000000       0x34 build/pic32mx/debug/_ext/77319752/sys_ports.o
 .text.SYS_PORTS_ChangeNotificationGlobalEnable
                0x00000000       0x1c build/pic32mx/debug/_ext/77319752/sys_ports.o
 .text.SYS_PORTS_GlobalChangeNotificationDisable
                0x00000000       0x1c build/pic32mx/debug/_ext/77319752/sys_ports.o
 .text.SYS_PORTS_ChangeNotificationEnable
                0x00000000       0x78 build/pic32mx/debug/_ext/77319752/sys_ports.o
 .text.SYS_PORTS_ChangeNotificationDisable
                0x00000000       0x20 build/pic32mx/debug/_ext/77319752/sys_ports.o
 .text.SYS_PORTS_ChangeNotificationInIdleModeEnable
                0x00000000       0x1c build/pic32mx/debug/_ext/77319752/sys_ports.o
 .text.SYS_PORTS_ChangeNotificationInIdleModeDisable
                0x00000000       0x1c build/pic32mx/debug/_ext/77319752/sys_ports.o
 .text.SYS_PORTS_ChangeNotificationPullUpEnable
                0x00000000       0x20 build/pic32mx/debug/_ext/77319752/sys_ports.o
 .text.SYS_PORTS_ChangeNotificationPullUpDisable
                0x00000000       0x20 build/pic32mx/debug/_ext/77319752/sys_ports.o
 .text.SYS_PORTS_PinModeSelect
                0x00000000       0x38 build/pic32mx/debug/_ext/77319752/sys_ports.o
 .text.SYS_PORTS_PinWrite
                0x00000000       0x4c build/pic32mx/debug/_ext/77319752/sys_ports.o
 .text.SYS_PORTS_PinRead
                0x00000000       0x44 build/pic32mx/debug/_ext/77319752/sys_ports.o
 .text.SYS_PORTS_PinToggle
                0x00000000       0x38 build/pic32mx/debug/_ext/77319752/sys_ports.o
 .text.SYS_PORTS_PinSet
                0x00000000       0x38 build/pic32mx/debug/_ext/77319752/sys_ports.o
 .text.SYS_PORTS_PinClear
                0x00000000       0x38 build/pic32mx/debug/_ext/77319752/sys_ports.o
 .text.SYS_PORTS_PinDirectionSelect
                0x00000000       0x78 build/pic32mx/debug/_ext/77319752/sys_ports.o
 .text.SYS_PORTS_PinOpenDrainEnable
                0x00000000       0x38 build/pic32mx/debug/_ext/77319752/sys_ports.o
 .text.SYS_PORTS_PinOpenDrainDisable
                0x00000000       0x38 build/pic32mx/debug/_ext/77319752/sys_ports.o
 .text.SYS_PORTS_RemapInput
                0x00000000       0x28 build/pic32mx/debug/_ext/77319752/sys_ports.o
 .text.SYS_PORTS_RemapOutput
                0x00000000       0x28 build/pic32mx/debug/_ext/77319752/sys_ports.o
 .text          0x00000000        0x0 build/pic32mx/debug/_ext/1283840359/sys_random.o
 .data          0x00000000        0x0 build/pic32mx/debug/_ext/1283840359/sys_random.o
 .reginfo       0x00000000       0x18 build/pic32mx/debug/_ext/1283840359/sys_random.o
 .text.SYS_RANDOM_Deinitialize
                0x00000000        0xc build/pic32mx/debug/_ext/1283840359/sys_random.o
 .text.SYS_RANDOM_PseudoSeedSet
                0x00000000       0x1c build/pic32mx/debug/_ext/1283840359/sys_random.o
 .text.SYS_RANDOM_CryptoSeedSet
                0x00000000        0x8 build/pic32mx/debug/_ext/1283840359/sys_random.o
 .text.SYS_RANDOM_CryptoSeedSizeGet
                0x00000000       0x24 build/pic32mx/debug/_ext/1283840359/sys_random.o
 .text.SYS_RANDOM_CryptoGet
                0x00000000       0x2c build/pic32mx/debug/_ext/1283840359/sys_random.o
 .text.SYS_RANDOM_CryptoBlockGet
                0x00000000       0x38 build/pic32mx/debug/_ext/1283840359/sys_random.o
 .text.SYS_RANDOM_CryptoByteGet
                0x00000000       0x28 build/pic32mx/debug/_ext/1283840359/sys_random.o
 .text.SYS_RANDOM_CryptoEntropyAdd
                0x00000000        0x8 build/pic32mx/debug/_ext/1283840359/sys_random.o
 .text          0x00000000        0x0 build/pic32mx/debug/_ext/813494389/sys_reset.o
 .data          0x00000000        0x0 build/pic32mx/debug/_ext/813494389/sys_reset.o
 .bss           0x00000000        0x0 build/pic32mx/debug/_ext/813494389/sys_reset.o
 .reginfo       0x00000000       0x18 build/pic32mx/debug/_ext/813494389/sys_reset.o
 .text          0x00000000        0x0 build/pic32mx/debug/_ext/1264926591/sys_tmr.o
 .data          0x00000000        0x0 build/pic32mx/debug/_ext/1264926591/sys_tmr.o
 .reginfo       0x00000000       0x18 build/pic32mx/debug/_ext/1264926591/sys_tmr.o
 .text.SYS_TMR_Deinitialize
                0x00000000       0xb8 build/pic32mx/debug/_ext/1264926591/sys_tmr.o
 .text.SYS_TMR_Status
                0x00000000        0xc build/pic32mx/debug/_ext/1264926591/sys_tmr.o
 .text.SYS_TMR_ObjectCreate
                0x00000000       0x1c build/pic32mx/debug/_ext/1264926591/sys_tmr.o
 .text.SYS_TMR_ObjectReload
                0x00000000       0xb4 build/pic32mx/debug/_ext/1264926591/sys_tmr.o
 .text.SYS_TMR_ObjectCountGet
                0x00000000       0xe4 build/pic32mx/debug/_ext/1264926591/sys_tmr.o
 .text.SYS_TMR_DelayMS
                0x00000000       0x24 build/pic32mx/debug/_ext/1264926591/sys_tmr.o
 .text.SYS_TMR_DelayStatusGet
                0x00000000       0x20 build/pic32mx/debug/_ext/1264926591/sys_tmr.o
 .text          0x00000000        0x0 build/pic32mx/debug/_ext/1136935090/sys_fs_wrapper.o
 .data          0x00000000        0x0 build/pic32mx/debug/_ext/1136935090/sys_fs_wrapper.o
 .bss           0x00000000        0x0 build/pic32mx/debug/_ext/1136935090/sys_fs_wrapper.o
 .reginfo       0x00000000       0x18 build/pic32mx/debug/_ext/1136935090/sys_fs_wrapper.o
 .text.SYS_FS_DirOpen_Wrapper
                0x00000000       0x34 build/pic32mx/debug/_ext/1136935090/sys_fs_wrapper.o
 .text          0x00000000        0x0 build/pic32mx/debug/_ext/1136935090/big_int.o
 .data          0x00000000        0x0 build/pic32mx/debug/_ext/1136935090/big_int.o
 .bss           0x00000000        0x0 build/pic32mx/debug/_ext/1136935090/big_int.o
 .reginfo       0x00000000       0x18 build/pic32mx/debug/_ext/1136935090/big_int.o
 .text.BigInt   0x00000000       0x2c build/pic32mx/debug/_ext/1136935090/big_int.o
 .text.BigIntZero
                0x00000000       0x44 build/pic32mx/debug/_ext/1136935090/big_int.o
 .text.BigIntMod
                0x00000000      0x170 build/pic32mx/debug/_ext/1136935090/big_int.o
 .text.BigIntCompare
                0x00000000       0xc4 build/pic32mx/debug/_ext/1136935090/big_int.o
 .text.BigIntMagnitudeDifference
                0x00000000       0x3c build/pic32mx/debug/_ext/1136935090/big_int.o
 .text.BigIntMagnitude
                0x00000000       0x30 build/pic32mx/debug/_ext/1136935090/big_int.o
 .text.BigIntMSB
                0x00000000       0x74 build/pic32mx/debug/_ext/1136935090/big_int.o
 .text.BigIntMultiply
                0x00000000       0x78 build/pic32mx/debug/_ext/1136935090/big_int.o
 .text.BigIntSquare
                0x00000000       0x58 build/pic32mx/debug/_ext/1136935090/big_int.o
 .text.BigIntAdd
                0x00000000       0x4c build/pic32mx/debug/_ext/1136935090/big_int.o
 .text.BigIntSubtract
                0x00000000       0x4c build/pic32mx/debug/_ext/1136935090/big_int.o
 .text.BigIntCopy
                0x00000000       0x48 build/pic32mx/debug/_ext/1136935090/big_int.o
 .text.BigIntSwapEndianness
                0x00000000       0x44 build/pic32mx/debug/_ext/1136935090/big_int.o
 .text          0x00000000      0x38c build/pic32mx/debug/_ext/1136935090/big_int_helper_c32.o
 .data          0x00000000        0x0 build/pic32mx/debug/_ext/1136935090/big_int_helper_c32.o
 .bss           0x00000000        0x0 build/pic32mx/debug/_ext/1136935090/big_int_helper_c32.o
 .reginfo       0x00000000       0x18 build/pic32mx/debug/_ext/1136935090/big_int_helper_c32.o
 .text          0x00000000        0x0 build/pic32mx/debug/_ext/1136935090/hashes.o
 .data          0x00000000        0x0 build/pic32mx/debug/_ext/1136935090/hashes.o
 .bss           0x00000000        0x0 build/pic32mx/debug/_ext/1136935090/hashes.o
 .reginfo       0x00000000       0x18 build/pic32mx/debug/_ext/1136935090/hashes.o
 .text.HashAddData
                0x00000000       0x44 build/pic32mx/debug/_ext/1136935090/hashes.o
 .text.SHA1Initialize
                0x00000000       0x4c build/pic32mx/debug/_ext/1136935090/hashes.o
 .text.SHA1AddData
                0x00000000       0xe8 build/pic32mx/debug/_ext/1136935090/hashes.o
 .text.SHA1HashBlock
                0x00000000      0x2b4 build/pic32mx/debug/_ext/1136935090/hashes.o
 .text.SHA1Calculate
                0x00000000      0x288 build/pic32mx/debug/_ext/1136935090/hashes.o
 .text          0x00000000        0x0 build/pic32mx/debug/_ext/1136935090/helpers.o
 .data          0x00000000        0x0 build/pic32mx/debug/_ext/1136935090/helpers.o
 .bss           0x00000000        0x0 build/pic32mx/debug/_ext/1136935090/helpers.o
 .reginfo       0x00000000       0x18 build/pic32mx/debug/_ext/1136935090/helpers.o
 .text.uitoa    0x00000000       0x94 build/pic32mx/debug/_ext/1136935090/helpers.o
 .text.strnchr  0x00000000       0x40 build/pic32mx/debug/_ext/1136935090/helpers.o
 .text.strncpy_m
                0x00000000       0xd8 build/pic32mx/debug/_ext/1136935090/helpers.o
 .text          0x00000000        0x0 build/pic32mx/debug/_ext/1136935090/lfsr.o
 .data          0x00000000        0x0 build/pic32mx/debug/_ext/1136935090/lfsr.o
 .bss           0x00000000        0x0 build/pic32mx/debug/_ext/1136935090/lfsr.o
 .reginfo       0x00000000       0x18 build/pic32mx/debug/_ext/1136935090/lfsr.o
 .text.LFSRSeedRand
                0x00000000       0x4c build/pic32mx/debug/_ext/1136935090/lfsr.o
 .text          0x00000000        0x0 build/pic32mx/debug/_ext/1408260596/tcp.o
 .data          0x00000000        0x0 build/pic32mx/debug/_ext/1408260596/tcp.o
 .bss           0x00000000        0x0 build/pic32mx/debug/_ext/1408260596/tcp.o
 .reginfo       0x00000000       0x18 build/pic32mx/debug/_ext/1408260596/tcp.o
 .text.TCPIP_TCP_ConnectionSetToMSS
                0x00000000       0x10 build/pic32mx/debug/_ext/1408260596/tcp.o
 .text.TCPIP_TCP_ClientOpen
                0x00000000       0x3c build/pic32mx/debug/_ext/1408260596/tcp.o
 .text.TCPIP_TCP_IsConnected
                0x00000000       0x40 build/pic32mx/debug/_ext/1408260596/tcp.o
 .text.TCPIP_TCP_Abort
                0x00000000       0x38 build/pic32mx/debug/_ext/1408260596/tcp.o
 .text.TCPIP_TCP_Connect
                0x00000000       0x64 build/pic32mx/debug/_ext/1408260596/tcp.o
 .text.TCPIP_TCP_SocketInfoGet
                0x00000000       0x70 build/pic32mx/debug/_ext/1408260596/tcp.o
 .text.TCPIP_TCP_SocketsNumberGet
                0x00000000        0x8 build/pic32mx/debug/_ext/1408260596/tcp.o
 .text.TCPIP_TCP_FifoTxFullGet
                0x00000000       0x68 build/pic32mx/debug/_ext/1408260596/tcp.o
 .text.TCPIP_TCP_FifoTxFreeGet
                0x00000000       0x54 build/pic32mx/debug/_ext/1408260596/tcp.o
 .text.TCPIP_TCP_ArrayPeek
                0x00000000       0xe8 build/pic32mx/debug/_ext/1408260596/tcp.o
 .text.TCPIP_TCP_Peek
                0x00000000       0x2c build/pic32mx/debug/_ext/1408260596/tcp.o
 .text.TCPIP_TCP_SocketNetSet
                0x00000000       0x4c build/pic32mx/debug/_ext/1408260596/tcp.o
 .text.TCPIP_TCP_Bind
                0x00000000      0x138 build/pic32mx/debug/_ext/1408260596/tcp.o
 .text.TCPIP_TCP_RemoteBind
                0x00000000       0x8c build/pic32mx/debug/_ext/1408260596/tcp.o
 .text.TCPIP_TCP_OptionsGet
                0x00000000      0x148 build/pic32mx/debug/_ext/1408260596/tcp.o
 .text.TCPIP_TCP_DestinationIPAddressSet
                0x00000000       0x78 build/pic32mx/debug/_ext/1408260596/tcp.o
 .text.TCPIP_TCP_SourceIPAddressSet
                0x00000000       0x54 build/pic32mx/debug/_ext/1408260596/tcp.o
 .text.TCPIP_TLSTCP_ClientStart
                0x00000000        0x8 build/pic32mx/debug/_ext/1408260596/tcp.o
 .text.TCPIP_TLSTCP_ServerStart
                0x00000000        0x8 build/pic32mx/debug/_ext/1408260596/tcp.o
 .text          0x00000000        0x0 build/pic32mx/debug/_ext/1408260596/udp.o
 .data          0x00000000        0x0 build/pic32mx/debug/_ext/1408260596/udp.o
 .reginfo       0x00000000       0x18 build/pic32mx/debug/_ext/1408260596/udp.o
 .text.TCPIP_UDP_RxOffsetSet
                0x00000000       0x84 build/pic32mx/debug/_ext/1408260596/udp.o
 .text.TCPIP_UDP_StringPut
                0x00000000       0x64 build/pic32mx/debug/_ext/1408260596/udp.o
 .text.TCPIP_UDP_TxCountGet
                0x00000000       0x58 build/pic32mx/debug/_ext/1408260596/udp.o
 .text.TCPIP_UDP_DestinationPortSet
                0x00000000       0x4c build/pic32mx/debug/_ext/1408260596/udp.o
 .text.TCPIP_UDP_SetSplitPayload
                0x00000000       0xc4 build/pic32mx/debug/_ext/1408260596/udp.o
 .text.TCPIP_TLSUDP_ClientStart
                0x00000000        0x8 build/pic32mx/debug/_ext/1408260596/udp.o
 .text.TCPIP_TLSUDP_ServerStart
                0x00000000        0x8 build/pic32mx/debug/_ext/1408260596/udp.o
 .text.TCPIP_TLSUDP_StillHandshaking
                0x00000000        0x8 build/pic32mx/debug/_ext/1408260596/udp.o
 .text.TCPIP_TLSUDP_SocketIsSecuredByTLS
                0x00000000        0x8 build/pic32mx/debug/_ext/1408260596/udp.o
 .text          0x00000000        0x0 build/pic32mx/debug/_ext/1408260596/arp.o
 .data          0x00000000        0x0 build/pic32mx/debug/_ext/1408260596/arp.o
 .reginfo       0x00000000       0x18 build/pic32mx/debug/_ext/1408260596/arp.o
 .text.TCPIP_ARP_Resolve
                0x00000000       0x78 build/pic32mx/debug/_ext/1408260596/arp.o
 .text.TCPIP_ARP_EntrySet
                0x00000000      0x174 build/pic32mx/debug/_ext/1408260596/arp.o
 .text.TCPIP_ARP_EntryRemoveAll
                0x00000000       0xe8 build/pic32mx/debug/_ext/1408260596/arp.o
 .text.TCPIP_ARP_EntryQuery
                0x00000000      0x114 build/pic32mx/debug/_ext/1408260596/arp.o
 .text.TCPIP_ARP_CacheEntriesNoGet
                0x00000000       0xdc build/pic32mx/debug/_ext/1408260596/arp.o
 .text.TCPIP_ARP_CacheThresholdSet
                0x00000000       0xa8 build/pic32mx/debug/_ext/1408260596/arp.o
 .text          0x00000000        0x0 build/pic32mx/debug/_ext/1408260596/dhcp.o
 .data          0x00000000        0x0 build/pic32mx/debug/_ext/1408260596/dhcp.o
 .reginfo       0x00000000       0x18 build/pic32mx/debug/_ext/1408260596/dhcp.o
 .text.TCPIP_DHCP_Disable
                0x00000000       0xb4 build/pic32mx/debug/_ext/1408260596/dhcp.o
 .text.TCPIP_DHCP_Enable
                0x00000000       0x38 build/pic32mx/debug/_ext/1408260596/dhcp.o
 .text.TCPIP_DHCP_Renew
                0x00000000       0x38 build/pic32mx/debug/_ext/1408260596/dhcp.o
 .text.TCPIP_DHCP_Request
                0x00000000       0x38 build/pic32mx/debug/_ext/1408260596/dhcp.o
 .text._DHCPStartOperation
                0x00000000      0x160 build/pic32mx/debug/_ext/1408260596/dhcp.o
 .text.TCPIP_DHCP_IsEnabled
                0x00000000       0x78 build/pic32mx/debug/_ext/1408260596/dhcp.o
 .text.TCPIP_DHCP_IsActive
                0x00000000       0x30 build/pic32mx/debug/_ext/1408260596/dhcp.o
 .text.TCPIP_DHCP_IsBound
                0x00000000       0x78 build/pic32mx/debug/_ext/1408260596/dhcp.o
 .text.TCPIP_DHCP_IsServerDetected
                0x00000000       0x78 build/pic32mx/debug/_ext/1408260596/dhcp.o
 .text.TCPIP_DHCP_RequestTimeoutSet
                0x00000000       0xa4 build/pic32mx/debug/_ext/1408260596/dhcp.o
 .text.TCPIP_DHCP_InfoGet
                0x00000000      0x108 build/pic32mx/debug/_ext/1408260596/dhcp.o
 .text          0x00000000        0x0 build/pic32mx/debug/_ext/1408260596/dns.o
 .data          0x00000000        0x0 build/pic32mx/debug/_ext/1408260596/dns.o
 .reginfo       0x00000000       0x18 build/pic32mx/debug/_ext/1408260596/dns.o
 .text.TCPIP_DNS_GetDNSClientConnectionInfo
                0x00000000       0x50 build/pic32mx/debug/_ext/1408260596/dns.o
 .text.TCPIP_DNS_GetResolverDetails
                0x00000000      0x260 build/pic32mx/debug/_ext/1408260596/dns.o
 .text.TCPIP_DNS_RemoveAll
                0x00000000       0x9c build/pic32mx/debug/_ext/1408260596/dns.o
 .text.TCPIP_DNS_HandlerRegister
                0x00000000       0x7c build/pic32mx/debug/_ext/1408260596/dns.o
 .text.TCPIP_DNS_HandlerDeRegister
                0x00000000       0x44 build/pic32mx/debug/_ext/1408260596/dns.o
 .text.TCPIP_DNS_Enable
                0x00000000       0x1c build/pic32mx/debug/_ext/1408260596/dns.o
 .text.TCPIP_DNS_Disable
                0x00000000       0xec build/pic32mx/debug/_ext/1408260596/dns.o
 .text.TCPIP_DNS_SwitchDNSServerInterface
                0x00000000       0x80 build/pic32mx/debug/_ext/1408260596/dns.o
 .text          0x00000000        0x0 build/pic32mx/debug/_ext/1408260596/http.o
 .data          0x00000000        0x0 build/pic32mx/debug/_ext/1408260596/http.o
 .bss           0x00000000        0x0 build/pic32mx/debug/_ext/1408260596/http.o
 .reginfo       0x00000000       0x18 build/pic32mx/debug/_ext/1408260596/http.o
 .text.TCPIP_HTTP_FileInclude
                0x00000000      0x178 build/pic32mx/debug/_ext/1408260596/http.o
 .text.TCPIP_HTTP_CurrentConnectionCallbackPosGet
                0x00000000        0x8 build/pic32mx/debug/_ext/1408260596/http.o
 .text.TCPIP_HTTP_CurrentConnectionCallbackPosSet
                0x00000000       0x10 build/pic32mx/debug/_ext/1408260596/http.o
 .text.TCPIP_HTTP_CurrentConnectionStatusGet
                0x00000000        0x8 build/pic32mx/debug/_ext/1408260596/http.o
 .text.TCPIP_HTTP_CurrentConnectionHasArgsGet
                0x00000000        0x8 build/pic32mx/debug/_ext/1408260596/http.o
 .text.TCPIP_HTTP_CurrentConnectionByteCountSet
                0x00000000        0x8 build/pic32mx/debug/_ext/1408260596/http.o
 .text.TCPIP_HTTP_CurrentConnectionIsAuthorizedGet
                0x00000000        0x8 build/pic32mx/debug/_ext/1408260596/http.o
 .text.TCPIP_HTTP_CurrentConnectionIsAuthorizedSet
                0x00000000        0x8 build/pic32mx/debug/_ext/1408260596/http.o
 .text.TCPIP_HTTP_CurrentConnectionUserDataSet
                0x00000000        0x8 build/pic32mx/debug/_ext/1408260596/http.o
 .text.TCPIP_HTTP_CurrentConnectionUserDataGet
                0x00000000        0x8 build/pic32mx/debug/_ext/1408260596/http.o
 .text.TCPIP_HTTP_CurrentConnectionIndexGet
                0x00000000        0x8 build/pic32mx/debug/_ext/1408260596/http.o
 .text.TCPIP_HTTP_ActiveConnectionCountGet
                0x00000000       0x50 build/pic32mx/debug/_ext/1408260596/http.o
 .text          0x00000000        0x0 build/pic32mx/debug/_ext/1408260596/icmp.o
 .data          0x00000000        0x0 build/pic32mx/debug/_ext/1408260596/icmp.o
 .reginfo       0x00000000       0x18 build/pic32mx/debug/_ext/1408260596/icmp.o
 .text.TCPIP_ICMP_CallbackRegister
                0x00000000       0x4c build/pic32mx/debug/_ext/1408260596/icmp.o
 .text.TCPIP_ICMP_CallbackDeregister
                0x00000000       0x44 build/pic32mx/debug/_ext/1408260596/icmp.o
 .text.TCPIP_ICMP_EchoRequestSend
                0x00000000      0x11c build/pic32mx/debug/_ext/1408260596/icmp.o
 .text          0x00000000        0x0 build/pic32mx/debug/_ext/1408260596/nbns.o
 .data          0x00000000        0x0 build/pic32mx/debug/_ext/1408260596/nbns.o
 .bss           0x00000000        0x0 build/pic32mx/debug/_ext/1408260596/nbns.o
 .reginfo       0x00000000       0x18 build/pic32mx/debug/_ext/1408260596/nbns.o
 .text          0x00000000        0x0 build/pic32mx/debug/_ext/1408260596/sntp.o
 .data          0x00000000        0x0 build/pic32mx/debug/_ext/1408260596/sntp.o
 .reginfo       0x00000000       0x18 build/pic32mx/debug/_ext/1408260596/sntp.o
 .text.TCPIP_SNTP_UTCSecondsGet
                0x00000000       0x68 build/pic32mx/debug/_ext/1408260596/sntp.o
 .text.TCPIP_SNTP_ConnectionParamSet
                0x00000000       0x78 build/pic32mx/debug/_ext/1408260596/sntp.o
 .text.TCPIP_SNTP_ConnectionInitiate
                0x00000000       0x34 build/pic32mx/debug/_ext/1408260596/sntp.o
 .text.TCPIP_SNTP_TimeStampGet
                0x00000000       0x94 build/pic32mx/debug/_ext/1408260596/sntp.o
 .text.TCPIP_SNTP_LastErrorGet
                0x00000000        0xc build/pic32mx/debug/_ext/1408260596/sntp.o
 .text          0x00000000        0x0 build/pic32mx/debug/_ext/1408260596/zero_conf_helper.o
 .data          0x00000000        0x0 build/pic32mx/debug/_ext/1408260596/zero_conf_helper.o
 .bss           0x00000000        0x0 build/pic32mx/debug/_ext/1408260596/zero_conf_helper.o
 .reginfo       0x00000000       0x18 build/pic32mx/debug/_ext/1408260596/zero_conf_helper.o
 .text          0x00000000        0x0 build/pic32mx/debug/_ext/1408260596/zero_conf_link_local.o
 .data          0x00000000        0x0 build/pic32mx/debug/_ext/1408260596/zero_conf_link_local.o
 .bss           0x00000000        0x0 build/pic32mx/debug/_ext/1408260596/zero_conf_link_local.o
 .reginfo       0x00000000       0x18 build/pic32mx/debug/_ext/1408260596/zero_conf_link_local.o
 .text.TCPIP_ZCLL_ARPAction
                0x00000000       0x24 build/pic32mx/debug/_ext/1408260596/zero_conf_link_local.o
 .text.TCPIP_ZCLL_Disable
                0x00000000       0x64 build/pic32mx/debug/_ext/1408260596/zero_conf_link_local.o
 .text.TCPIP_ZCLL_IsEnabled
                0x00000000       0x24 build/pic32mx/debug/_ext/1408260596/zero_conf_link_local.o
 .text          0x00000000        0x0 build/pic32mx/debug/_ext/1408260596/tcpip_announce.o
 .data          0x00000000        0x0 build/pic32mx/debug/_ext/1408260596/tcpip_announce.o
 .bss           0x00000000        0x0 build/pic32mx/debug/_ext/1408260596/tcpip_announce.o
 .reginfo       0x00000000       0x18 build/pic32mx/debug/_ext/1408260596/tcpip_announce.o
 .text          0x00000000        0x0 build/pic32mx/debug/_ext/1408260596/hash_fnv.o
 .data          0x00000000        0x0 build/pic32mx/debug/_ext/1408260596/hash_fnv.o
 .bss           0x00000000        0x0 build/pic32mx/debug/_ext/1408260596/hash_fnv.o
 .reginfo       0x00000000       0x18 build/pic32mx/debug/_ext/1408260596/hash_fnv.o
 .text.fnv_32a_hash
                0x00000000       0x5c build/pic32mx/debug/_ext/1408260596/hash_fnv.o
 .text          0x00000000        0x0 build/pic32mx/debug/_ext/1408260596/oahash.o
 .data          0x00000000        0x0 build/pic32mx/debug/_ext/1408260596/oahash.o
 .bss           0x00000000        0x0 build/pic32mx/debug/_ext/1408260596/oahash.o
 .reginfo       0x00000000       0x18 build/pic32mx/debug/_ext/1408260596/oahash.o
 .text          0x00000000        0x0 build/pic32mx/debug/_ext/1408260596/tcpip_heap_alloc.o
 .data          0x00000000        0x0 build/pic32mx/debug/_ext/1408260596/tcpip_heap_alloc.o
 .bss           0x00000000        0x0 build/pic32mx/debug/_ext/1408260596/tcpip_heap_alloc.o
 .reginfo       0x00000000       0x18 build/pic32mx/debug/_ext/1408260596/tcpip_heap_alloc.o
 .text.TCPIP_HEAP_Size
                0x00000000       0x1c build/pic32mx/debug/_ext/1408260596/tcpip_heap_alloc.o
 .text.TCPIP_HEAP_MaxSize
                0x00000000       0xc0 build/pic32mx/debug/_ext/1408260596/tcpip_heap_alloc.o
 .text.TCPIP_HEAP_LastError
                0x00000000       0x1c build/pic32mx/debug/_ext/1408260596/tcpip_heap_alloc.o
 .text          0x00000000        0x0 build/pic32mx/debug/_ext/1408260596/tcpip_helpers.o
 .data          0x00000000        0x0 build/pic32mx/debug/_ext/1408260596/tcpip_helpers.o
 .bss           0x00000000        0x0 build/pic32mx/debug/_ext/1408260596/tcpip_helpers.o
 .reginfo       0x00000000       0x18 build/pic32mx/debug/_ext/1408260596/tcpip_helpers.o
 .text.TCPIP_Helper_IPAddressToString
                0x00000000       0x98 build/pic32mx/debug/_ext/1408260596/tcpip_helpers.o
 .text.TCPIP_Helper_IPv6AddressToString
                0x00000000      0x164 build/pic32mx/debug/_ext/1408260596/tcpip_helpers.o
 .text.TCPIP_Helper_IsPrivateAddress
                0x00000000       0x3c build/pic32mx/debug/_ext/1408260596/tcpip_helpers.o
 .text.TCPIP_Helper_MACAddressToString
                0x00000000       0x80 build/pic32mx/debug/_ext/1408260596/tcpip_helpers.o
 .text.TCPIP_Helper_PowerModeToString
                0x00000000       0x28 build/pic32mx/debug/_ext/1408260596/tcpip_helpers.o
 .text.TCPIP_Helper_FindCommonPrefix
                0x00000000       0xa4 build/pic32mx/debug/_ext/1408260596/tcpip_helpers.o
 .text.TCPIP_Helper_SingleListHeadAdd
                0x00000000       0x28 build/pic32mx/debug/_ext/1408260596/tcpip_helpers.o
 .text.TCPIP_Helper_SingleListMidAdd
                0x00000000       0x1c build/pic32mx/debug/_ext/1408260596/tcpip_helpers.o
 .text.TCPIP_Helper_SingleListNextRemove
                0x00000000       0x58 build/pic32mx/debug/_ext/1408260596/tcpip_helpers.o
 .text.TCPIP_Helper_SingleListAppend
                0x00000000       0x48 build/pic32mx/debug/_ext/1408260596/tcpip_helpers.o
 .text.TCPIP_Helper_ProtectedSingleListHeadAdd
                0x00000000       0x74 build/pic32mx/debug/_ext/1408260596/tcpip_helpers.o
 .text.TCPIP_Helper_ProtectedSingleListMidAdd
                0x00000000       0x78 build/pic32mx/debug/_ext/1408260596/tcpip_helpers.o
 .text.TCPIP_Helper_ProtectedSingleListNextRemove
                0x00000000       0x74 build/pic32mx/debug/_ext/1408260596/tcpip_helpers.o
 .text.TCPIP_Helper_ProtectedSingleListAppend
                0x00000000       0x74 build/pic32mx/debug/_ext/1408260596/tcpip_helpers.o
 .text.TCPIP_Helper_DoubleListInitialize
                0x00000000       0x10 build/pic32mx/debug/_ext/1408260596/tcpip_helpers.o
 .text.TCPIP_Helper_DoubleListHeadAdd
                0x00000000       0x40 build/pic32mx/debug/_ext/1408260596/tcpip_helpers.o
 .text.TCPIP_Helper_DoubleListTailAdd
                0x00000000       0x44 build/pic32mx/debug/_ext/1408260596/tcpip_helpers.o
 .text.TCPIP_Helper_DoubleListMidAdd
                0x00000000       0x28 build/pic32mx/debug/_ext/1408260596/tcpip_helpers.o
 .text.TCPIP_Helper_DoubleListHeadRemove
                0x00000000       0x40 build/pic32mx/debug/_ext/1408260596/tcpip_helpers.o
 .text.TCPIP_Helper_DoubleListTailRemove
                0x00000000       0x40 build/pic32mx/debug/_ext/1408260596/tcpip_helpers.o
 .text.TCPIP_Helper_DoubleListMidRemove
                0x00000000       0x28 build/pic32mx/debug/_ext/1408260596/tcpip_helpers.o
 .text.TCPIP_Helper_DoubleListNodeRemove
                0x00000000       0x50 build/pic32mx/debug/_ext/1408260596/tcpip_helpers.o
 .text.TCPIP_Helper_ProtectedDoubleListInitialize
                0x00000000       0x3c build/pic32mx/debug/_ext/1408260596/tcpip_helpers.o
 .text.TCPIP_Helper_ProtectedDoubleListDeinitialize
                0x00000000       0x6c build/pic32mx/debug/_ext/1408260596/tcpip_helpers.o
 .text.TCPIP_Helper_ProtectedDoubleListHeadAdd
                0x00000000       0x74 build/pic32mx/debug/_ext/1408260596/tcpip_helpers.o
 .text.TCPIP_Helper_ProtectedDoubleListTailAdd
                0x00000000       0x74 build/pic32mx/debug/_ext/1408260596/tcpip_helpers.o
 .text.TCPIP_Helper_ProtectedDoubleListMidAdd
                0x00000000       0x74 build/pic32mx/debug/_ext/1408260596/tcpip_helpers.o
 .text.TCPIP_Helper_ProtectedDoubleListHeadRemove
                0x00000000       0x74 build/pic32mx/debug/_ext/1408260596/tcpip_helpers.o
 .text.TCPIP_Helper_ProtectedDoubleListTailRemove
                0x00000000       0x74 build/pic32mx/debug/_ext/1408260596/tcpip_helpers.o
 .text.TCPIP_Helper_ProtectedDoubleListMidRemove
                0x00000000       0x74 build/pic32mx/debug/_ext/1408260596/tcpip_helpers.o
 .text.TCPIP_Helper_ProtectedDoubleListNodeRemove
                0x00000000       0x74 build/pic32mx/debug/_ext/1408260596/tcpip_helpers.o
 .text.TCPIP_Helper_ProtectedDoubleListRemoveAll
                0x00000000       0x88 build/pic32mx/debug/_ext/1408260596/tcpip_helpers.o
 .text.TCPIP_Helper_ProtectedDoubleListLock
                0x00000000       0x44 build/pic32mx/debug/_ext/1408260596/tcpip_helpers.o
 .text.TCPIP_Helper_ProtectedDoubleListUnlock
                0x00000000       0x30 build/pic32mx/debug/_ext/1408260596/tcpip_helpers.o
 .data          0x00000000        0x0 build/pic32mx/debug/_ext/1408260596/tcpip_helper_c32.o
 .bss           0x00000000        0x0 build/pic32mx/debug/_ext/1408260596/tcpip_helper_c32.o
 .reginfo       0x00000000       0x18 build/pic32mx/debug/_ext/1408260596/tcpip_helper_c32.o
 .text          0x00000000        0x0 build/pic32mx/debug/_ext/1408260596/tcpip_manager.o
 .reginfo       0x00000000       0x18 build/pic32mx/debug/_ext/1408260596/tcpip_manager.o
 .text.TCPIP_STACK_NetUp
                0x00000000       0xe4 build/pic32mx/debug/_ext/1408260596/tcpip_manager.o
 .text.TCPIP_STACK_InitializeDataGet
                0x00000000       0x58 build/pic32mx/debug/_ext/1408260596/tcpip_manager.o
 .text.TCPIP_STACK_NetDefaultSet
                0x00000000       0x2c build/pic32mx/debug/_ext/1408260596/tcpip_manager.o
 .text.TCPIP_STACK_MacToNet
                0x00000000       0x4c build/pic32mx/debug/_ext/1408260596/tcpip_manager.o
 .text.TCPIP_STACK_MacToNetIndex
                0x00000000       0x54 build/pic32mx/debug/_ext/1408260596/tcpip_manager.o
 .text.TCPIP_STACK_NetIndexGet
                0x00000000       0x18 build/pic32mx/debug/_ext/1408260596/tcpip_manager.o
 .text.TCPIP_STACK_NetAliasNameGet
                0x00000000       0x88 build/pic32mx/debug/_ext/1408260596/tcpip_manager.o
 .text.TCPIP_STACK_NetAddressSet
                0x00000000       0x48 build/pic32mx/debug/_ext/1408260596/tcpip_manager.o
 .text.TCPIP_STACK_NetAddressGatewaySet
                0x00000000       0x30 build/pic32mx/debug/_ext/1408260596/tcpip_manager.o
 .text.TCPIP_STACK_NetAddressGateway
                0x00000000       0x28 build/pic32mx/debug/_ext/1408260596/tcpip_manager.o
 .text.TCPIP_STACK_NetAddressDnsPrimary
                0x00000000       0x28 build/pic32mx/debug/_ext/1408260596/tcpip_manager.o
 .text.TCPIP_STACK_NetAddressDnsSecond
                0x00000000       0x28 build/pic32mx/debug/_ext/1408260596/tcpip_manager.o
 .text.TCPIP_STACK_NetAddressDnsPrimarySet
                0x00000000       0x2c build/pic32mx/debug/_ext/1408260596/tcpip_manager.o
 .text.TCPIP_STACK_NetAddressDnsSecondSet
                0x00000000       0x30 build/pic32mx/debug/_ext/1408260596/tcpip_manager.o
 .text.TCPIP_STACK_NetMask
                0x00000000       0x44 build/pic32mx/debug/_ext/1408260596/tcpip_manager.o
 .text.TCPIP_STACK_NetAddressMacSet
                0x00000000       0x4c build/pic32mx/debug/_ext/1408260596/tcpip_manager.o
 .text.TCPIP_STACK_NetBiosNameSet
                0x00000000       0x8c build/pic32mx/debug/_ext/1408260596/tcpip_manager.o
 .text.TCPIP_STACK_NetAddressMac
                0x00000000       0x44 build/pic32mx/debug/_ext/1408260596/tcpip_manager.o
 .text.TCPIP_STACK_SetLocalMasksType
                0x00000000       0x38 build/pic32mx/debug/_ext/1408260596/tcpip_manager.o
 .text.TCPIP_STACK_SetLocalMasks
                0x00000000       0x30 build/pic32mx/debug/_ext/1408260596/tcpip_manager.o
 .text.TCPIP_STACK_NetMACIdGet
                0x00000000       0x28 build/pic32mx/debug/_ext/1408260596/tcpip_manager.o
 .text.TCPIP_STACK_NetMACStatisticsGet
                0x00000000       0x50 build/pic32mx/debug/_ext/1408260596/tcpip_manager.o
 .text.TCPIP_STACK_NetMACRegisterStatisticsGet
                0x00000000       0x50 build/pic32mx/debug/_ext/1408260596/tcpip_manager.o
 .text.TCPIP_STACK_ModuleConfigGet
                0x00000000       0x74 build/pic32mx/debug/_ext/1408260596/tcpip_manager.o
 .text.TCPIP_STACK_NetConfigGet
                0x00000000       0xf4 build/pic32mx/debug/_ext/1408260596/tcpip_manager.o
 .text._NetConfigStringToBuffer
                0x00000000       0xc8 build/pic32mx/debug/_ext/1408260596/tcpip_manager.o
 .text.TCPIP_STACK_NetConfigSet
                0x00000000      0x2c8 build/pic32mx/debug/_ext/1408260596/tcpip_manager.o
 .text.TCPIP_STACK_NetIsUp
                0x00000000       0x20 build/pic32mx/debug/_ext/1408260596/tcpip_manager.o
 .text.TCPIP_STACK_NetIsLinked
                0x00000000       0x44 build/pic32mx/debug/_ext/1408260596/tcpip_manager.o
 .text._TCPIPStackAddressServiceIsRunning
                0x00000000        0xc build/pic32mx/debug/_ext/1408260596/tcpip_manager.o
 .text.TCPIP_STACK_EventsPendingGet
                0x00000000       0x4c build/pic32mx/debug/_ext/1408260596/tcpip_manager.o
 .text.TCPIP_STACK_HandlerRegister
                0x00000000       0x94 build/pic32mx/debug/_ext/1408260596/tcpip_manager.o
 .text.TCPIP_STACK_HandlerDeregister
                0x00000000       0x3c build/pic32mx/debug/_ext/1408260596/tcpip_manager.o
 .text.TCPIP_STACK_NetStaticIPv6AddressGet
                0x00000000        0x8 build/pic32mx/debug/_ext/1408260596/tcpip_manager.o
 .text.TCPIP_STACK_NetDefaultIPv6GatewayGet
                0x00000000        0x8 build/pic32mx/debug/_ext/1408260596/tcpip_manager.o
 .text.TCPIP_STACK_NetworkAddressSet
                0x00000000       0x48 build/pic32mx/debug/_ext/1408260596/tcpip_manager.o
 .text.TCPIP_STACK_AddressIsOfNetUp
                0x00000000       0x54 build/pic32mx/debug/_ext/1408260596/tcpip_manager.o
 .text.TCPIP_STACK_NetMACId
                0x00000000       0x18 build/pic32mx/debug/_ext/1408260596/tcpip_manager.o
 .text.TCPIP_STACK_NetToMAC
                0x00000000       0x18 build/pic32mx/debug/_ext/1408260596/tcpip_manager.o
 .text._TCPIPStackAsyncHandlerSetParams
                0x00000000       0x3c build/pic32mx/debug/_ext/1408260596/tcpip_manager.o
 .text.TCPIP_STACK_VersionGet
                0x00000000        0xc build/pic32mx/debug/_ext/1408260596/tcpip_manager.o
 .text.TCPIP_STACK_VersionStrGet
                0x00000000        0xc build/pic32mx/debug/_ext/1408260596/tcpip_manager.o
 .text          0x00000000        0x0 build/pic32mx/debug/_ext/1408260596/tcpip_notify.o
 .data          0x00000000        0x0 build/pic32mx/debug/_ext/1408260596/tcpip_notify.o
 .bss           0x00000000        0x0 build/pic32mx/debug/_ext/1408260596/tcpip_notify.o
 .reginfo       0x00000000       0x18 build/pic32mx/debug/_ext/1408260596/tcpip_notify.o
 .text          0x00000000        0x0 build/pic32mx/debug/_ext/1408260596/tcpip_packet.o
 .bss           0x00000000        0x0 build/pic32mx/debug/_ext/1408260596/tcpip_packet.o
 .reginfo       0x00000000       0x18 build/pic32mx/debug/_ext/1408260596/tcpip_packet.o
 .text.TCPIP_PKT_SegmentAlloc
                0x00000000       0xac build/pic32mx/debug/_ext/1408260596/tcpip_packet.o
 .text.TCPIP_PKT_SegmentAppend
                0x00000000       0x30 build/pic32mx/debug/_ext/1408260596/tcpip_packet.o
 .text.TCPIP_PKT_SegmentFree
                0x00000000       0x44 build/pic32mx/debug/_ext/1408260596/tcpip_packet.o
 .text.TCPIP_PKT_PayloadLen
                0x00000000       0x38 build/pic32mx/debug/_ext/1408260596/tcpip_packet.o
 .text.TCPIP_PKT_FlightFlagsUpdate
                0x00000000       0x44 build/pic32mx/debug/_ext/1408260596/tcpip_packet.o
 .text.TCPIP_PKT_FlightFlagsUpdateAll
                0x00000000        0x8 build/pic32mx/debug/_ext/1408260596/tcpip_packet.o
 .text.TCPIP_PKT_FlightTypeUpdate
                0x00000000       0x40 build/pic32mx/debug/_ext/1408260596/tcpip_packet.o
 .text.TCPIP_PKT_FlightTypeUpdateAll
                0x00000000       0x1c build/pic32mx/debug/_ext/1408260596/tcpip_packet.o
 .text          0x00000000        0x0 build/pic32mx/debug/_ext/1408260596/ipv4.o
 .data          0x00000000        0x0 build/pic32mx/debug/_ext/1408260596/ipv4.o
 .reginfo       0x00000000       0x18 build/pic32mx/debug/_ext/1408260596/ipv4.o
 .text          0x00000000        0x0 build/pic32mx/debug/_ext/610166344/usb_device.o
 .data          0x00000000        0x0 build/pic32mx/debug/_ext/610166344/usb_device.o
 .reginfo       0x00000000       0x18 build/pic32mx/debug/_ext/610166344/usb_device.o
 .rodata        0x00000000        0x2 build/pic32mx/debug/_ext/610166344/usb_device.o
 .text.USB_DEVICE_Status
                0x00000000       0x34 build/pic32mx/debug/_ext/610166344/usb_device.o
 .text.USB_DEVICE_IsSuspended
                0x00000000       0x24 build/pic32mx/debug/_ext/610166344/usb_device.o
 .text.USB_DEVICE_StateGet
                0x00000000       0x24 build/pic32mx/debug/_ext/610166344/usb_device.o
 .text.USB_DEVICE_Deinitialize
                0x00000000       0x30 build/pic32mx/debug/_ext/610166344/usb_device.o
 .text.USB_DEVICE_Close
                0x00000000       0x2c build/pic32mx/debug/_ext/610166344/usb_device.o
 .text.USB_DEVICE_ClientStatusGet
                0x00000000       0x28 build/pic32mx/debug/_ext/610166344/usb_device.o
 .text.USB_DEVICE_Tasks_ISR
                0x00000000        0x8 build/pic32mx/debug/_ext/610166344/usb_device.o
 .text.USB_DEVICE_Tasks_ISR_USBDMA
                0x00000000        0x8 build/pic32mx/debug/_ext/610166344/usb_device.o
 .text.USB_DEVICE_ActiveConfigurationGet
                0x00000000       0x28 build/pic32mx/debug/_ext/610166344/usb_device.o
 .text.USB_DEVICE_ActiveSpeedGet
                0x00000000       0x2c build/pic32mx/debug/_ext/610166344/usb_device.o
 .text.USB_DEVICE_PowerStateSet
                0x00000000       0x38 build/pic32mx/debug/_ext/610166344/usb_device.o
 .text.USB_DEVICE_RemoteWakeupStatusGet
                0x00000000       0x28 build/pic32mx/debug/_ext/610166344/usb_device.o
 .text.USB_DEVICE_RemoteWakeupStop
                0x00000000       0x34 build/pic32mx/debug/_ext/610166344/usb_device.o
 .text.USB_DEVICE_RemoteWakeupStart
                0x00000000       0x34 build/pic32mx/debug/_ext/610166344/usb_device.o
 .text._USB_DEVICE_EndpointMutexCreateFunction
                0x00000000       0x1c build/pic32mx/debug/_ext/610166344/usb_device.o
 .text._USB_DEVICE_EndpointMutexDeleteFunction
                0x00000000        0x8 build/pic32mx/debug/_ext/610166344/usb_device.o
 .text._USB_DEVICE_GetStringDescriptorRequestProcessAdvanced
                0x00000000       0xa8 build/pic32mx/debug/_ext/610166344/usb_device.o
 .text          0x00000000        0x0 build/pic32mx/debug/_ext/610166344/usb_device_cdc.o
 .data          0x00000000        0x0 build/pic32mx/debug/_ext/610166344/usb_device_cdc.o
 .bss           0x00000000        0x0 build/pic32mx/debug/_ext/610166344/usb_device_cdc.o
 .reginfo       0x00000000       0x18 build/pic32mx/debug/_ext/610166344/usb_device_cdc.o
 .text._USB_DEVICE_CDC_SerialStateSendIRPCallback
                0x00000000       0xa0 build/pic32mx/debug/_ext/610166344/usb_device_cdc.o
 .text.USB_DEVICE_CDC_ReadPacketSizeGet
                0x00000000       0x18 build/pic32mx/debug/_ext/610166344/usb_device_cdc.o
 .text.USB_DEVICE_CDC_WritePacketSizeGet
                0x00000000       0x18 build/pic32mx/debug/_ext/610166344/usb_device_cdc.o
 .text.USB_DEVICE_CDC_SerialStateNotificationSend
                0x00000000      0x184 build/pic32mx/debug/_ext/610166344/usb_device_cdc.o
 .text          0x00000000        0x0 build/pic32mx/debug/_ext/610166344/usb_device_cdc_acm.o
 .data          0x00000000        0x0 build/pic32mx/debug/_ext/610166344/usb_device_cdc_acm.o
 .bss           0x00000000        0x0 build/pic32mx/debug/_ext/610166344/usb_device_cdc_acm.o
 .reginfo       0x00000000       0x18 build/pic32mx/debug/_ext/610166344/usb_device_cdc_acm.o
 .text          0x00000000        0x0 ..\..\..\..\bin\framework\peripheral\PIC32MX795F512L_peripherals.a(plib_eth_lib.o)
 .data          0x00000000        0x0 ..\..\..\..\bin\framework\peripheral\PIC32MX795F512L_peripherals.a(plib_eth_lib.o)
 .bss           0x00000000        0x0 ..\..\..\..\bin\framework\peripheral\PIC32MX795F512L_peripherals.a(plib_eth_lib.o)
 .reginfo       0x00000000       0x18 ..\..\..\..\bin\framework\peripheral\PIC32MX795F512L_peripherals.a(plib_eth_lib.o)
 .text.PLIB_ETH_RxFiltersWrite
                0x00000000       0x28 ..\..\..\..\bin\framework\peripheral\PIC32MX795F512L_peripherals.a(plib_eth_lib.o)
 .text.PLIB_ETH_RxFiltersPMSet
                0x00000000       0x98 ..\..\..\..\bin\framework\peripheral\PIC32MX795F512L_peripherals.a(plib_eth_lib.o)
 .text.PLIB_ETH_RxFiltersPMClr
                0x00000000       0x20 ..\..\..\..\bin\framework\peripheral\PIC32MX795F512L_peripherals.a(plib_eth_lib.o)
 .text.PLIB_ETH_EventsEnableWrite
                0x00000000       0x20 ..\..\..\..\bin\framework\peripheral\PIC32MX795F512L_peripherals.a(plib_eth_lib.o)
 .text.PLIB_ETH_EventsEnableGet
                0x00000000       0x1c ..\..\..\..\bin\framework\peripheral\PIC32MX795F512L_peripherals.a(plib_eth_lib.o)
 .text          0x00000000        0x0 c:/program files (x86)/microchip/xc32/v1.40/bin/bin/../../lib/gcc/pic32mx/4.8.3/../../../../pic32mx/lib/./proc/32MX795F512L\default_isr_vectors.o
 .data          0x00000000        0x0 c:/program files (x86)/microchip/xc32/v1.40/bin/bin/../../lib/gcc/pic32mx/4.8.3/../../../../pic32mx/lib/./proc/32MX795F512L\default_isr_vectors.o
 .bss           0x00000000        0x0 c:/program files (x86)/microchip/xc32/v1.40/bin/bin/../../lib/gcc/pic32mx/4.8.3/../../../../pic32mx/lib/./proc/32MX795F512L\default_isr_vectors.o
 .reginfo       0x00000000       0x18 c:/program files (x86)/microchip/xc32/v1.40/bin/bin/../../lib/gcc/pic32mx/4.8.3/../../../../pic32mx/lib/./proc/32MX795F512L\default_isr_vectors.o
 .discard       0x00000000       0xd0 c:/program files (x86)/microchip/xc32/v1.40/bin/bin/../../lib/gcc/pic32mx/4.8.3/../../../../pic32mx/lib/./proc/32MX795F512L\default_isr_vectors.o
 .data          0x00000000        0x0 c:/program files (x86)/microchip/xc32/v1.40/bin/bin/../../lib/gcc/pic32mx/4.8.3/../../../../pic32mx/lib\pic32_software_reset.o
 .bss           0x00000000        0x0 c:/program files (x86)/microchip/xc32/v1.40/bin/bin/../../lib/gcc/pic32mx/4.8.3/../../../../pic32mx/lib\pic32_software_reset.o
 .reginfo       0x00000000       0x18 c:/program files (x86)/microchip/xc32/v1.40/bin/bin/../../lib/gcc/pic32mx/4.8.3/../../../../pic32mx/lib\pic32_software_reset.o
 .text          0x00000000        0x0 c:/program files (x86)/microchip/xc32/v1.40/bin/bin/../../lib/gcc/pic32mx/4.8.3/../../../../pic32mx/lib/./proc/32MX795F512L\processor.o
 .data          0x00000000        0x0 c:/program files (x86)/microchip/xc32/v1.40/bin/bin/../../lib/gcc/pic32mx/4.8.3/../../../../pic32mx/lib/./proc/32MX795F512L\processor.o
 .bss           0x00000000        0x0 c:/program files (x86)/microchip/xc32/v1.40/bin/bin/../../lib/gcc/pic32mx/4.8.3/../../../../pic32mx/lib/./proc/32MX795F512L\processor.o
 .reginfo       0x00000000       0x18 c:/program files (x86)/microchip/xc32/v1.40/bin/bin/../../lib/gcc/pic32mx/4.8.3/../../../../pic32mx/lib/./proc/32MX795F512L\processor.o
 .data          0x00000000        0x0 c:/program files (x86)/microchip/xc32/v1.40/bin/bin/../../lib/gcc/pic32mx/4.8.3\libgcc.a(_udivdi3.o)
 .bss           0x00000000        0x0 c:/program files (x86)/microchip/xc32/v1.40/bin/bin/../../lib/gcc/pic32mx/4.8.3\libgcc.a(_udivdi3.o)
 .reginfo       0x00000000       0x18 c:/program files (x86)/microchip/xc32/v1.40/bin/bin/../../lib/gcc/pic32mx/4.8.3\libgcc.a(_udivdi3.o)
 .data          0x00000000        0x0 c:/program files (x86)/microchip/xc32/v1.40/bin/bin/../../lib/gcc/pic32mx/4.8.3/../../../../pic32mx/lib\libpic32.a(memcmp.o)
 .bss           0x00000000        0x0 c:/program files (x86)/microchip/xc32/v1.40/bin/bin/../../lib/gcc/pic32mx/4.8.3/../../../../pic32mx/lib\libpic32.a(memcmp.o)
 .reginfo       0x00000000       0x18 c:/program files (x86)/microchip/xc32/v1.40/bin/bin/../../lib/gcc/pic32mx/4.8.3/../../../../pic32mx/lib\libpic32.a(memcmp.o)
 .data          0x00000000        0x0 c:/program files (x86)/microchip/xc32/v1.40/bin/bin/../../lib/gcc/pic32mx/4.8.3/../../../../pic32mx/lib\libpic32.a(memcpy.o)
 .bss           0x00000000        0x0 c:/program files (x86)/microchip/xc32/v1.40/bin/bin/../../lib/gcc/pic32mx/4.8.3/../../../../pic32mx/lib\libpic32.a(memcpy.o)
 .reginfo       0x00000000       0x18 c:/program files (x86)/microchip/xc32/v1.40/bin/bin/../../lib/gcc/pic32mx/4.8.3/../../../../pic32mx/lib\libpic32.a(memcpy.o)
 .data          0x00000000        0x0 c:/program files (x86)/microchip/xc32/v1.40/bin/bin/../../lib/gcc/pic32mx/4.8.3/../../../../pic32mx/lib\libpic32.a(memset.o)
 .bss           0x00000000        0x0 c:/program files (x86)/microchip/xc32/v1.40/bin/bin/../../lib/gcc/pic32mx/4.8.3/../../../../pic32mx/lib\libpic32.a(memset.o)
 .reginfo       0x00000000       0x18 c:/program files (x86)/microchip/xc32/v1.40/bin/bin/../../lib/gcc/pic32mx/4.8.3/../../../../pic32mx/lib\libpic32.a(memset.o)
 .data          0x00000000        0x0 c:/program files (x86)/microchip/xc32/v1.40/bin/bin/../../lib/gcc/pic32mx/4.8.3/../../../../pic32mx/lib\libpic32.a(strcmp.o)
 .bss           0x00000000        0x0 c:/program files (x86)/microchip/xc32/v1.40/bin/bin/../../lib/gcc/pic32mx/4.8.3/../../../../pic32mx/lib\libpic32.a(strcmp.o)
 .reginfo       0x00000000       0x18 c:/program files (x86)/microchip/xc32/v1.40/bin/bin/../../lib/gcc/pic32mx/4.8.3/../../../../pic32mx/lib\libpic32.a(strcmp.o)
 .data          0x00000000        0x0 c:/program files (x86)/microchip/xc32/v1.40/bin/bin/../../lib/gcc/pic32mx/4.8.3/../../../../pic32mx/lib\libpic32.a(strcpy.o)
 .bss           0x00000000        0x0 c:/program files (x86)/microchip/xc32/v1.40/bin/bin/../../lib/gcc/pic32mx/4.8.3/../../../../pic32mx/lib\libpic32.a(strcpy.o)
 .reginfo       0x00000000       0x18 c:/program files (x86)/microchip/xc32/v1.40/bin/bin/../../lib/gcc/pic32mx/4.8.3/../../../../pic32mx/lib\libpic32.a(strcpy.o)
 .data          0x00000000        0x0 c:/program files (x86)/microchip/xc32/v1.40/bin/bin/../../lib/gcc/pic32mx/4.8.3/../../../../pic32mx/lib\libpic32.a(strlen.o)
 .bss           0x00000000        0x0 c:/program files (x86)/microchip/xc32/v1.40/bin/bin/../../lib/gcc/pic32mx/4.8.3/../../../../pic32mx/lib\libpic32.a(strlen.o)
 .reginfo       0x00000000       0x18 c:/program files (x86)/microchip/xc32/v1.40/bin/bin/../../lib/gcc/pic32mx/4.8.3/../../../../pic32mx/lib\libpic32.a(strlen.o)
 .text          0x00000000        0x0 c:/program files (x86)/microchip/xc32/v1.40/bin/bin/../../lib/gcc/pic32mx/4.8.3/../../../../pic32mx/lib\libpic32.a(default-bootstrap-exception-handler.o)
 .data          0x00000000        0x0 c:/program files (x86)/microchip/xc32/v1.40/bin/bin/../../lib/gcc/pic32mx/4.8.3/../../../../pic32mx/lib\libpic32.a(default-bootstrap-exception-handler.o)
 .bss           0x00000000        0x0 c:/program files (x86)/microchip/xc32/v1.40/bin/bin/../../lib/gcc/pic32mx/4.8.3/../../../../pic32mx/lib\libpic32.a(default-bootstrap-exception-handler.o)
 .reginfo       0x00000000       0x18 c:/program files (x86)/microchip/xc32/v1.40/bin/bin/../../lib/gcc/pic32mx/4.8.3/../../../../pic32mx/lib\libpic32.a(default-bootstrap-exception-handler.o)
 .text          0x00000000        0x0 c:/program files (x86)/microchip/xc32/v1.40/bin/bin/../../lib/gcc/pic32mx/4.8.3/../../../../pic32mx/lib\libpic32.a(default-on-reset.o)
 .data          0x00000000        0x0 c:/program files (x86)/microchip/xc32/v1.40/bin/bin/../../lib/gcc/pic32mx/4.8.3/../../../../pic32mx/lib\libpic32.a(default-on-reset.o)
 .bss           0x00000000        0x0 c:/program files (x86)/microchip/xc32/v1.40/bin/bin/../../lib/gcc/pic32mx/4.8.3/../../../../pic32mx/lib\libpic32.a(default-on-reset.o)
 .reginfo       0x00000000       0x18 c:/program files (x86)/microchip/xc32/v1.40/bin/bin/../../lib/gcc/pic32mx/4.8.3/../../../../pic32mx/lib\libpic32.a(default-on-reset.o)
 .text          0x00000000        0x0 c:/program files (x86)/microchip/xc32/v1.40/bin/bin/../../lib/gcc/pic32mx/4.8.3/../../../../pic32mx/lib\libpic32.a(default-on-bootstrap.o)
 .data          0x00000000        0x0 c:/program files (x86)/microchip/xc32/v1.40/bin/bin/../../lib/gcc/pic32mx/4.8.3/../../../../pic32mx/lib\libpic32.a(default-on-bootstrap.o)
 .bss           0x00000000        0x0 c:/program files (x86)/microchip/xc32/v1.40/bin/bin/../../lib/gcc/pic32mx/4.8.3/../../../../pic32mx/lib\libpic32.a(default-on-bootstrap.o)
 .reginfo       0x00000000       0x18 c:/program files (x86)/microchip/xc32/v1.40/bin/bin/../../lib/gcc/pic32mx/4.8.3/../../../../pic32mx/lib\libpic32.a(default-on-bootstrap.o)
 .data          0x00000000        0x0 c:/program files (x86)/microchip/xc32/v1.40/bin/bin/../../lib/gcc/pic32mx/4.8.3/../../../../pic32mx/lib\libpic32.a(default-nmi-handler.o)
 .bss           0x00000000        0x0 c:/program files (x86)/microchip/xc32/v1.40/bin/bin/../../lib/gcc/pic32mx/4.8.3/../../../../pic32mx/lib\libpic32.a(default-nmi-handler.o)
 .reginfo       0x00000000       0x18 c:/program files (x86)/microchip/xc32/v1.40/bin/bin/../../lib/gcc/pic32mx/4.8.3/../../../../pic32mx/lib\libpic32.a(default-nmi-handler.o)
 .text          0x00000000        0x0 c:/program files (x86)/microchip/xc32/v1.40/bin/bin/../../lib/gcc/pic32mx/4.8.3/../../../../pic32mx/lib\libpic32.a(general-exception.o)
 .data          0x00000000        0x0 c:/program files (x86)/microchip/xc32/v1.40/bin/bin/../../lib/gcc/pic32mx/4.8.3/../../../../pic32mx/lib\libpic32.a(general-exception.o)
 .bss           0x00000000        0x0 c:/program files (x86)/microchip/xc32/v1.40/bin/bin/../../lib/gcc/pic32mx/4.8.3/../../../../pic32mx/lib\libpic32.a(general-exception.o)
 .reginfo       0x00000000       0x18 c:/program files (x86)/microchip/xc32/v1.40/bin/bin/../../lib/gcc/pic32mx/4.8.3/../../../../pic32mx/lib\libpic32.a(general-exception.o)
 .text          0x00000000        0x0 c:/program files (x86)/microchip/xc32/v1.40/bin/bin/../../lib/gcc/pic32mx/4.8.3/../../../../pic32mx/lib\libpic32.a(vector0.o)
 .data          0x00000000        0x0 c:/program files (x86)/microchip/xc32/v1.40/bin/bin/../../lib/gcc/pic32mx/4.8.3/../../../../pic32mx/lib\libpic32.a(vector0.o)
 .bss           0x00000000        0x0 c:/program files (x86)/microchip/xc32/v1.40/bin/bin/../../lib/gcc/pic32mx/4.8.3/../../../../pic32mx/lib\libpic32.a(vector0.o)
 .reginfo       0x00000000       0x18 c:/program files (x86)/microchip/xc32/v1.40/bin/bin/../../lib/gcc/pic32mx/4.8.3/../../../../pic32mx/lib\libpic32.a(vector0.o)
 .text          0x00000000        0x0 c:/program files (x86)/microchip/xc32/v1.40/bin/bin/../../lib/gcc/pic32mx/4.8.3/../../../../pic32mx/lib\libpic32.a(vector1.o)
 .data          0x00000000        0x0 c:/program files (x86)/microchip/xc32/v1.40/bin/bin/../../lib/gcc/pic32mx/4.8.3/../../../../pic32mx/lib\libpic32.a(vector1.o)
 .bss           0x00000000        0x0 c:/program files (x86)/microchip/xc32/v1.40/bin/bin/../../lib/gcc/pic32mx/4.8.3/../../../../pic32mx/lib\libpic32.a(vector1.o)
 .reginfo       0x00000000       0x18 c:/program files (x86)/microchip/xc32/v1.40/bin/bin/../../lib/gcc/pic32mx/4.8.3/../../../../pic32mx/lib\libpic32.a(vector1.o)
 .text          0x00000000        0x0 c:/program files (x86)/microchip/xc32/v1.40/bin/bin/../../lib/gcc/pic32mx/4.8.3/../../../../pic32mx/lib\libpic32.a(vector2.o)
 .data          0x00000000        0x0 c:/program files (x86)/microchip/xc32/v1.40/bin/bin/../../lib/gcc/pic32mx/4.8.3/../../../../pic32mx/lib\libpic32.a(vector2.o)
 .bss           0x00000000        0x0 c:/program files (x86)/microchip/xc32/v1.40/bin/bin/../../lib/gcc/pic32mx/4.8.3/../../../../pic32mx/lib\libpic32.a(vector2.o)
 .reginfo       0x00000000       0x18 c:/program files (x86)/microchip/xc32/v1.40/bin/bin/../../lib/gcc/pic32mx/4.8.3/../../../../pic32mx/lib\libpic32.a(vector2.o)
 .text          0x00000000        0x0 c:/program files (x86)/microchip/xc32/v1.40/bin/bin/../../lib/gcc/pic32mx/4.8.3/../../../../pic32mx/lib\libpic32.a(vector3.o)
 .data          0x00000000        0x0 c:/program files (x86)/microchip/xc32/v1.40/bin/bin/../../lib/gcc/pic32mx/4.8.3/../../../../pic32mx/lib\libpic32.a(vector3.o)
 .bss           0x00000000        0x0 c:/program files (x86)/microchip/xc32/v1.40/bin/bin/../../lib/gcc/pic32mx/4.8.3/../../../../pic32mx/lib\libpic32.a(vector3.o)
 .reginfo       0x00000000       0x18 c:/program files (x86)/microchip/xc32/v1.40/bin/bin/../../lib/gcc/pic32mx/4.8.3/../../../../pic32mx/lib\libpic32.a(vector3.o)
 .text          0x00000000        0x0 c:/program files (x86)/microchip/xc32/v1.40/bin/bin/../../lib/gcc/pic32mx/4.8.3/../../../../pic32mx/lib\libpic32.a(vector5.o)
 .data          0x00000000        0x0 c:/program files (x86)/microchip/xc32/v1.40/bin/bin/../../lib/gcc/pic32mx/4.8.3/../../../../pic32mx/lib\libpic32.a(vector5.o)
 .bss           0x00000000        0x0 c:/program files (x86)/microchip/xc32/v1.40/bin/bin/../../lib/gcc/pic32mx/4.8.3/../../../../pic32mx/lib\libpic32.a(vector5.o)
 .reginfo       0x00000000       0x18 c:/program files (x86)/microchip/xc32/v1.40/bin/bin/../../lib/gcc/pic32mx/4.8.3/../../../../pic32mx/lib\libpic32.a(vector5.o)
 .text          0x00000000        0x0 c:/program files (x86)/microchip/xc32/v1.40/bin/bin/../../lib/gcc/pic32mx/4.8.3/../../../../pic32mx/lib\libpic32.a(vector6.o)
 .data          0x00000000        0x0 c:/program files (x86)/microchip/xc32/v1.40/bin/bin/../../lib/gcc/pic32mx/4.8.3/../../../../pic32mx/lib\libpic32.a(vector6.o)
 .bss           0x00000000        0x0 c:/program files (x86)/microchip/xc32/v1.40/bin/bin/../../lib/gcc/pic32mx/4.8.3/../../../../pic32mx/lib\libpic32.a(vector6.o)
 .reginfo       0x00000000       0x18 c:/program files (x86)/microchip/xc32/v1.40/bin/bin/../../lib/gcc/pic32mx/4.8.3/../../../../pic32mx/lib\libpic32.a(vector6.o)
 .text          0x00000000        0x0 c:/program files (x86)/microchip/xc32/v1.40/bin/bin/../../lib/gcc/pic32mx/4.8.3/../../../../pic32mx/lib\libpic32.a(vector7.o)
 .data          0x00000000        0x0 c:/program files (x86)/microchip/xc32/v1.40/bin/bin/../../lib/gcc/pic32mx/4.8.3/../../../../pic32mx/lib\libpic32.a(vector7.o)
 .bss           0x00000000        0x0 c:/program files (x86)/microchip/xc32/v1.40/bin/bin/../../lib/gcc/pic32mx/4.8.3/../../../../pic32mx/lib\libpic32.a(vector7.o)
 .reginfo       0x00000000       0x18 c:/program files (x86)/microchip/xc32/v1.40/bin/bin/../../lib/gcc/pic32mx/4.8.3/../../../../pic32mx/lib\libpic32.a(vector7.o)
 .text          0x00000000        0x0 c:/program files (x86)/microchip/xc32/v1.40/bin/bin/../../lib/gcc/pic32mx/4.8.3/../../../../pic32mx/lib\libpic32.a(vector8.o)
 .data          0x00000000        0x0 c:/program files (x86)/microchip/xc32/v1.40/bin/bin/../../lib/gcc/pic32mx/4.8.3/../../../../pic32mx/lib\libpic32.a(vector8.o)
 .bss           0x00000000        0x0 c:/program files (x86)/microchip/xc32/v1.40/bin/bin/../../lib/gcc/pic32mx/4.8.3/../../../../pic32mx/lib\libpic32.a(vector8.o)
 .reginfo       0x00000000       0x18 c:/program files (x86)/microchip/xc32/v1.40/bin/bin/../../lib/gcc/pic32mx/4.8.3/../../../../pic32mx/lib\libpic32.a(vector8.o)
 .text          0x00000000        0x0 c:/program files (x86)/microchip/xc32/v1.40/bin/bin/../../lib/gcc/pic32mx/4.8.3/../../../../pic32mx/lib\libpic32.a(vector9.o)
 .data          0x00000000        0x0 c:/program files (x86)/microchip/xc32/v1.40/bin/bin/../../lib/gcc/pic32mx/4.8.3/../../../../pic32mx/lib\libpic32.a(vector9.o)
 .bss           0x00000000        0x0 c:/program files (x86)/microchip/xc32/v1.40/bin/bin/../../lib/gcc/pic32mx/4.8.3/../../../../pic32mx/lib\libpic32.a(vector9.o)
 .reginfo       0x00000000       0x18 c:/program files (x86)/microchip/xc32/v1.40/bin/bin/../../lib/gcc/pic32mx/4.8.3/../../../../pic32mx/lib\libpic32.a(vector9.o)
 .text          0x00000000        0x0 c:/program files (x86)/microchip/xc32/v1.40/bin/bin/../../lib/gcc/pic32mx/4.8.3/../../../../pic32mx/lib\libpic32.a(vector10.o)
 .data          0x00000000        0x0 c:/program files (x86)/microchip/xc32/v1.40/bin/bin/../../lib/gcc/pic32mx/4.8.3/../../../../pic32mx/lib\libpic32.a(vector10.o)
 .bss           0x00000000        0x0 c:/program files (x86)/microchip/xc32/v1.40/bin/bin/../../lib/gcc/pic32mx/4.8.3/../../../../pic32mx/lib\libpic32.a(vector10.o)
 .reginfo       0x00000000       0x18 c:/program files (x86)/microchip/xc32/v1.40/bin/bin/../../lib/gcc/pic32mx/4.8.3/../../../../pic32mx/lib\libpic32.a(vector10.o)
 .text          0x00000000        0x0 c:/program files (x86)/microchip/xc32/v1.40/bin/bin/../../lib/gcc/pic32mx/4.8.3/../../../../pic32mx/lib\libpic32.a(vector11.o)
 .data          0x00000000        0x0 c:/program files (x86)/microchip/xc32/v1.40/bin/bin/../../lib/gcc/pic32mx/4.8.3/../../../../pic32mx/lib\libpic32.a(vector11.o)
 .bss           0x00000000        0x0 c:/program files (x86)/microchip/xc32/v1.40/bin/bin/../../lib/gcc/pic32mx/4.8.3/../../../../pic32mx/lib\libpic32.a(vector11.o)
 .reginfo       0x00000000       0x18 c:/program files (x86)/microchip/xc32/v1.40/bin/bin/../../lib/gcc/pic32mx/4.8.3/../../../../pic32mx/lib\libpic32.a(vector11.o)
 .text          0x00000000        0x0 c:/program files (x86)/microchip/xc32/v1.40/bin/bin/../../lib/gcc/pic32mx/4.8.3/../../../../pic32mx/lib\libpic32.a(vector12.o)
 .data          0x00000000        0x0 c:/program files (x86)/microchip/xc32/v1.40/bin/bin/../../lib/gcc/pic32mx/4.8.3/../../../../pic32mx/lib\libpic32.a(vector12.o)
 .bss           0x00000000        0x0 c:/program files (x86)/microchip/xc32/v1.40/bin/bin/../../lib/gcc/pic32mx/4.8.3/../../../../pic32mx/lib\libpic32.a(vector12.o)
 .reginfo       0x00000000       0x18 c:/program files (x86)/microchip/xc32/v1.40/bin/bin/../../lib/gcc/pic32mx/4.8.3/../../../../pic32mx/lib\libpic32.a(vector12.o)
 .text          0x00000000        0x0 c:/program files (x86)/microchip/xc32/v1.40/bin/bin/../../lib/gcc/pic32mx/4.8.3/../../../../pic32mx/lib\libpic32.a(vector13.o)
 .data          0x00000000        0x0 c:/program files (x86)/microchip/xc32/v1.40/bin/bin/../../lib/gcc/pic32mx/4.8.3/../../../../pic32mx/lib\libpic32.a(vector13.o)
 .bss           0x00000000        0x0 c:/program files (x86)/microchip/xc32/v1.40/bin/bin/../../lib/gcc/pic32mx/4.8.3/../../../../pic32mx/lib\libpic32.a(vector13.o)
 .reginfo       0x00000000       0x18 c:/program files (x86)/microchip/xc32/v1.40/bin/bin/../../lib/gcc/pic32mx/4.8.3/../../../../pic32mx/lib\libpic32.a(vector13.o)
 .text          0x00000000        0x0 c:/program files (x86)/microchip/xc32/v1.40/bin/bin/../../lib/gcc/pic32mx/4.8.3/../../../../pic32mx/lib\libpic32.a(vector14.o)
 .data          0x00000000        0x0 c:/program files (x86)/microchip/xc32/v1.40/bin/bin/../../lib/gcc/pic32mx/4.8.3/../../../../pic32mx/lib\libpic32.a(vector14.o)
 .bss           0x00000000        0x0 c:/program files (x86)/microchip/xc32/v1.40/bin/bin/../../lib/gcc/pic32mx/4.8.3/../../../../pic32mx/lib\libpic32.a(vector14.o)
 .reginfo       0x00000000       0x18 c:/program files (x86)/microchip/xc32/v1.40/bin/bin/../../lib/gcc/pic32mx/4.8.3/../../../../pic32mx/lib\libpic32.a(vector14.o)
 .text          0x00000000        0x0 c:/program files (x86)/microchip/xc32/v1.40/bin/bin/../../lib/gcc/pic32mx/4.8.3/../../../../pic32mx/lib\libpic32.a(vector15.o)
 .data          0x00000000        0x0 c:/program files (x86)/microchip/xc32/v1.40/bin/bin/../../lib/gcc/pic32mx/4.8.3/../../../../pic32mx/lib\libpic32.a(vector15.o)
 .bss           0x00000000        0x0 c:/program files (x86)/microchip/xc32/v1.40/bin/bin/../../lib/gcc/pic32mx/4.8.3/../../../../pic32mx/lib\libpic32.a(vector15.o)
 .reginfo       0x00000000       0x18 c:/program files (x86)/microchip/xc32/v1.40/bin/bin/../../lib/gcc/pic32mx/4.8.3/../../../../pic32mx/lib\libpic32.a(vector15.o)
 .text          0x00000000        0x0 c:/program files (x86)/microchip/xc32/v1.40/bin/bin/../../lib/gcc/pic32mx/4.8.3/../../../../pic32mx/lib\libpic32.a(vector16.o)
 .data          0x00000000        0x0 c:/program files (x86)/microchip/xc32/v1.40/bin/bin/../../lib/gcc/pic32mx/4.8.3/../../../../pic32mx/lib\libpic32.a(vector16.o)
 .bss           0x00000000        0x0 c:/program files (x86)/microchip/xc32/v1.40/bin/bin/../../lib/gcc/pic32mx/4.8.3/../../../../pic32mx/lib\libpic32.a(vector16.o)
 .reginfo       0x00000000       0x18 c:/program files (x86)/microchip/xc32/v1.40/bin/bin/../../lib/gcc/pic32mx/4.8.3/../../../../pic32mx/lib\libpic32.a(vector16.o)
 .text          0x00000000        0x0 c:/program files (x86)/microchip/xc32/v1.40/bin/bin/../../lib/gcc/pic32mx/4.8.3/../../../../pic32mx/lib\libpic32.a(vector17.o)
 .data          0x00000000        0x0 c:/program files (x86)/microchip/xc32/v1.40/bin/bin/../../lib/gcc/pic32mx/4.8.3/../../../../pic32mx/lib\libpic32.a(vector17.o)
 .bss           0x00000000        0x0 c:/program files (x86)/microchip/xc32/v1.40/bin/bin/../../lib/gcc/pic32mx/4.8.3/../../../../pic32mx/lib\libpic32.a(vector17.o)
 .reginfo       0x00000000       0x18 c:/program files (x86)/microchip/xc32/v1.40/bin/bin/../../lib/gcc/pic32mx/4.8.3/../../../../pic32mx/lib\libpic32.a(vector17.o)
 .text          0x00000000        0x0 c:/program files (x86)/microchip/xc32/v1.40/bin/bin/../../lib/gcc/pic32mx/4.8.3/../../../../pic32mx/lib\libpic32.a(vector18.o)
 .data          0x00000000        0x0 c:/program files (x86)/microchip/xc32/v1.40/bin/bin/../../lib/gcc/pic32mx/4.8.3/../../../../pic32mx/lib\libpic32.a(vector18.o)
 .bss           0x00000000        0x0 c:/program files (x86)/microchip/xc32/v1.40/bin/bin/../../lib/gcc/pic32mx/4.8.3/../../../../pic32mx/lib\libpic32.a(vector18.o)
 .reginfo       0x00000000       0x18 c:/program files (x86)/microchip/xc32/v1.40/bin/bin/../../lib/gcc/pic32mx/4.8.3/../../../../pic32mx/lib\libpic32.a(vector18.o)
 .text          0x00000000        0x0 c:/program files (x86)/microchip/xc32/v1.40/bin/bin/../../lib/gcc/pic32mx/4.8.3/../../../../pic32mx/lib\libpic32.a(vector19.o)
 .data          0x00000000        0x0 c:/program files (x86)/microchip/xc32/v1.40/bin/bin/../../lib/gcc/pic32mx/4.8.3/../../../../pic32mx/lib\libpic32.a(vector19.o)
 .bss           0x00000000        0x0 c:/program files (x86)/microchip/xc32/v1.40/bin/bin/../../lib/gcc/pic32mx/4.8.3/../../../../pic32mx/lib\libpic32.a(vector19.o)
 .reginfo       0x00000000       0x18 c:/program files (x86)/microchip/xc32/v1.40/bin/bin/../../lib/gcc/pic32mx/4.8.3/../../../../pic32mx/lib\libpic32.a(vector19.o)
 .text          0x00000000        0x0 c:/program files (x86)/microchip/xc32/v1.40/bin/bin/../../lib/gcc/pic32mx/4.8.3/../../../../pic32mx/lib\libpic32.a(vector20.o)
 .data          0x00000000        0x0 c:/program files (x86)/microchip/xc32/v1.40/bin/bin/../../lib/gcc/pic32mx/4.8.3/../../../../pic32mx/lib\libpic32.a(vector20.o)
 .bss           0x00000000        0x0 c:/program files (x86)/microchip/xc32/v1.40/bin/bin/../../lib/gcc/pic32mx/4.8.3/../../../../pic32mx/lib\libpic32.a(vector20.o)
 .reginfo       0x00000000       0x18 c:/program files (x86)/microchip/xc32/v1.40/bin/bin/../../lib/gcc/pic32mx/4.8.3/../../../../pic32mx/lib\libpic32.a(vector20.o)
 .text          0x00000000        0x0 c:/program files (x86)/microchip/xc32/v1.40/bin/bin/../../lib/gcc/pic32mx/4.8.3/../../../../pic32mx/lib\libpic32.a(vector21.o)
 .data          0x00000000        0x0 c:/program files (x86)/microchip/xc32/v1.40/bin/bin/../../lib/gcc/pic32mx/4.8.3/../../../../pic32mx/lib\libpic32.a(vector21.o)
 .bss           0x00000000        0x0 c:/program files (x86)/microchip/xc32/v1.40/bin/bin/../../lib/gcc/pic32mx/4.8.3/../../../../pic32mx/lib\libpic32.a(vector21.o)
 .reginfo       0x00000000       0x18 c:/program files (x86)/microchip/xc32/v1.40/bin/bin/../../lib/gcc/pic32mx/4.8.3/../../../../pic32mx/lib\libpic32.a(vector21.o)
 .text          0x00000000        0x0 c:/program files (x86)/microchip/xc32/v1.40/bin/bin/../../lib/gcc/pic32mx/4.8.3/../../../../pic32mx/lib\libpic32.a(vector22.o)
 .data          0x00000000        0x0 c:/program files (x86)/microchip/xc32/v1.40/bin/bin/../../lib/gcc/pic32mx/4.8.3/../../../../pic32mx/lib\libpic32.a(vector22.o)
 .bss           0x00000000        0x0 c:/program files (x86)/microchip/xc32/v1.40/bin/bin/../../lib/gcc/pic32mx/4.8.3/../../../../pic32mx/lib\libpic32.a(vector22.o)
 .reginfo       0x00000000       0x18 c:/program files (x86)/microchip/xc32/v1.40/bin/bin/../../lib/gcc/pic32mx/4.8.3/../../../../pic32mx/lib\libpic32.a(vector22.o)
 .text          0x00000000        0x0 c:/program files (x86)/microchip/xc32/v1.40/bin/bin/../../lib/gcc/pic32mx/4.8.3/../../../../pic32mx/lib\libpic32.a(vector23.o)
 .data          0x00000000        0x0 c:/program files (x86)/microchip/xc32/v1.40/bin/bin/../../lib/gcc/pic32mx/4.8.3/../../../../pic32mx/lib\libpic32.a(vector23.o)
 .bss           0x00000000        0x0 c:/program files (x86)/microchip/xc32/v1.40/bin/bin/../../lib/gcc/pic32mx/4.8.3/../../../../pic32mx/lib\libpic32.a(vector23.o)
 .reginfo       0x00000000       0x18 c:/program files (x86)/microchip/xc32/v1.40/bin/bin/../../lib/gcc/pic32mx/4.8.3/../../../../pic32mx/lib\libpic32.a(vector23.o)
 .text          0x00000000        0x0 c:/program files (x86)/microchip/xc32/v1.40/bin/bin/../../lib/gcc/pic32mx/4.8.3/../../../../pic32mx/lib\libpic32.a(vector24.o)
 .data          0x00000000        0x0 c:/program files (x86)/microchip/xc32/v1.40/bin/bin/../../lib/gcc/pic32mx/4.8.3/../../../../pic32mx/lib\libpic32.a(vector24.o)
 .bss           0x00000000        0x0 c:/program files (x86)/microchip/xc32/v1.40/bin/bin/../../lib/gcc/pic32mx/4.8.3/../../../../pic32mx/lib\libpic32.a(vector24.o)
 .reginfo       0x00000000       0x18 c:/program files (x86)/microchip/xc32/v1.40/bin/bin/../../lib/gcc/pic32mx/4.8.3/../../../../pic32mx/lib\libpic32.a(vector24.o)
 .text          0x00000000        0x0 c:/program files (x86)/microchip/xc32/v1.40/bin/bin/../../lib/gcc/pic32mx/4.8.3/../../../../pic32mx/lib\libpic32.a(vector25.o)
 .data          0x00000000        0x0 c:/program files (x86)/microchip/xc32/v1.40/bin/bin/../../lib/gcc/pic32mx/4.8.3/../../../../pic32mx/lib\libpic32.a(vector25.o)
 .bss           0x00000000        0x0 c:/program files (x86)/microchip/xc32/v1.40/bin/bin/../../lib/gcc/pic32mx/4.8.3/../../../../pic32mx/lib\libpic32.a(vector25.o)
 .reginfo       0x00000000       0x18 c:/program files (x86)/microchip/xc32/v1.40/bin/bin/../../lib/gcc/pic32mx/4.8.3/../../../../pic32mx/lib\libpic32.a(vector25.o)
 .text          0x00000000        0x0 c:/program files (x86)/microchip/xc32/v1.40/bin/bin/../../lib/gcc/pic32mx/4.8.3/../../../../pic32mx/lib\libpic32.a(vector26.o)
 .data          0x00000000        0x0 c:/program files (x86)/microchip/xc32/v1.40/bin/bin/../../lib/gcc/pic32mx/4.8.3/../../../../pic32mx/lib\libpic32.a(vector26.o)
 .bss           0x00000000        0x0 c:/program files (x86)/microchip/xc32/v1.40/bin/bin/../../lib/gcc/pic32mx/4.8.3/../../../../pic32mx/lib\libpic32.a(vector26.o)
 .reginfo       0x00000000       0x18 c:/program files (x86)/microchip/xc32/v1.40/bin/bin/../../lib/gcc/pic32mx/4.8.3/../../../../pic32mx/lib\libpic32.a(vector26.o)
 .text          0x00000000        0x0 c:/program files (x86)/microchip/xc32/v1.40/bin/bin/../../lib/gcc/pic32mx/4.8.3/../../../../pic32mx/lib\libpic32.a(vector27.o)
 .data          0x00000000        0x0 c:/program files (x86)/microchip/xc32/v1.40/bin/bin/../../lib/gcc/pic32mx/4.8.3/../../../../pic32mx/lib\libpic32.a(vector27.o)
 .bss           0x00000000        0x0 c:/program files (x86)/microchip/xc32/v1.40/bin/bin/../../lib/gcc/pic32mx/4.8.3/../../../../pic32mx/lib\libpic32.a(vector27.o)
 .reginfo       0x00000000       0x18 c:/program files (x86)/microchip/xc32/v1.40/bin/bin/../../lib/gcc/pic32mx/4.8.3/../../../../pic32mx/lib\libpic32.a(vector27.o)
 .text          0x00000000        0x0 c:/program files (x86)/microchip/xc32/v1.40/bin/bin/../../lib/gcc/pic32mx/4.8.3/../../../../pic32mx/lib\libpic32.a(vector28.o)
 .data          0x00000000        0x0 c:/program files (x86)/microchip/xc32/v1.40/bin/bin/../../lib/gcc/pic32mx/4.8.3/../../../../pic32mx/lib\libpic32.a(vector28.o)
 .bss           0x00000000        0x0 c:/program files (x86)/microchip/xc32/v1.40/bin/bin/../../lib/gcc/pic32mx/4.8.3/../../../../pic32mx/lib\libpic32.a(vector28.o)
 .reginfo       0x00000000       0x18 c:/program files (x86)/microchip/xc32/v1.40/bin/bin/../../lib/gcc/pic32mx/4.8.3/../../../../pic32mx/lib\libpic32.a(vector28.o)
 .text          0x00000000        0x0 c:/program files (x86)/microchip/xc32/v1.40/bin/bin/../../lib/gcc/pic32mx/4.8.3/../../../../pic32mx/lib\libpic32.a(vector29.o)
 .data          0x00000000        0x0 c:/program files (x86)/microchip/xc32/v1.40/bin/bin/../../lib/gcc/pic32mx/4.8.3/../../../../pic32mx/lib\libpic32.a(vector29.o)
 .bss           0x00000000        0x0 c:/program files (x86)/microchip/xc32/v1.40/bin/bin/../../lib/gcc/pic32mx/4.8.3/../../../../pic32mx/lib\libpic32.a(vector29.o)
 .reginfo       0x00000000       0x18 c:/program files (x86)/microchip/xc32/v1.40/bin/bin/../../lib/gcc/pic32mx/4.8.3/../../../../pic32mx/lib\libpic32.a(vector29.o)
 .text          0x00000000        0x0 c:/program files (x86)/microchip/xc32/v1.40/bin/bin/../../lib/gcc/pic32mx/4.8.3/../../../../pic32mx/lib\libpic32.a(vector30.o)
 .data          0x00000000        0x0 c:/program files (x86)/microchip/xc32/v1.40/bin/bin/../../lib/gcc/pic32mx/4.8.3/../../../../pic32mx/lib\libpic32.a(vector30.o)
 .bss           0x00000000        0x0 c:/program files (x86)/microchip/xc32/v1.40/bin/bin/../../lib/gcc/pic32mx/4.8.3/../../../../pic32mx/lib\libpic32.a(vector30.o)
 .reginfo       0x00000000       0x18 c:/program files (x86)/microchip/xc32/v1.40/bin/bin/../../lib/gcc/pic32mx/4.8.3/../../../../pic32mx/lib\libpic32.a(vector30.o)
 .text          0x00000000        0x0 c:/program files (x86)/microchip/xc32/v1.40/bin/bin/../../lib/gcc/pic32mx/4.8.3/../../../../pic32mx/lib\libpic32.a(vector31.o)
 .data          0x00000000        0x0 c:/program files (x86)/microchip/xc32/v1.40/bin/bin/../../lib/gcc/pic32mx/4.8.3/../../../../pic32mx/lib\libpic32.a(vector31.o)
 .bss           0x00000000        0x0 c:/program files (x86)/microchip/xc32/v1.40/bin/bin/../../lib/gcc/pic32mx/4.8.3/../../../../pic32mx/lib\libpic32.a(vector31.o)
 .reginfo       0x00000000       0x18 c:/program files (x86)/microchip/xc32/v1.40/bin/bin/../../lib/gcc/pic32mx/4.8.3/../../../../pic32mx/lib\libpic32.a(vector31.o)
 .text          0x00000000        0x0 c:/program files (x86)/microchip/xc32/v1.40/bin/bin/../../lib/gcc/pic32mx/4.8.3/../../../../pic32mx/lib\libpic32.a(vector32.o)
 .data          0x00000000        0x0 c:/program files (x86)/microchip/xc32/v1.40/bin/bin/../../lib/gcc/pic32mx/4.8.3/../../../../pic32mx/lib\libpic32.a(vector32.o)
 .bss           0x00000000        0x0 c:/program files (x86)/microchip/xc32/v1.40/bin/bin/../../lib/gcc/pic32mx/4.8.3/../../../../pic32mx/lib\libpic32.a(vector32.o)
 .reginfo       0x00000000       0x18 c:/program files (x86)/microchip/xc32/v1.40/bin/bin/../../lib/gcc/pic32mx/4.8.3/../../../../pic32mx/lib\libpic32.a(vector32.o)
 .text          0x00000000        0x0 c:/program files (x86)/microchip/xc32/v1.40/bin/bin/../../lib/gcc/pic32mx/4.8.3/../../../../pic32mx/lib\libpic32.a(vector33.o)
 .data          0x00000000        0x0 c:/program files (x86)/microchip/xc32/v1.40/bin/bin/../../lib/gcc/pic32mx/4.8.3/../../../../pic32mx/lib\libpic32.a(vector33.o)
 .bss           0x00000000        0x0 c:/program files (x86)/microchip/xc32/v1.40/bin/bin/../../lib/gcc/pic32mx/4.8.3/../../../../pic32mx/lib\libpic32.a(vector33.o)
 .reginfo       0x00000000       0x18 c:/program files (x86)/microchip/xc32/v1.40/bin/bin/../../lib/gcc/pic32mx/4.8.3/../../../../pic32mx/lib\libpic32.a(vector33.o)
 .text          0x00000000        0x0 c:/program files (x86)/microchip/xc32/v1.40/bin/bin/../../lib/gcc/pic32mx/4.8.3/../../../../pic32mx/lib\libpic32.a(vector34.o)
 .data          0x00000000        0x0 c:/program files (x86)/microchip/xc32/v1.40/bin/bin/../../lib/gcc/pic32mx/4.8.3/../../../../pic32mx/lib\libpic32.a(vector34.o)
 .bss           0x00000000        0x0 c:/program files (x86)/microchip/xc32/v1.40/bin/bin/../../lib/gcc/pic32mx/4.8.3/../../../../pic32mx/lib\libpic32.a(vector34.o)
 .reginfo       0x00000000       0x18 c:/program files (x86)/microchip/xc32/v1.40/bin/bin/../../lib/gcc/pic32mx/4.8.3/../../../../pic32mx/lib\libpic32.a(vector34.o)
 .text          0x00000000        0x0 c:/program files (x86)/microchip/xc32/v1.40/bin/bin/../../lib/gcc/pic32mx/4.8.3/../../../../pic32mx/lib\libpic32.a(vector35.o)
 .data          0x00000000        0x0 c:/program files (x86)/microchip/xc32/v1.40/bin/bin/../../lib/gcc/pic32mx/4.8.3/../../../../pic32mx/lib\libpic32.a(vector35.o)
 .bss           0x00000000        0x0 c:/program files (x86)/microchip/xc32/v1.40/bin/bin/../../lib/gcc/pic32mx/4.8.3/../../../../pic32mx/lib\libpic32.a(vector35.o)
 .reginfo       0x00000000       0x18 c:/program files (x86)/microchip/xc32/v1.40/bin/bin/../../lib/gcc/pic32mx/4.8.3/../../../../pic32mx/lib\libpic32.a(vector35.o)
 .text          0x00000000        0x0 c:/program files (x86)/microchip/xc32/v1.40/bin/bin/../../lib/gcc/pic32mx/4.8.3/../../../../pic32mx/lib\libpic32.a(vector36.o)
 .data          0x00000000        0x0 c:/program files (x86)/microchip/xc32/v1.40/bin/bin/../../lib/gcc/pic32mx/4.8.3/../../../../pic32mx/lib\libpic32.a(vector36.o)
 .bss           0x00000000        0x0 c:/program files (x86)/microchip/xc32/v1.40/bin/bin/../../lib/gcc/pic32mx/4.8.3/../../../../pic32mx/lib\libpic32.a(vector36.o)
 .reginfo       0x00000000       0x18 c:/program files (x86)/microchip/xc32/v1.40/bin/bin/../../lib/gcc/pic32mx/4.8.3/../../../../pic32mx/lib\libpic32.a(vector36.o)
 .text          0x00000000        0x0 c:/program files (x86)/microchip/xc32/v1.40/bin/bin/../../lib/gcc/pic32mx/4.8.3/../../../../pic32mx/lib\libpic32.a(vector37.o)
 .data          0x00000000        0x0 c:/program files (x86)/microchip/xc32/v1.40/bin/bin/../../lib/gcc/pic32mx/4.8.3/../../../../pic32mx/lib\libpic32.a(vector37.o)
 .bss           0x00000000        0x0 c:/program files (x86)/microchip/xc32/v1.40/bin/bin/../../lib/gcc/pic32mx/4.8.3/../../../../pic32mx/lib\libpic32.a(vector37.o)
 .reginfo       0x00000000       0x18 c:/program files (x86)/microchip/xc32/v1.40/bin/bin/../../lib/gcc/pic32mx/4.8.3/../../../../pic32mx/lib\libpic32.a(vector37.o)
 .text          0x00000000        0x0 c:/program files (x86)/microchip/xc32/v1.40/bin/bin/../../lib/gcc/pic32mx/4.8.3/../../../../pic32mx/lib\libpic32.a(vector38.o)
 .data          0x00000000        0x0 c:/program files (x86)/microchip/xc32/v1.40/bin/bin/../../lib/gcc/pic32mx/4.8.3/../../../../pic32mx/lib\libpic32.a(vector38.o)
 .bss           0x00000000        0x0 c:/program files (x86)/microchip/xc32/v1.40/bin/bin/../../lib/gcc/pic32mx/4.8.3/../../../../pic32mx/lib\libpic32.a(vector38.o)
 .reginfo       0x00000000       0x18 c:/program files (x86)/microchip/xc32/v1.40/bin/bin/../../lib/gcc/pic32mx/4.8.3/../../../../pic32mx/lib\libpic32.a(vector38.o)
 .text          0x00000000        0x0 c:/program files (x86)/microchip/xc32/v1.40/bin/bin/../../lib/gcc/pic32mx/4.8.3/../../../../pic32mx/lib\libpic32.a(vector39.o)
 .data          0x00000000        0x0 c:/program files (x86)/microchip/xc32/v1.40/bin/bin/../../lib/gcc/pic32mx/4.8.3/../../../../pic32mx/lib\libpic32.a(vector39.o)
 .bss           0x00000000        0x0 c:/program files (x86)/microchip/xc32/v1.40/bin/bin/../../lib/gcc/pic32mx/4.8.3/../../../../pic32mx/lib\libpic32.a(vector39.o)
 .reginfo       0x00000000       0x18 c:/program files (x86)/microchip/xc32/v1.40/bin/bin/../../lib/gcc/pic32mx/4.8.3/../../../../pic32mx/lib\libpic32.a(vector39.o)
 .text          0x00000000        0x0 c:/program files (x86)/microchip/xc32/v1.40/bin/bin/../../lib/gcc/pic32mx/4.8.3/../../../../pic32mx/lib\libpic32.a(vector40.o)
 .data          0x00000000        0x0 c:/program files (x86)/microchip/xc32/v1.40/bin/bin/../../lib/gcc/pic32mx/4.8.3/../../../../pic32mx/lib\libpic32.a(vector40.o)
 .bss           0x00000000        0x0 c:/program files (x86)/microchip/xc32/v1.40/bin/bin/../../lib/gcc/pic32mx/4.8.3/../../../../pic32mx/lib\libpic32.a(vector40.o)
 .reginfo       0x00000000       0x18 c:/program files (x86)/microchip/xc32/v1.40/bin/bin/../../lib/gcc/pic32mx/4.8.3/../../../../pic32mx/lib\libpic32.a(vector40.o)
 .text          0x00000000        0x0 c:/program files (x86)/microchip/xc32/v1.40/bin/bin/../../lib/gcc/pic32mx/4.8.3/../../../../pic32mx/lib\libpic32.a(vector41.o)
 .data          0x00000000        0x0 c:/program files (x86)/microchip/xc32/v1.40/bin/bin/../../lib/gcc/pic32mx/4.8.3/../../../../pic32mx/lib\libpic32.a(vector41.o)
 .bss           0x00000000        0x0 c:/program files (x86)/microchip/xc32/v1.40/bin/bin/../../lib/gcc/pic32mx/4.8.3/../../../../pic32mx/lib\libpic32.a(vector41.o)
 .reginfo       0x00000000       0x18 c:/program files (x86)/microchip/xc32/v1.40/bin/bin/../../lib/gcc/pic32mx/4.8.3/../../../../pic32mx/lib\libpic32.a(vector41.o)
 .text          0x00000000        0x0 c:/program files (x86)/microchip/xc32/v1.40/bin/bin/../../lib/gcc/pic32mx/4.8.3/../../../../pic32mx/lib\libpic32.a(vector42.o)
 .data          0x00000000        0x0 c:/program files (x86)/microchip/xc32/v1.40/bin/bin/../../lib/gcc/pic32mx/4.8.3/../../../../pic32mx/lib\libpic32.a(vector42.o)
 .bss           0x00000000        0x0 c:/program files (x86)/microchip/xc32/v1.40/bin/bin/../../lib/gcc/pic32mx/4.8.3/../../../../pic32mx/lib\libpic32.a(vector42.o)
 .reginfo       0x00000000       0x18 c:/program files (x86)/microchip/xc32/v1.40/bin/bin/../../lib/gcc/pic32mx/4.8.3/../../../../pic32mx/lib\libpic32.a(vector42.o)
 .text          0x00000000        0x0 c:/program files (x86)/microchip/xc32/v1.40/bin/bin/../../lib/gcc/pic32mx/4.8.3/../../../../pic32mx/lib\libpic32.a(vector43.o)
 .data          0x00000000        0x0 c:/program files (x86)/microchip/xc32/v1.40/bin/bin/../../lib/gcc/pic32mx/4.8.3/../../../../pic32mx/lib\libpic32.a(vector43.o)
 .bss           0x00000000        0x0 c:/program files (x86)/microchip/xc32/v1.40/bin/bin/../../lib/gcc/pic32mx/4.8.3/../../../../pic32mx/lib\libpic32.a(vector43.o)
 .reginfo       0x00000000       0x18 c:/program files (x86)/microchip/xc32/v1.40/bin/bin/../../lib/gcc/pic32mx/4.8.3/../../../../pic32mx/lib\libpic32.a(vector43.o)
 .text          0x00000000        0x0 c:/program files (x86)/microchip/xc32/v1.40/bin/bin/../../lib/gcc/pic32mx/4.8.3/../../../../pic32mx/lib\libpic32.a(vector46.o)
 .data          0x00000000        0x0 c:/program files (x86)/microchip/xc32/v1.40/bin/bin/../../lib/gcc/pic32mx/4.8.3/../../../../pic32mx/lib\libpic32.a(vector46.o)
 .bss           0x00000000        0x0 c:/program files (x86)/microchip/xc32/v1.40/bin/bin/../../lib/gcc/pic32mx/4.8.3/../../../../pic32mx/lib\libpic32.a(vector46.o)
 .reginfo       0x00000000       0x18 c:/program files (x86)/microchip/xc32/v1.40/bin/bin/../../lib/gcc/pic32mx/4.8.3/../../../../pic32mx/lib\libpic32.a(vector46.o)
 .text          0x00000000        0x0 c:/program files (x86)/microchip/xc32/v1.40/bin/bin/../../lib/gcc/pic32mx/4.8.3/../../../../pic32mx/lib\libpic32.a(vector47.o)
 .data          0x00000000        0x0 c:/program files (x86)/microchip/xc32/v1.40/bin/bin/../../lib/gcc/pic32mx/4.8.3/../../../../pic32mx/lib\libpic32.a(vector47.o)
 .bss           0x00000000        0x0 c:/program files (x86)/microchip/xc32/v1.40/bin/bin/../../lib/gcc/pic32mx/4.8.3/../../../../pic32mx/lib\libpic32.a(vector47.o)
 .reginfo       0x00000000       0x18 c:/program files (x86)/microchip/xc32/v1.40/bin/bin/../../lib/gcc/pic32mx/4.8.3/../../../../pic32mx/lib\libpic32.a(vector47.o)
 .text          0x00000000        0x0 c:/program files (x86)/microchip/xc32/v1.40/bin/bin/../../lib/gcc/pic32mx/4.8.3/../../../../pic32mx/lib\libpic32.a(vector49.o)
 .data          0x00000000        0x0 c:/program files (x86)/microchip/xc32/v1.40/bin/bin/../../lib/gcc/pic32mx/4.8.3/../../../../pic32mx/lib\libpic32.a(vector49.o)
 .bss           0x00000000        0x0 c:/program files (x86)/microchip/xc32/v1.40/bin/bin/../../lib/gcc/pic32mx/4.8.3/../../../../pic32mx/lib\libpic32.a(vector49.o)
 .reginfo       0x00000000       0x18 c:/program files (x86)/microchip/xc32/v1.40/bin/bin/../../lib/gcc/pic32mx/4.8.3/../../../../pic32mx/lib\libpic32.a(vector49.o)
 .text          0x00000000        0x0 c:/program files (x86)/microchip/xc32/v1.40/bin/bin/../../lib/gcc/pic32mx/4.8.3/../../../../pic32mx/lib\libpic32.a(vector50.o)
 .data          0x00000000        0x0 c:/program files (x86)/microchip/xc32/v1.40/bin/bin/../../lib/gcc/pic32mx/4.8.3/../../../../pic32mx/lib\libpic32.a(vector50.o)
 .bss           0x00000000        0x0 c:/program files (x86)/microchip/xc32/v1.40/bin/bin/../../lib/gcc/pic32mx/4.8.3/../../../../pic32mx/lib\libpic32.a(vector50.o)
 .reginfo       0x00000000       0x18 c:/program files (x86)/microchip/xc32/v1.40/bin/bin/../../lib/gcc/pic32mx/4.8.3/../../../../pic32mx/lib\libpic32.a(vector50.o)
 .text          0x00000000        0x0 c:/program files (x86)/microchip/xc32/v1.40/bin/bin/../../lib/gcc/pic32mx/4.8.3/../../../../pic32mx/lib\libpic32.a(vector51.o)
 .data          0x00000000        0x0 c:/program files (x86)/microchip/xc32/v1.40/bin/bin/../../lib/gcc/pic32mx/4.8.3/../../../../pic32mx/lib\libpic32.a(vector51.o)
 .bss           0x00000000        0x0 c:/program files (x86)/microchip/xc32/v1.40/bin/bin/../../lib/gcc/pic32mx/4.8.3/../../../../pic32mx/lib\libpic32.a(vector51.o)
 .reginfo       0x00000000       0x18 c:/program files (x86)/microchip/xc32/v1.40/bin/bin/../../lib/gcc/pic32mx/4.8.3/../../../../pic32mx/lib\libpic32.a(vector51.o)
 .text          0x00000000        0x0 c:/program files (x86)/microchip/xc32/v1.40/bin/bin/../../lib/gcc/pic32mx/4.8.3/../../../../pic32mx/lib\libpic32.a(defaultinterrupt.o)
 .data          0x00000000        0x0 c:/program files (x86)/microchip/xc32/v1.40/bin/bin/../../lib/gcc/pic32mx/4.8.3/../../../../pic32mx/lib\libpic32.a(defaultinterrupt.o)
 .bss           0x00000000        0x0 c:/program files (x86)/microchip/xc32/v1.40/bin/bin/../../lib/gcc/pic32mx/4.8.3/../../../../pic32mx/lib\libpic32.a(defaultinterrupt.o)
 .reginfo       0x00000000       0x18 c:/program files (x86)/microchip/xc32/v1.40/bin/bin/../../lib/gcc/pic32mx/4.8.3/../../../../pic32mx/lib\libpic32.a(defaultinterrupt.o)
 .text          0x00000000        0x0 c:/program files (x86)/microchip/xc32/v1.40/bin/bin/../../lib/gcc/pic32mx/4.8.3/../../../../pic32mx/lib\libm.a(fp32div.o)
 .data          0x00000000        0x0 c:/program files (x86)/microchip/xc32/v1.40/bin/bin/../../lib/gcc/pic32mx/4.8.3/../../../../pic32mx/lib\libm.a(fp32div.o)
 .bss           0x00000000        0x0 c:/program files (x86)/microchip/xc32/v1.40/bin/bin/../../lib/gcc/pic32mx/4.8.3/../../../../pic32mx/lib\libm.a(fp32div.o)
 .reginfo       0x00000000       0x18 c:/program files (x86)/microchip/xc32/v1.40/bin/bin/../../lib/gcc/pic32mx/4.8.3/../../../../pic32mx/lib\libm.a(fp32div.o)
 .text          0x00000000        0x0 c:/program files (x86)/microchip/xc32/v1.40/bin/bin/../../lib/gcc/pic32mx/4.8.3/../../../../pic32mx/lib\libm.a(fp32mul.o)
 .data          0x00000000        0x0 c:/program files (x86)/microchip/xc32/v1.40/bin/bin/../../lib/gcc/pic32mx/4.8.3/../../../../pic32mx/lib\libm.a(fp32mul.o)
 .bss           0x00000000        0x0 c:/program files (x86)/microchip/xc32/v1.40/bin/bin/../../lib/gcc/pic32mx/4.8.3/../../../../pic32mx/lib\libm.a(fp32mul.o)
 .reginfo       0x00000000       0x18 c:/program files (x86)/microchip/xc32/v1.40/bin/bin/../../lib/gcc/pic32mx/4.8.3/../../../../pic32mx/lib\libm.a(fp32mul.o)
 .text          0x00000000        0x0 c:/program files (x86)/microchip/xc32/v1.40/bin/bin/../../lib/gcc/pic32mx/4.8.3/../../../../pic32mx/lib\libm.a(fp32subadd.o)
 .data          0x00000000        0x0 c:/program files (x86)/microchip/xc32/v1.40/bin/bin/../../lib/gcc/pic32mx/4.8.3/../../../../pic32mx/lib\libm.a(fp32subadd.o)
 .bss           0x00000000        0x0 c:/program files (x86)/microchip/xc32/v1.40/bin/bin/../../lib/gcc/pic32mx/4.8.3/../../../../pic32mx/lib\libm.a(fp32subadd.o)
 .reginfo       0x00000000       0x18 c:/program files (x86)/microchip/xc32/v1.40/bin/bin/../../lib/gcc/pic32mx/4.8.3/../../../../pic32mx/lib\libm.a(fp32subadd.o)
 .text          0x00000000        0x0 c:/program files (x86)/microchip/xc32/v1.40/bin/bin/../../lib/gcc/pic32mx/4.8.3/../../../../pic32mx/lib\libm.a(fptoli.o)
 .data          0x00000000        0x0 c:/program files (x86)/microchip/xc32/v1.40/bin/bin/../../lib/gcc/pic32mx/4.8.3/../../../../pic32mx/lib\libm.a(fptoli.o)
 .bss           0x00000000        0x0 c:/program files (x86)/microchip/xc32/v1.40/bin/bin/../../lib/gcc/pic32mx/4.8.3/../../../../pic32mx/lib\libm.a(fptoli.o)
 .reginfo       0x00000000       0x18 c:/program files (x86)/microchip/xc32/v1.40/bin/bin/../../lib/gcc/pic32mx/4.8.3/../../../../pic32mx/lib\libm.a(fptoli.o)
 .text          0x00000000        0x0 c:/program files (x86)/microchip/xc32/v1.40/bin/bin/../../lib/gcc/pic32mx/4.8.3/../../../../pic32mx/lib\libm.a(sitofp.o)
 .data          0x00000000        0x0 c:/program files (x86)/microchip/xc32/v1.40/bin/bin/../../lib/gcc/pic32mx/4.8.3/../../../../pic32mx/lib\libm.a(sitofp.o)
 .bss           0x00000000        0x0 c:/program files (x86)/microchip/xc32/v1.40/bin/bin/../../lib/gcc/pic32mx/4.8.3/../../../../pic32mx/lib\libm.a(sitofp.o)
 .reginfo       0x00000000       0x18 c:/program files (x86)/microchip/xc32/v1.40/bin/bin/../../lib/gcc/pic32mx/4.8.3/../../../../pic32mx/lib\libm.a(sitofp.o)
 .text          0x00000000        0x0 c:/program files (x86)/microchip/xc32/v1.40/bin/bin/../../lib/gcc/pic32mx/4.8.3/../../../../pic32mx/lib\libc.a(atoi.o)
 .data          0x00000000        0x0 c:/program files (x86)/microchip/xc32/v1.40/bin/bin/../../lib/gcc/pic32mx/4.8.3/../../../../pic32mx/lib\libc.a(atoi.o)
 .bss           0x00000000        0x0 c:/program files (x86)/microchip/xc32/v1.40/bin/bin/../../lib/gcc/pic32mx/4.8.3/../../../../pic32mx/lib\libc.a(atoi.o)
 .reginfo       0x00000000       0x18 c:/program files (x86)/microchip/xc32/v1.40/bin/bin/../../lib/gcc/pic32mx/4.8.3/../../../../pic32mx/lib\libc.a(atoi.o)
 .text          0x00000000        0x0 c:/program files (x86)/microchip/xc32/v1.40/bin/bin/../../lib/gcc/pic32mx/4.8.3/../../../../pic32mx/lib\libc.a(atol.o)
 .data          0x00000000        0x0 c:/program files (x86)/microchip/xc32/v1.40/bin/bin/../../lib/gcc/pic32mx/4.8.3/../../../../pic32mx/lib\libc.a(atol.o)
 .bss           0x00000000        0x0 c:/program files (x86)/microchip/xc32/v1.40/bin/bin/../../lib/gcc/pic32mx/4.8.3/../../../../pic32mx/lib\libc.a(atol.o)
 .reginfo       0x00000000       0x18 c:/program files (x86)/microchip/xc32/v1.40/bin/bin/../../lib/gcc/pic32mx/4.8.3/../../../../pic32mx/lib\libc.a(atol.o)
 .text          0x00000000        0x0 c:/program files (x86)/microchip/xc32/v1.40/bin/bin/../../lib/gcc/pic32mx/4.8.3/../../../../pic32mx/lib\libc.a(ctype.o)
 .data          0x00000000        0x0 c:/program files (x86)/microchip/xc32/v1.40/bin/bin/../../lib/gcc/pic32mx/4.8.3/../../../../pic32mx/lib\libc.a(ctype.o)
 .bss           0x00000000        0x0 c:/program files (x86)/microchip/xc32/v1.40/bin/bin/../../lib/gcc/pic32mx/4.8.3/../../../../pic32mx/lib\libc.a(ctype.o)
 .reginfo       0x00000000       0x18 c:/program files (x86)/microchip/xc32/v1.40/bin/bin/../../lib/gcc/pic32mx/4.8.3/../../../../pic32mx/lib\libc.a(ctype.o)
 .text          0x00000000        0x0 c:/program files (x86)/microchip/xc32/v1.40/bin/bin/../../lib/gcc/pic32mx/4.8.3/../../../../pic32mx/lib\libc.a(malloc.o)
 .data          0x00000000        0x0 c:/program files (x86)/microchip/xc32/v1.40/bin/bin/../../lib/gcc/pic32mx/4.8.3/../../../../pic32mx/lib\libc.a(malloc.o)
 .reginfo       0x00000000       0x18 c:/program files (x86)/microchip/xc32/v1.40/bin/bin/../../lib/gcc/pic32mx/4.8.3/../../../../pic32mx/lib\libc.a(malloc.o)
 .text.realloc  0x00000000      0x14c c:/program files (x86)/microchip/xc32/v1.40/bin/bin/../../lib/gcc/pic32mx/4.8.3/../../../../pic32mx/lib\libc.a(malloc.o)
 .text          0x00000000        0x0 c:/program files (x86)/microchip/xc32/v1.40/bin/bin/../../lib/gcc/pic32mx/4.8.3/../../../../pic32mx/lib\libc.a(rand.o)
 .data          0x00000000        0x0 c:/program files (x86)/microchip/xc32/v1.40/bin/bin/../../lib/gcc/pic32mx/4.8.3/../../../../pic32mx/lib\libc.a(rand.o)
 .reginfo       0x00000000       0x18 c:/program files (x86)/microchip/xc32/v1.40/bin/bin/../../lib/gcc/pic32mx/4.8.3/../../../../pic32mx/lib\libc.a(rand.o)
 .text          0x00000000        0x0 c:/program files (x86)/microchip/xc32/v1.40/bin/bin/../../lib/gcc/pic32mx/4.8.3/../../../../pic32mx/lib\libc.a(strcat.o)
 .data          0x00000000        0x0 c:/program files (x86)/microchip/xc32/v1.40/bin/bin/../../lib/gcc/pic32mx/4.8.3/../../../../pic32mx/lib\libc.a(strcat.o)
 .bss           0x00000000        0x0 c:/program files (x86)/microchip/xc32/v1.40/bin/bin/../../lib/gcc/pic32mx/4.8.3/../../../../pic32mx/lib\libc.a(strcat.o)
 .reginfo       0x00000000       0x18 c:/program files (x86)/microchip/xc32/v1.40/bin/bin/../../lib/gcc/pic32mx/4.8.3/../../../../pic32mx/lib\libc.a(strcat.o)
 .text.strcat   0x00000000       0x44 c:/program files (x86)/microchip/xc32/v1.40/bin/bin/../../lib/gcc/pic32mx/4.8.3/../../../../pic32mx/lib\libc.a(strcat.o)
 .text          0x00000000        0x0 c:/program files (x86)/microchip/xc32/v1.40/bin/bin/../../lib/gcc/pic32mx/4.8.3/../../../../pic32mx/lib\libc.a(strncat.o)
 .data          0x00000000        0x0 c:/program files (x86)/microchip/xc32/v1.40/bin/bin/../../lib/gcc/pic32mx/4.8.3/../../../../pic32mx/lib\libc.a(strncat.o)
 .bss           0x00000000        0x0 c:/program files (x86)/microchip/xc32/v1.40/bin/bin/../../lib/gcc/pic32mx/4.8.3/../../../../pic32mx/lib\libc.a(strncat.o)
 .reginfo       0x00000000       0x18 c:/program files (x86)/microchip/xc32/v1.40/bin/bin/../../lib/gcc/pic32mx/4.8.3/../../../../pic32mx/lib\libc.a(strncat.o)
 .text          0x00000000        0x0 c:/program files (x86)/microchip/xc32/v1.40/bin/bin/../../lib/gcc/pic32mx/4.8.3/../../../../pic32mx/lib\libc.a(strncmp.o)
 .data          0x00000000        0x0 c:/program files (x86)/microchip/xc32/v1.40/bin/bin/../../lib/gcc/pic32mx/4.8.3/../../../../pic32mx/lib\libc.a(strncmp.o)
 .bss           0x00000000        0x0 c:/program files (x86)/microchip/xc32/v1.40/bin/bin/../../lib/gcc/pic32mx/4.8.3/../../../../pic32mx/lib\libc.a(strncmp.o)
 .reginfo       0x00000000       0x18 c:/program files (x86)/microchip/xc32/v1.40/bin/bin/../../lib/gcc/pic32mx/4.8.3/../../../../pic32mx/lib\libc.a(strncmp.o)
 .text          0x00000000        0x0 c:/program files (x86)/microchip/xc32/v1.40/bin/bin/../../lib/gcc/pic32mx/4.8.3/../../../../pic32mx/lib\libc.a(strncpy.o)
 .data          0x00000000        0x0 c:/program files (x86)/microchip/xc32/v1.40/bin/bin/../../lib/gcc/pic32mx/4.8.3/../../../../pic32mx/lib\libc.a(strncpy.o)
 .bss           0x00000000        0x0 c:/program files (x86)/microchip/xc32/v1.40/bin/bin/../../lib/gcc/pic32mx/4.8.3/../../../../pic32mx/lib\libc.a(strncpy.o)
 .reginfo       0x00000000       0x18 c:/program files (x86)/microchip/xc32/v1.40/bin/bin/../../lib/gcc/pic32mx/4.8.3/../../../../pic32mx/lib\libc.a(strncpy.o)
 .text          0x00000000        0x0 c:/program files (x86)/microchip/xc32/v1.40/bin/bin/../../lib/gcc/pic32mx/4.8.3/../../../../pic32mx/lib\libc.a(strtol.o)
 .data          0x00000000        0x0 c:/program files (x86)/microchip/xc32/v1.40/bin/bin/../../lib/gcc/pic32mx/4.8.3/../../../../pic32mx/lib\libc.a(strtol.o)
 .bss           0x00000000        0x0 c:/program files (x86)/microchip/xc32/v1.40/bin/bin/../../lib/gcc/pic32mx/4.8.3/../../../../pic32mx/lib\libc.a(strtol.o)
 .reginfo       0x00000000       0x18 c:/program files (x86)/microchip/xc32/v1.40/bin/bin/../../lib/gcc/pic32mx/4.8.3/../../../../pic32mx/lib\libc.a(strtol.o)
 .text          0x00000000        0x0 c:/program files (x86)/microchip/xc32/v1.40/bin/bin/../../lib/gcc/pic32mx/4.8.3/../../../../pic32mx/lib\libc.a(sprintf_cdnopsuxX.eo)
 .data          0x00000000        0x0 c:/program files (x86)/microchip/xc32/v1.40/bin/bin/../../lib/gcc/pic32mx/4.8.3/../../../../pic32mx/lib\libc.a(sprintf_cdnopsuxX.eo)
 .bss           0x00000000        0x0 c:/program files (x86)/microchip/xc32/v1.40/bin/bin/../../lib/gcc/pic32mx/4.8.3/../../../../pic32mx/lib\libc.a(sprintf_cdnopsuxX.eo)
 .reginfo       0x00000000       0x18 c:/program files (x86)/microchip/xc32/v1.40/bin/bin/../../lib/gcc/pic32mx/4.8.3/../../../../pic32mx/lib\libc.a(sprintf_cdnopsuxX.eo)
 .text          0x00000000        0x0 c:/program files (x86)/microchip/xc32/v1.40/bin/bin/../../lib/gcc/pic32mx/4.8.3/../../../../pic32mx/lib\libc.a(vsnprintf.o)
 .data          0x00000000        0x0 c:/program files (x86)/microchip/xc32/v1.40/bin/bin/../../lib/gcc/pic32mx/4.8.3/../../../../pic32mx/lib\libc.a(vsnprintf.o)
 .bss           0x00000000        0x0 c:/program files (x86)/microchip/xc32/v1.40/bin/bin/../../lib/gcc/pic32mx/4.8.3/../../../../pic32mx/lib\libc.a(vsnprintf.o)
 .reginfo       0x00000000       0x18 c:/program files (x86)/microchip/xc32/v1.40/bin/bin/../../lib/gcc/pic32mx/4.8.3/../../../../pic32mx/lib\libc.a(vsnprintf.o)
 .text          0x00000000        0x0 c:/program files (x86)/microchip/xc32/v1.40/bin/bin/../../lib/gcc/pic32mx/4.8.3/../../../../pic32mx/lib\libc.a(ctypef.o)
 .data          0x00000000        0x0 c:/program files (x86)/microchip/xc32/v1.40/bin/bin/../../lib/gcc/pic32mx/4.8.3/../../../../pic32mx/lib\libc.a(ctypef.o)
 .bss           0x00000000        0x0 c:/program files (x86)/microchip/xc32/v1.40/bin/bin/../../lib/gcc/pic32mx/4.8.3/../../../../pic32mx/lib\libc.a(ctypef.o)
 .reginfo       0x00000000       0x18 c:/program files (x86)/microchip/xc32/v1.40/bin/bin/../../lib/gcc/pic32mx/4.8.3/../../../../pic32mx/lib\libc.a(ctypef.o)
 .text.tolower  0x00000000       0x24 c:/program files (x86)/microchip/xc32/v1.40/bin/bin/../../lib/gcc/pic32mx/4.8.3/../../../../pic32mx/lib\libc.a(ctypef.o)
 .text.isalnum  0x00000000       0x18 c:/program files (x86)/microchip/xc32/v1.40/bin/bin/../../lib/gcc/pic32mx/4.8.3/../../../../pic32mx/lib\libc.a(ctypef.o)
 .text.isalpha  0x00000000       0x18 c:/program files (x86)/microchip/xc32/v1.40/bin/bin/../../lib/gcc/pic32mx/4.8.3/../../../../pic32mx/lib\libc.a(ctypef.o)
 .text.isascii  0x00000000        0x8 c:/program files (x86)/microchip/xc32/v1.40/bin/bin/../../lib/gcc/pic32mx/4.8.3/../../../../pic32mx/lib\libc.a(ctypef.o)
 .text.iscntrl  0x00000000       0x18 c:/program files (x86)/microchip/xc32/v1.40/bin/bin/../../lib/gcc/pic32mx/4.8.3/../../../../pic32mx/lib\libc.a(ctypef.o)
 .text.isdigit  0x00000000       0x18 c:/program files (x86)/microchip/xc32/v1.40/bin/bin/../../lib/gcc/pic32mx/4.8.3/../../../../pic32mx/lib\libc.a(ctypef.o)
 .text.isgraph  0x00000000       0x18 c:/program files (x86)/microchip/xc32/v1.40/bin/bin/../../lib/gcc/pic32mx/4.8.3/../../../../pic32mx/lib\libc.a(ctypef.o)
 .text.islower  0x00000000       0x18 c:/program files (x86)/microchip/xc32/v1.40/bin/bin/../../lib/gcc/pic32mx/4.8.3/../../../../pic32mx/lib\libc.a(ctypef.o)
 .text.isprint  0x00000000       0x18 c:/program files (x86)/microchip/xc32/v1.40/bin/bin/../../lib/gcc/pic32mx/4.8.3/../../../../pic32mx/lib\libc.a(ctypef.o)
 .text.ispunct  0x00000000       0x18 c:/program files (x86)/microchip/xc32/v1.40/bin/bin/../../lib/gcc/pic32mx/4.8.3/../../../../pic32mx/lib\libc.a(ctypef.o)
 .text.isspace  0x00000000       0x18 c:/program files (x86)/microchip/xc32/v1.40/bin/bin/../../lib/gcc/pic32mx/4.8.3/../../../../pic32mx/lib\libc.a(ctypef.o)
 .text.isupper  0x00000000       0x18 c:/program files (x86)/microchip/xc32/v1.40/bin/bin/../../lib/gcc/pic32mx/4.8.3/../../../../pic32mx/lib\libc.a(ctypef.o)
 .text.isxdigit
                0x00000000       0x18 c:/program files (x86)/microchip/xc32/v1.40/bin/bin/../../lib/gcc/pic32mx/4.8.3/../../../../pic32mx/lib\libc.a(ctypef.o)
 .text.toascii  0x00000000        0x8 c:/program files (x86)/microchip/xc32/v1.40/bin/bin/../../lib/gcc/pic32mx/4.8.3/../../../../pic32mx/lib\libc.a(ctypef.o)
 .text._tolower
                0x00000000        0x8 c:/program files (x86)/microchip/xc32/v1.40/bin/bin/../../lib/gcc/pic32mx/4.8.3/../../../../pic32mx/lib\libc.a(ctypef.o)
 .text._toupper
                0x00000000        0x8 c:/program files (x86)/microchip/xc32/v1.40/bin/bin/../../lib/gcc/pic32mx/4.8.3/../../../../pic32mx/lib\libc.a(ctypef.o)
 .text          0x00000000        0x0 c:/program files (x86)/microchip/xc32/v1.40/bin/bin/../../lib/gcc/pic32mx/4.8.3/../../../../pic32mx/lib\libc.a(errno.o)
 .data          0x00000000        0x0 c:/program files (x86)/microchip/xc32/v1.40/bin/bin/../../lib/gcc/pic32mx/4.8.3/../../../../pic32mx/lib\libc.a(errno.o)
 .bss           0x00000000        0x0 c:/program files (x86)/microchip/xc32/v1.40/bin/bin/../../lib/gcc/pic32mx/4.8.3/../../../../pic32mx/lib\libc.a(errno.o)
 .reginfo       0x00000000       0x18 c:/program files (x86)/microchip/xc32/v1.40/bin/bin/../../lib/gcc/pic32mx/4.8.3/../../../../pic32mx/lib\libc.a(errno.o)
 .text          0x00000000        0x0 c:/program files (x86)/microchip/xc32/v1.40/bin/bin/../../lib/gcc/pic32mx/4.8.3/../../../../pic32mx/lib\libc.a(doprnt_cdnopsuxX.eo)
 .data          0x00000000        0x0 c:/program files (x86)/microchip/xc32/v1.40/bin/bin/../../lib/gcc/pic32mx/4.8.3/../../../../pic32mx/lib\libc.a(doprnt_cdnopsuxX.eo)
 .bss           0x00000000        0x0 c:/program files (x86)/microchip/xc32/v1.40/bin/bin/../../lib/gcc/pic32mx/4.8.3/../../../../pic32mx/lib\libc.a(doprnt_cdnopsuxX.eo)
 .reginfo       0x00000000       0x18 c:/program files (x86)/microchip/xc32/v1.40/bin/bin/../../lib/gcc/pic32mx/4.8.3/../../../../pic32mx/lib\libc.a(doprnt_cdnopsuxX.eo)
 .text          0x00000000        0x0 c:/program files (x86)/microchip/xc32/v1.40/bin/bin/../../lib/gcc/pic32mx/4.8.3/../../../../pic32mx/lib\libc.a(doprnt.o)
 .data          0x00000000        0x0 c:/program files (x86)/microchip/xc32/v1.40/bin/bin/../../lib/gcc/pic32mx/4.8.3/../../../../pic32mx/lib\libc.a(doprnt.o)
 .bss           0x00000000        0x0 c:/program files (x86)/microchip/xc32/v1.40/bin/bin/../../lib/gcc/pic32mx/4.8.3/../../../../pic32mx/lib\libc.a(doprnt.o)
 .reginfo       0x00000000       0x18 c:/program files (x86)/microchip/xc32/v1.40/bin/bin/../../lib/gcc/pic32mx/4.8.3/../../../../pic32mx/lib\libc.a(doprnt.o)
 .text          0x00000000        0x0 c:/program files (x86)/microchip/xc32/v1.40/bin/bin/../../lib/gcc/pic32mx/4.8.3/../../../../pic32mx/lib\libc.a(_fputc_simple.o)
 .data          0x00000000        0x0 c:/program files (x86)/microchip/xc32/v1.40/bin/bin/../../lib/gcc/pic32mx/4.8.3/../../../../pic32mx/lib\libc.a(_fputc_simple.o)
 .bss           0x00000000        0x0 c:/program files (x86)/microchip/xc32/v1.40/bin/bin/../../lib/gcc/pic32mx/4.8.3/../../../../pic32mx/lib\libc.a(_fputc_simple.o)
 .reginfo       0x00000000       0x18 c:/program files (x86)/microchip/xc32/v1.40/bin/bin/../../lib/gcc/pic32mx/4.8.3/../../../../pic32mx/lib\libc.a(_fputc_simple.o)
 .text          0x00000000        0x0 c:/program files (x86)/microchip/xc32/v1.40/bin/bin/../../lib/gcc/pic32mx/4.8.3/../../../../pic32mx/lib\libc.a(powersf.o)
 .data          0x00000000        0x0 c:/program files (x86)/microchip/xc32/v1.40/bin/bin/../../lib/gcc/pic32mx/4.8.3/../../../../pic32mx/lib\libc.a(powersf.o)
 .bss           0x00000000        0x0 c:/program files (x86)/microchip/xc32/v1.40/bin/bin/../../lib/gcc/pic32mx/4.8.3/../../../../pic32mx/lib\libc.a(powersf.o)
 .reginfo       0x00000000       0x18 c:/program files (x86)/microchip/xc32/v1.40/bin/bin/../../lib/gcc/pic32mx/4.8.3/../../../../pic32mx/lib\libc.a(powersf.o)
 .text          0x00000000        0x0 c:/program files (x86)/microchip/xc32/v1.40/bin/bin/../../lib/gcc/pic32mx/4.8.3/../../../../pic32mx/lib\libc.a(_iob.o)
 .data          0x00000000       0xa4 c:/program files (x86)/microchip/xc32/v1.40/bin/bin/../../lib/gcc/pic32mx/4.8.3/../../../../pic32mx/lib\libc.a(_iob.o)
 .reginfo       0x00000000       0x18 c:/program files (x86)/microchip/xc32/v1.40/bin/bin/../../lib/gcc/pic32mx/4.8.3/../../../../pic32mx/lib\libc.a(_iob.o)
 .text          0x00000000        0x0 c:/program files (x86)/microchip/xc32/v1.40/bin/bin/../../lib/gcc/pic32mx/4.8.3/../../../../pic32mx/lib\libc.a(_flsbuf_simple.o)
 .data          0x00000000        0x0 c:/program files (x86)/microchip/xc32/v1.40/bin/bin/../../lib/gcc/pic32mx/4.8.3/../../../../pic32mx/lib\libc.a(_flsbuf_simple.o)
 .bss           0x00000000        0x0 c:/program files (x86)/microchip/xc32/v1.40/bin/bin/../../lib/gcc/pic32mx/4.8.3/../../../../pic32mx/lib\libc.a(_flsbuf_simple.o)
 .reginfo       0x00000000       0x18 c:/program files (x86)/microchip/xc32/v1.40/bin/bin/../../lib/gcc/pic32mx/4.8.3/../../../../pic32mx/lib\libc.a(_flsbuf_simple.o)
 .text          0x00000000        0x0 c:/program files (x86)/microchip/xc32/v1.40/bin/bin/../../lib/gcc/pic32mx/4.8.3/../../../../pic32mx/lib\libpic32.a(sbrk.o)
 .data          0x00000000        0x0 c:/program files (x86)/microchip/xc32/v1.40/bin/bin/../../lib/gcc/pic32mx/4.8.3/../../../../pic32mx/lib\libpic32.a(sbrk.o)
 .reginfo       0x00000000       0x18 c:/program files (x86)/microchip/xc32/v1.40/bin/bin/../../lib/gcc/pic32mx/4.8.3/../../../../pic32mx/lib\libpic32.a(sbrk.o)
 .text.getpagesize
                0x00000000        0x8 c:/program files (x86)/microchip/xc32/v1.40/bin/bin/../../lib/gcc/pic32mx/4.8.3/../../../../pic32mx/lib\libpic32.a(sbrk.o)
 .text          0x00000000        0x0 c:/program files (x86)/microchip/xc32/v1.40/bin/bin/../../lib/gcc/pic32mx/4.8.3/../../../../pic32mx/lib\libpic32.a(write.o)
 .data          0x00000000        0x0 c:/program files (x86)/microchip/xc32/v1.40/bin/bin/../../lib/gcc/pic32mx/4.8.3/../../../../pic32mx/lib\libpic32.a(write.o)
 .bss           0x00000000        0x0 c:/program files (x86)/microchip/xc32/v1.40/bin/bin/../../lib/gcc/pic32mx/4.8.3/../../../../pic32mx/lib\libpic32.a(write.o)
 .reginfo       0x00000000       0x18 c:/program files (x86)/microchip/xc32/v1.40/bin/bin/../../lib/gcc/pic32mx/4.8.3/../../../../pic32mx/lib\libpic32.a(write.o)
 .text          0x00000000        0x0 c:/program files (x86)/microchip/xc32/v1.40/bin/bin/../../lib/gcc/pic32mx/4.8.3/../../../../pic32mx/lib\libpic32.a(_mon_putc.o)
 .data          0x00000000        0x0 c:/program files (x86)/microchip/xc32/v1.40/bin/bin/../../lib/gcc/pic32mx/4.8.3/../../../../pic32mx/lib\libpic32.a(_mon_putc.o)
 .bss           0x00000000        0x0 c:/program files (x86)/microchip/xc32/v1.40/bin/bin/../../lib/gcc/pic32mx/4.8.3/../../../../pic32mx/lib\libpic32.a(_mon_putc.o)
 .reginfo       0x00000000       0x18 c:/program files (x86)/microchip/xc32/v1.40/bin/bin/../../lib/gcc/pic32mx/4.8.3/../../../../pic32mx/lib\libpic32.a(_mon_putc.o)
 .text          0x00000000        0x0 c:/program files (x86)/microchip/xc32/v1.40/bin/bin/../../lib/gcc/pic32mx/4.8.3/../../../../pic32mx/lib\libpic32.a(xc32_uart.o)
 .data          0x00000000        0x0 c:/program files (x86)/microchip/xc32/v1.40/bin/bin/../../lib/gcc/pic32mx/4.8.3/../../../../pic32mx/lib\libpic32.a(xc32_uart.o)
 .bss           0x00000000        0x0 c:/program files (x86)/microchip/xc32/v1.40/bin/bin/../../lib/gcc/pic32mx/4.8.3/../../../../pic32mx/lib\libpic32.a(xc32_uart.o)
 .reginfo       0x00000000       0x18 c:/program files (x86)/microchip/xc32/v1.40/bin/bin/../../lib/gcc/pic32mx/4.8.3/../../../../pic32mx/lib\libpic32.a(xc32_uart.o)
 .text          0x00000000        0x0 c:/program files (x86)/microchip/xc32/v1.40/bin/bin/../../lib/gcc/pic32mx/4.8.3/../../../../pic32mx/lib\libm.a(fpcmp.o)
 .data          0x00000000        0x0 c:/program files (x86)/microchip/xc32/v1.40/bin/bin/../../lib/gcc/pic32mx/4.8.3/../../../../pic32mx/lib\libm.a(fpcmp.o)
 .bss           0x00000000        0x0 c:/program files (x86)/microchip/xc32/v1.40/bin/bin/../../lib/gcc/pic32mx/4.8.3/../../../../pic32mx/lib\libm.a(fpcmp.o)
 .reginfo       0x00000000       0x18 c:/program files (x86)/microchip/xc32/v1.40/bin/bin/../../lib/gcc/pic32mx/4.8.3/../../../../pic32mx/lib\libm.a(fpcmp.o)
 .text          0x00000000        0x0 c:/program files (x86)/microchip/xc32/v1.40/bin/bin/../../lib/gcc/pic32mx/4.8.3/../../../../pic32mx/lib\libm.a(fpfrexp.o)
 .data          0x00000000        0x0 c:/program files (x86)/microchip/xc32/v1.40/bin/bin/../../lib/gcc/pic32mx/4.8.3/../../../../pic32mx/lib\libm.a(fpfrexp.o)
 .bss           0x00000000        0x0 c:/program files (x86)/microchip/xc32/v1.40/bin/bin/../../lib/gcc/pic32mx/4.8.3/../../../../pic32mx/lib\libm.a(fpfrexp.o)
 .reginfo       0x00000000       0x18 c:/program files (x86)/microchip/xc32/v1.40/bin/bin/../../lib/gcc/pic32mx/4.8.3/../../../../pic32mx/lib\libm.a(fpfrexp.o)
 .text          0x00000000        0x0 c:/program files (x86)/microchip/xc32/v1.40/bin/bin/../../lib/gcc/pic32mx/4.8.3/../../../../pic32mx/lib\libm.a(fptoul.o)
 .data          0x00000000        0x0 c:/program files (x86)/microchip/xc32/v1.40/bin/bin/../../lib/gcc/pic32mx/4.8.3/../../../../pic32mx/lib\libm.a(fptoul.o)
 .bss           0x00000000        0x0 c:/program files (x86)/microchip/xc32/v1.40/bin/bin/../../lib/gcc/pic32mx/4.8.3/../../../../pic32mx/lib\libm.a(fptoul.o)
 .reginfo       0x00000000       0x18 c:/program files (x86)/microchip/xc32/v1.40/bin/bin/../../lib/gcc/pic32mx/4.8.3/../../../../pic32mx/lib\libm.a(fptoul.o)
 .text          0x00000000        0x0 c:/program files (x86)/microchip/xc32/v1.40/bin/bin/../../lib/gcc/pic32mx/4.8.3/../../../../pic32mx/lib\libe.a(_floatdisf.o)
 .data          0x00000000        0x0 c:/program files (x86)/microchip/xc32/v1.40/bin/bin/../../lib/gcc/pic32mx/4.8.3/../../../../pic32mx/lib\libe.a(_floatdisf.o)
 .bss           0x00000000        0x0 c:/program files (x86)/microchip/xc32/v1.40/bin/bin/../../lib/gcc/pic32mx/4.8.3/../../../../pic32mx/lib\libe.a(_floatdisf.o)
 .reginfo       0x00000000       0x18 c:/program files (x86)/microchip/xc32/v1.40/bin/bin/../../lib/gcc/pic32mx/4.8.3/../../../../pic32mx/lib\libe.a(_floatdisf.o)
 .data          0x00000000        0x0 c:/program files (x86)/microchip/xc32/v1.40/bin/bin/../../lib/gcc/pic32mx/4.8.3\libgcc.a(_umoddi3.o)
 .bss           0x00000000        0x0 c:/program files (x86)/microchip/xc32/v1.40/bin/bin/../../lib/gcc/pic32mx/4.8.3\libgcc.a(_umoddi3.o)
 .reginfo       0x00000000       0x18 c:/program files (x86)/microchip/xc32/v1.40/bin/bin/../../lib/gcc/pic32mx/4.8.3\libgcc.a(_umoddi3.o)
 .data          0x00000000        0x0 c:/program files (x86)/microchip/xc32/v1.40/bin/bin/../../lib/gcc/pic32mx/4.8.3\libgcc.a(floatunsisf.o)
 .bss           0x00000000        0x0 c:/program files (x86)/microchip/xc32/v1.40/bin/bin/../../lib/gcc/pic32mx/4.8.3\libgcc.a(floatunsisf.o)
 .reginfo       0x00000000       0x18 c:/program files (x86)/microchip/xc32/v1.40/bin/bin/../../lib/gcc/pic32mx/4.8.3\libgcc.a(floatunsisf.o)

Memory Configuration

Name             Origin             Length             Attributes
kseg0_program_mem 0x9d000000         0x00080000         xr
kseg0_boot_mem   0x9fc00490         0x00000970
exception_mem    0x9fc01000         0x00001000
kseg1_boot_mem   0xbfc00000         0x00000490
debug_exec_mem   0xbfc02000         0x00000ff0
config3          0xbfc02ff0         0x00000004
config2          0xbfc02ff4         0x00000004
config1          0xbfc02ff8         0x00000004
config0          0xbfc02ffc         0x00000004
kseg1_data_mem   0xa0000000         0x00020000         w !x
sfrs             0xbf800000         0x00100000
configsfrs       0xbfc02ff0         0x00000010
*default*        0x00000000         0xffffffff

Linker script and memory map

LOAD c:/program files (x86)/microchip/xc32/v1.40/bin/bin/../../lib/gcc/pic32mx/4.8.3/../../../../pic32mx/lib/./proc/32MX795F512L/crt0_mips32r2.o
LOAD c:/program files (x86)/microchip/xc32/v1.40/bin/bin/../../lib/gcc/pic32mx/4.8.3/../../../../pic32mx/lib\software-debug-break.o
                0x00000001                _DEBUGGER = 0x1
LOAD build/pic32mx/debug/_ext/1482089478/sys_clk_static.o
LOAD build/pic32mx/debug/_ext/148571690/sys_ports_static.o
LOAD build/pic32mx/debug/_ext/435813987/system_init.o
LOAD build/pic32mx/debug/_ext/435813987/system_interrupt.o
LOAD build/pic32mx/debug/_ext/435813987/system_exceptions.o
LOAD build/pic32mx/debug/_ext/435813987/system_tasks.o
LOAD build/pic32mx/debug/_ext/1360937237/app.o
LOAD build/pic32mx/debug/_ext/1360937237/main.o
LOAD build/pic32mx/debug/_ext/1360937237/custom_http_app.o
LOAD build/pic32mx/debug/_ext/1360937237/http_print.o
LOAD build/pic32mx/debug/_ext/1360937237/mpfs_img2.o
LOAD build/pic32mx/debug/_ext/1837361561/bsp_sys_init.o
LOAD build/pic32mx/debug/_ext/1886890887/random.o
LOAD build/pic32mx/debug/_ext/1886890887/arc4.o
LOAD build/pic32mx/debug/_ext/1886890887/crypto.o
LOAD build/pic32mx/debug/_ext/1908841681/drv_ethmac.o
LOAD build/pic32mx/debug/_ext/1908841681/drv_ethmac_lib.o
LOAD build/pic32mx/debug/_ext/732687875/drv_ethphy.o
LOAD build/pic32mx/debug/_ext/732687875/drv_extphy_dp83848.o
LOAD build/pic32mx/debug/_ext/571308596/drv_nvm.o
LOAD build/pic32mx/debug/_ext/571308596/drv_nvm_erasewrite.o
LOAD build/pic32mx/debug/_ext/185269848/drv_tmr.o
LOAD build/pic32mx/debug/_ext/764219029/drv_usbfs.o
LOAD build/pic32mx/debug/_ext/764219029/drv_usbfs_device.o
LOAD build/pic32mx/debug/_ext/425903153/sys_command.o
LOAD build/pic32mx/debug/_ext/30809027/sys_console.o
LOAD build/pic32mx/debug/_ext/30809027/sys_console_usb_cdc.o
LOAD build/pic32mx/debug/_ext/1271179505/sys_devcon.o
LOAD build/pic32mx/debug/_ext/1271179505/sys_devcon_pic32mx.o
LOAD build/pic32mx/debug/_ext/2104899551/sys_fs.o
LOAD build/pic32mx/debug/_ext/2104899551/sys_fs_media_manager.o
LOAD build/pic32mx/debug/_ext/850537704/mpfs.o
LOAD build/pic32mx/debug/_ext/122796885/sys_int_pic32.o
LOAD build/pic32mx/debug/_ext/77319752/sys_ports.o
LOAD build/pic32mx/debug/_ext/1283840359/sys_random.o
LOAD build/pic32mx/debug/_ext/813494389/sys_reset.o
LOAD build/pic32mx/debug/_ext/1264926591/sys_tmr.o
LOAD build/pic32mx/debug/_ext/1136935090/sys_fs_wrapper.o
LOAD build/pic32mx/debug/_ext/1136935090/big_int.o
LOAD build/pic32mx/debug/_ext/1136935090/big_int_helper_c32.o
LOAD build/pic32mx/debug/_ext/1136935090/hashes.o
LOAD build/pic32mx/debug/_ext/1136935090/helpers.o
LOAD build/pic32mx/debug/_ext/1136935090/lfsr.o
LOAD build/pic32mx/debug/_ext/1408260596/tcp.o
LOAD build/pic32mx/debug/_ext/1408260596/udp.o
LOAD build/pic32mx/debug/_ext/1408260596/arp.o
LOAD build/pic32mx/debug/_ext/1408260596/dhcp.o
LOAD build/pic32mx/debug/_ext/1408260596/dns.o
LOAD build/pic32mx/debug/_ext/1408260596/http.o
LOAD build/pic32mx/debug/_ext/1408260596/icmp.o
LOAD build/pic32mx/debug/_ext/1408260596/nbns.o
LOAD build/pic32mx/debug/_ext/1408260596/sntp.o
LOAD build/pic32mx/debug/_ext/1408260596/zero_conf_helper.o
LOAD build/pic32mx/debug/_ext/1408260596/zero_conf_link_local.o
LOAD build/pic32mx/debug/_ext/1408260596/tcpip_announce.o
LOAD build/pic32mx/debug/_ext/1408260596/hash_fnv.o
LOAD build/pic32mx/debug/_ext/1408260596/oahash.o
LOAD build/pic32mx/debug/_ext/1408260596/tcpip_heap_alloc.o
LOAD build/pic32mx/debug/_ext/1408260596/tcpip_helpers.o
LOAD build/pic32mx/debug/_ext/1408260596/tcpip_helper_c32.o
LOAD build/pic32mx/debug/_ext/1408260596/tcpip_manager.o
LOAD build/pic32mx/debug/_ext/1408260596/tcpip_notify.o
LOAD build/pic32mx/debug/_ext/1408260596/tcpip_packet.o
LOAD build/pic32mx/debug/_ext/1408260596/ipv4.o
LOAD build/pic32mx/debug/_ext/610166344/usb_device.o
LOAD build/pic32mx/debug/_ext/610166344/usb_device_cdc.o
LOAD build/pic32mx/debug/_ext/610166344/usb_device_cdc_acm.o
LOAD ..\..\..\..\bin\framework\peripheral\PIC32MX795F512L_peripherals.a
                0x00000001                __MPLAB_BUILD = 0x1
                0x00000001                __MPLAB_DEBUG = 0x1
                0x00000001                __DEBUG = 0x1
                0x00000001                __MPLAB_DEBUGGER_PIC32MXSK = 0x1
                0x0000afa0                _min_heap_size = 0xafa0
LOAD c:/program files (x86)/microchip/xc32/v1.40/bin/bin/../../lib/gcc/pic32mx/4.8.3/../../../../pic32mx/lib/./proc/32MX795F512L\default_isr_vectors.o
LOAD c:/program files (x86)/microchip/xc32/v1.40/bin/bin/../../lib/gcc/pic32mx/4.8.3/../../../../pic32mx/lib\pic32_software_reset.o
                0x00000400                PROVIDE (_min_stack_size, 0x400)
LOAD c:/program files (x86)/microchip/xc32/v1.40/bin/bin/../../lib/gcc/pic32mx/4.8.3/../../../../pic32mx/lib/./proc/32MX795F512L\processor.o
START GROUP
LOAD libmchp_peripheral.a
END GROUP
START GROUP
LOAD libmchp_peripheral_32MX795F512L.a
END GROUP
                0x00000001                PROVIDE (_vector_spacing, 0x1)
                0x9fc01000                _ebase_address = 0x9fc01000
                0xbfc00000                _RESET_ADDR = 0xbfc00000
                0xbfc00380                _BEV_EXCPT_ADDR = 0xbfc00380
                0xbfc00480                _DBG_EXCPT_ADDR = 0xbfc00480
                0xbfc02000                _DBG_CODE_ADDR = 0xbfc02000
                0x00000ff0                _DBG_CODE_SIZE = 0xff0
                0x9fc01180                _GEN_EXCPT_ADDR = (_ebase_address + 0x180)

.config_BFC02FF0
                0xbfc02ff0        0x4
 *(.config_BFC02FF0)
 .config_BFC02FF0
                0xbfc02ff0        0x4 build/pic32mx/debug/_ext/435813987/system_init.o

.config_BFC02FF4
                0xbfc02ff4        0x4
 *(.config_BFC02FF4)
 .config_BFC02FF4
                0xbfc02ff4        0x4 build/pic32mx/debug/_ext/435813987/system_init.o

.config_BFC02FF8
                0xbfc02ff8        0x4
 *(.config_BFC02FF8)
 .config_BFC02FF8
                0xbfc02ff8        0x4 build/pic32mx/debug/_ext/435813987/system_init.o

.config_BFC02FFC
                0xbfc02ffc        0x4
 *(.config_BFC02FFC)
 .config_BFC02FFC
                0xbfc02ffc        0x4 build/pic32mx/debug/_ext/435813987/system_init.o
                0xbfc02000                PROVIDE (_DBG_CODE_ADDR, 0xbfc02000)
                0x00000ff0                PROVIDE (_DBG_CODE_SIZE, 0xff0)

.reset          0xbfc00000      0x1f4
 *(.reset)
 .reset         0xbfc00000        0x8 c:/program files (x86)/microchip/xc32/v1.40/bin/bin/../../lib/gcc/pic32mx/4.8.3/../../../../pic32mx/lib/./proc/32MX795F512L/crt0_mips32r2.o
                0xbfc00000                _reset
 *(.reset.startup)
 .reset.startup
                0xbfc00008      0x1ec c:/program files (x86)/microchip/xc32/v1.40/bin/bin/../../lib/gcc/pic32mx/4.8.3/../../../../pic32mx/lib/./proc/32MX795F512L/crt0_mips32r2.o

.bev_excpt      0xbfc00380       0x10
 *(.bev_handler)
 .bev_handler   0xbfc00380       0x10 c:/program files (x86)/microchip/xc32/v1.40/bin/bin/../../lib/gcc/pic32mx/4.8.3/../../../../pic32mx/lib/./proc/32MX795F512L/crt0_mips32r2.o

.dbg_excpt      0xbfc00480        0x8
                0xbfc00480                . = (. + DEFINED (_DEBUGGER)?0x8:0x0)
 *fill*         0xbfc00480        0x8 

.dbg_code       0xbfc02000      0xff0
                0xbfc02000                . = (. + DEFINED (_DEBUGGER)?_DBG_CODE_SIZE:0x0)
 *fill*         0xbfc02000      0xff0 

.app_excpt      0x9fc01180       0x10
 *(.gen_handler)
 .gen_handler   0x9fc01180       0x10 c:/program files (x86)/microchip/xc32/v1.40/bin/bin/../../lib/gcc/pic32mx/4.8.3/../../../../pic32mx/lib/./proc/32MX795F512L/crt0_mips32r2.o

.vector_0       0x9fc01200        0x8
 *(.vector_0)
 .vector_0      0x9fc01200        0x8 c:/program files (x86)/microchip/xc32/v1.40/bin/bin/../../lib/gcc/pic32mx/4.8.3/../../../../pic32mx/lib\libpic32.a(vector0.o)
                0x9fc01200                __vector_dispatch_0
                0x00000001                ASSERT (((_vector_spacing == 0x0) || (SIZEOF (.vector_0) <= (_vector_spacing << 0x5))), function at exception vector 0 too large)

.vector_1       0x9fc01220        0x8
 *(.vector_1)
 .vector_1      0x9fc01220        0x8 c:/program files (x86)/microchip/xc32/v1.40/bin/bin/../../lib/gcc/pic32mx/4.8.3/../../../../pic32mx/lib\libpic32.a(vector1.o)
                0x9fc01220                __vector_dispatch_1
                0x00000001                ASSERT (((_vector_spacing == 0x0) || (SIZEOF (.vector_1) <= (_vector_spacing << 0x5))), function at exception vector 1 too large)

.vector_2       0x9fc01240        0x8
 *(.vector_2)
 .vector_2      0x9fc01240        0x8 c:/program files (x86)/microchip/xc32/v1.40/bin/bin/../../lib/gcc/pic32mx/4.8.3/../../../../pic32mx/lib\libpic32.a(vector2.o)
                0x9fc01240                __vector_dispatch_2
                0x00000001                ASSERT (((_vector_spacing == 0x0) || (SIZEOF (.vector_2) <= (_vector_spacing << 0x5))), function at exception vector 2 too large)

.vector_3       0x9fc01260        0x8
 *(.vector_3)
 .vector_3      0x9fc01260        0x8 c:/program files (x86)/microchip/xc32/v1.40/bin/bin/../../lib/gcc/pic32mx/4.8.3/../../../../pic32mx/lib\libpic32.a(vector3.o)
                0x9fc01260                __vector_dispatch_3
                0x00000001                ASSERT (((_vector_spacing == 0x0) || (SIZEOF (.vector_3) <= (_vector_spacing << 0x5))), function at exception vector 3 too large)

.vector_4       0x9fc01280        0x8
 *(.vector_4)
 .vector_4      0x9fc01280        0x8 build/pic32mx/debug/_ext/435813987/system_interrupt.o
                0x9fc01280                __vector_dispatch_4
                0x00000001                ASSERT (((_vector_spacing == 0x0) || (SIZEOF (.vector_4) <= (_vector_spacing << 0x5))), function at exception vector 4 too large)

.vector_5       0x9fc012a0        0x8
 *(.vector_5)
 .vector_5      0x9fc012a0        0x8 c:/program files (x86)/microchip/xc32/v1.40/bin/bin/../../lib/gcc/pic32mx/4.8.3/../../../../pic32mx/lib\libpic32.a(vector5.o)
                0x9fc012a0                __vector_dispatch_5
                0x00000001                ASSERT (((_vector_spacing == 0x0) || (SIZEOF (.vector_5) <= (_vector_spacing << 0x5))), function at exception vector 5 too large)

.vector_6       0x9fc012c0        0x8
 *(.vector_6)
 .vector_6      0x9fc012c0        0x8 c:/program files (x86)/microchip/xc32/v1.40/bin/bin/../../lib/gcc/pic32mx/4.8.3/../../../../pic32mx/lib\libpic32.a(vector6.o)
                0x9fc012c0                __vector_dispatch_6
                0x00000001                ASSERT (((_vector_spacing == 0x0) || (SIZEOF (.vector_6) <= (_vector_spacing << 0x5))), function at exception vector 6 too large)

.vector_7       0x9fc012e0        0x8
 *(.vector_7)
 .vector_7      0x9fc012e0        0x8 c:/program files (x86)/microchip/xc32/v1.40/bin/bin/../../lib/gcc/pic32mx/4.8.3/../../../../pic32mx/lib\libpic32.a(vector7.o)
                0x9fc012e0                __vector_dispatch_7
                0x00000001                ASSERT (((_vector_spacing == 0x0) || (SIZEOF (.vector_7) <= (_vector_spacing << 0x5))), function at exception vector 7 too large)

.vector_8       0x9fc01300        0x8
 *(.vector_8)
 .vector_8      0x9fc01300        0x8 c:/program files (x86)/microchip/xc32/v1.40/bin/bin/../../lib/gcc/pic32mx/4.8.3/../../../../pic32mx/lib\libpic32.a(vector8.o)
                0x9fc01300                __vector_dispatch_8
                0x00000001                ASSERT (((_vector_spacing == 0x0) || (SIZEOF (.vector_8) <= (_vector_spacing << 0x5))), function at exception vector 8 too large)

.vector_9       0x9fc01320        0x8
 *(.vector_9)
 .vector_9      0x9fc01320        0x8 c:/program files (x86)/microchip/xc32/v1.40/bin/bin/../../lib/gcc/pic32mx/4.8.3/../../../../pic32mx/lib\libpic32.a(vector9.o)
                0x9fc01320                __vector_dispatch_9
                0x00000001                ASSERT (((_vector_spacing == 0x0) || (SIZEOF (.vector_9) <= (_vector_spacing << 0x5))), function at exception vector 9 too large)

.vector_10      0x9fc01340        0x8
 *(.vector_10)
 .vector_10     0x9fc01340        0x8 c:/program files (x86)/microchip/xc32/v1.40/bin/bin/../../lib/gcc/pic32mx/4.8.3/../../../../pic32mx/lib\libpic32.a(vector10.o)
                0x9fc01340                __vector_dispatch_10
                0x00000001                ASSERT (((_vector_spacing == 0x0) || (SIZEOF (.vector_10) <= (_vector_spacing << 0x5))), function at exception vector 10 too large)

.vector_11      0x9fc01360        0x8
 *(.vector_11)
 .vector_11     0x9fc01360        0x8 c:/program files (x86)/microchip/xc32/v1.40/bin/bin/../../lib/gcc/pic32mx/4.8.3/../../../../pic32mx/lib\libpic32.a(vector11.o)
                0x9fc01360                __vector_dispatch_11
                0x00000001                ASSERT (((_vector_spacing == 0x0) || (SIZEOF (.vector_11) <= (_vector_spacing << 0x5))), function at exception vector 11 too large)

.vector_12      0x9fc01380        0x8
 *(.vector_12)
 .vector_12     0x9fc01380        0x8 c:/program files (x86)/microchip/xc32/v1.40/bin/bin/../../lib/gcc/pic32mx/4.8.3/../../../../pic32mx/lib\libpic32.a(vector12.o)
                0x9fc01380                __vector_dispatch_12
                0x00000001                ASSERT (((_vector_spacing == 0x0) || (SIZEOF (.vector_12) <= (_vector_spacing << 0x5))), function at exception vector 12 too large)

.vector_13      0x9fc013a0        0x8
 *(.vector_13)
 .vector_13     0x9fc013a0        0x8 c:/program files (x86)/microchip/xc32/v1.40/bin/bin/../../lib/gcc/pic32mx/4.8.3/../../../../pic32mx/lib\libpic32.a(vector13.o)
                0x9fc013a0                __vector_dispatch_13
                0x00000001                ASSERT (((_vector_spacing == 0x0) || (SIZEOF (.vector_13) <= (_vector_spacing << 0x5))), function at exception vector 13 too large)

.vector_14      0x9fc013c0        0x8
 *(.vector_14)
 .vector_14     0x9fc013c0        0x8 c:/program files (x86)/microchip/xc32/v1.40/bin/bin/../../lib/gcc/pic32mx/4.8.3/../../../../pic32mx/lib\libpic32.a(vector14.o)
                0x9fc013c0                __vector_dispatch_14
                0x00000001                ASSERT (((_vector_spacing == 0x0) || (SIZEOF (.vector_14) <= (_vector_spacing << 0x5))), function at exception vector 14 too large)

.vector_15      0x9fc013e0        0x8
 *(.vector_15)
 .vector_15     0x9fc013e0        0x8 c:/program files (x86)/microchip/xc32/v1.40/bin/bin/../../lib/gcc/pic32mx/4.8.3/../../../../pic32mx/lib\libpic32.a(vector15.o)
                0x9fc013e0                __vector_dispatch_15
                0x00000001                ASSERT (((_vector_spacing == 0x0) || (SIZEOF (.vector_15) <= (_vector_spacing << 0x5))), function at exception vector 15 too large)

.vector_16      0x9fc01400        0x8
 *(.vector_16)
 .vector_16     0x9fc01400        0x8 c:/program files (x86)/microchip/xc32/v1.40/bin/bin/../../lib/gcc/pic32mx/4.8.3/../../../../pic32mx/lib\libpic32.a(vector16.o)
                0x9fc01400                __vector_dispatch_16
                0x00000001                ASSERT (((_vector_spacing == 0x0) || (SIZEOF (.vector_16) <= (_vector_spacing << 0x5))), function at exception vector 16 too large)

.vector_17      0x9fc01420        0x8
 *(.vector_17)
 .vector_17     0x9fc01420        0x8 c:/program files (x86)/microchip/xc32/v1.40/bin/bin/../../lib/gcc/pic32mx/4.8.3/../../../../pic32mx/lib\libpic32.a(vector17.o)
                0x9fc01420                __vector_dispatch_17
                0x00000001                ASSERT (((_vector_spacing == 0x0) || (SIZEOF (.vector_17) <= (_vector_spacing << 0x5))), function at exception vector 17 too large)

.vector_18      0x9fc01440        0x8
 *(.vector_18)
 .vector_18     0x9fc01440        0x8 c:/program files (x86)/microchip/xc32/v1.40/bin/bin/../../lib/gcc/pic32mx/4.8.3/../../../../pic32mx/lib\libpic32.a(vector18.o)
                0x9fc01440                __vector_dispatch_18
                0x00000001                ASSERT (((_vector_spacing == 0x0) || (SIZEOF (.vector_18) <= (_vector_spacing << 0x5))), function at exception vector 18 too large)

.vector_19      0x9fc01460        0x8
 *(.vector_19)
 .vector_19     0x9fc01460        0x8 c:/program files (x86)/microchip/xc32/v1.40/bin/bin/../../lib/gcc/pic32mx/4.8.3/../../../../pic32mx/lib\libpic32.a(vector19.o)
                0x9fc01460                __vector_dispatch_19
                0x00000001                ASSERT (((_vector_spacing == 0x0) || (SIZEOF (.vector_19) <= (_vector_spacing << 0x5))), function at exception vector 19 too large)

.vector_20      0x9fc01480        0x8
 *(.vector_20)
 .vector_20     0x9fc01480        0x8 c:/program files (x86)/microchip/xc32/v1.40/bin/bin/../../lib/gcc/pic32mx/4.8.3/../../../../pic32mx/lib\libpic32.a(vector20.o)
                0x9fc01480                __vector_dispatch_20
                0x00000001                ASSERT (((_vector_spacing == 0x0) || (SIZEOF (.vector_20) <= (_vector_spacing << 0x5))), function at exception vector 20 too large)

.vector_21      0x9fc014a0        0x8
 *(.vector_21)
 .vector_21     0x9fc014a0        0x8 c:/program files (x86)/microchip/xc32/v1.40/bin/bin/../../lib/gcc/pic32mx/4.8.3/../../../../pic32mx/lib\libpic32.a(vector21.o)
                0x9fc014a0                __vector_dispatch_21
                0x00000001                ASSERT (((_vector_spacing == 0x0) || (SIZEOF (.vector_21) <= (_vector_spacing << 0x5))), function at exception vector 21 too large)

.vector_22      0x9fc014c0        0x8
 *(.vector_22)
 .vector_22     0x9fc014c0        0x8 c:/program files (x86)/microchip/xc32/v1.40/bin/bin/../../lib/gcc/pic32mx/4.8.3/../../../../pic32mx/lib\libpic32.a(vector22.o)
                0x9fc014c0                __vector_dispatch_22
                0x00000001                ASSERT (((_vector_spacing == 0x0) || (SIZEOF (.vector_22) <= (_vector_spacing << 0x5))), function at exception vector 22 too large)

.vector_23      0x9fc014e0        0x8
 *(.vector_23)
 .vector_23     0x9fc014e0        0x8 c:/program files (x86)/microchip/xc32/v1.40/bin/bin/../../lib/gcc/pic32mx/4.8.3/../../../../pic32mx/lib\libpic32.a(vector23.o)
                0x9fc014e0                __vector_dispatch_23
                0x00000001                ASSERT (((_vector_spacing == 0x0) || (SIZEOF (.vector_23) <= (_vector_spacing << 0x5))), function at exception vector 23 too large)

.vector_24      0x9fc01500        0x8
 *(.vector_24)
 .vector_24     0x9fc01500        0x8 c:/program files (x86)/microchip/xc32/v1.40/bin/bin/../../lib/gcc/pic32mx/4.8.3/../../../../pic32mx/lib\libpic32.a(vector24.o)
                0x9fc01500                __vector_dispatch_24
                0x00000001                ASSERT (((_vector_spacing == 0x0) || (SIZEOF (.vector_24) <= (_vector_spacing << 0x5))), function at exception vector 24 too large)

.vector_25      0x9fc01520        0x8
 *(.vector_25)
 .vector_25     0x9fc01520        0x8 c:/program files (x86)/microchip/xc32/v1.40/bin/bin/../../lib/gcc/pic32mx/4.8.3/../../../../pic32mx/lib\libpic32.a(vector25.o)
                0x9fc01520                __vector_dispatch_25
                0x00000001                ASSERT (((_vector_spacing == 0x0) || (SIZEOF (.vector_25) <= (_vector_spacing << 0x5))), function at exception vector 25 too large)

.vector_26      0x9fc01540        0x8
 *(.vector_26)
 .vector_26     0x9fc01540        0x8 c:/program files (x86)/microchip/xc32/v1.40/bin/bin/../../lib/gcc/pic32mx/4.8.3/../../../../pic32mx/lib\libpic32.a(vector26.o)
                0x9fc01540                __vector_dispatch_26
                0x00000001                ASSERT (((_vector_spacing == 0x0) || (SIZEOF (.vector_26) <= (_vector_spacing << 0x5))), function at exception vector 26 too large)

.vector_27      0x9fc01560        0x8
 *(.vector_27)
 .vector_27     0x9fc01560        0x8 c:/program files (x86)/microchip/xc32/v1.40/bin/bin/../../lib/gcc/pic32mx/4.8.3/../../../../pic32mx/lib\libpic32.a(vector27.o)
                0x9fc01560                __vector_dispatch_27
                0x00000001                ASSERT (((_vector_spacing == 0x0) || (SIZEOF (.vector_27) <= (_vector_spacing << 0x5))), function at exception vector 27 too large)

.vector_28      0x9fc01580        0x8
 *(.vector_28)
 .vector_28     0x9fc01580        0x8 c:/program files (x86)/microchip/xc32/v1.40/bin/bin/../../lib/gcc/pic32mx/4.8.3/../../../../pic32mx/lib\libpic32.a(vector28.o)
                0x9fc01580                __vector_dispatch_28
                0x00000001                ASSERT (((_vector_spacing == 0x0) || (SIZEOF (.vector_28) <= (_vector_spacing << 0x5))), function at exception vector 28 too large)

.vector_29      0x9fc015a0        0x8
 *(.vector_29)
 .vector_29     0x9fc015a0        0x8 c:/program files (x86)/microchip/xc32/v1.40/bin/bin/../../lib/gcc/pic32mx/4.8.3/../../../../pic32mx/lib\libpic32.a(vector29.o)
                0x9fc015a0                __vector_dispatch_29
                0x00000001                ASSERT (((_vector_spacing == 0x0) || (SIZEOF (.vector_29) <= (_vector_spacing << 0x5))), function at exception vector 29 too large)

.vector_30      0x9fc015c0        0x8
 *(.vector_30)
 .vector_30     0x9fc015c0        0x8 c:/program files (x86)/microchip/xc32/v1.40/bin/bin/../../lib/gcc/pic32mx/4.8.3/../../../../pic32mx/lib\libpic32.a(vector30.o)
                0x9fc015c0                __vector_dispatch_30
                0x00000001                ASSERT (((_vector_spacing == 0x0) || (SIZEOF (.vector_30) <= (_vector_spacing << 0x5))), function at exception vector 30 too large)

.vector_31      0x9fc015e0        0x8
 *(.vector_31)
 .vector_31     0x9fc015e0        0x8 c:/program files (x86)/microchip/xc32/v1.40/bin/bin/../../lib/gcc/pic32mx/4.8.3/../../../../pic32mx/lib\libpic32.a(vector31.o)
                0x9fc015e0                __vector_dispatch_31
                0x00000001                ASSERT (((_vector_spacing == 0x0) || (SIZEOF (.vector_31) <= (_vector_spacing << 0x5))), function at exception vector 31 too large)

.vector_32      0x9fc01600        0x8
 *(.vector_32)
 .vector_32     0x9fc01600        0x8 c:/program files (x86)/microchip/xc32/v1.40/bin/bin/../../lib/gcc/pic32mx/4.8.3/../../../../pic32mx/lib\libpic32.a(vector32.o)
                0x9fc01600                __vector_dispatch_32
                0x00000001                ASSERT (((_vector_spacing == 0x0) || (SIZEOF (.vector_32) <= (_vector_spacing << 0x5))), function at exception vector 32 too large)

.vector_33      0x9fc01620        0x8
 *(.vector_33)
 .vector_33     0x9fc01620        0x8 c:/program files (x86)/microchip/xc32/v1.40/bin/bin/../../lib/gcc/pic32mx/4.8.3/../../../../pic32mx/lib\libpic32.a(vector33.o)
                0x9fc01620                __vector_dispatch_33
                0x00000001                ASSERT (((_vector_spacing == 0x0) || (SIZEOF (.vector_33) <= (_vector_spacing << 0x5))), function at exception vector 33 too large)

.vector_34      0x9fc01640        0x8
 *(.vector_34)
 .vector_34     0x9fc01640        0x8 c:/program files (x86)/microchip/xc32/v1.40/bin/bin/../../lib/gcc/pic32mx/4.8.3/../../../../pic32mx/lib\libpic32.a(vector34.o)
                0x9fc01640                __vector_dispatch_34
                0x00000001                ASSERT (((_vector_spacing == 0x0) || (SIZEOF (.vector_34) <= (_vector_spacing << 0x5))), function at exception vector 34 too large)

.vector_35      0x9fc01660        0x8
 *(.vector_35)
 .vector_35     0x9fc01660        0x8 c:/program files (x86)/microchip/xc32/v1.40/bin/bin/../../lib/gcc/pic32mx/4.8.3/../../../../pic32mx/lib\libpic32.a(vector35.o)
                0x9fc01660                __vector_dispatch_35
                0x00000001                ASSERT (((_vector_spacing == 0x0) || (SIZEOF (.vector_35) <= (_vector_spacing << 0x5))), function at exception vector 35 too large)

.vector_36      0x9fc01680        0x8
 *(.vector_36)
 .vector_36     0x9fc01680        0x8 c:/program files (x86)/microchip/xc32/v1.40/bin/bin/../../lib/gcc/pic32mx/4.8.3/../../../../pic32mx/lib\libpic32.a(vector36.o)
                0x9fc01680                __vector_dispatch_36
                0x00000001                ASSERT (((_vector_spacing == 0x0) || (SIZEOF (.vector_36) <= (_vector_spacing << 0x5))), function at exception vector 36 too large)

.vector_37      0x9fc016a0        0x8
 *(.vector_37)
 .vector_37     0x9fc016a0        0x8 c:/program files (x86)/microchip/xc32/v1.40/bin/bin/../../lib/gcc/pic32mx/4.8.3/../../../../pic32mx/lib\libpic32.a(vector37.o)
                0x9fc016a0                __vector_dispatch_37
                0x00000001                ASSERT (((_vector_spacing == 0x0) || (SIZEOF (.vector_37) <= (_vector_spacing << 0x5))), function at exception vector 37 too large)

.vector_38      0x9fc016c0        0x8
 *(.vector_38)
 .vector_38     0x9fc016c0        0x8 c:/program files (x86)/microchip/xc32/v1.40/bin/bin/../../lib/gcc/pic32mx/4.8.3/../../../../pic32mx/lib\libpic32.a(vector38.o)
                0x9fc016c0                __vector_dispatch_38
                0x00000001                ASSERT (((_vector_spacing == 0x0) || (SIZEOF (.vector_38) <= (_vector_spacing << 0x5))), function at exception vector 38 too large)

.vector_39      0x9fc016e0        0x8
 *(.vector_39)
 .vector_39     0x9fc016e0        0x8 c:/program files (x86)/microchip/xc32/v1.40/bin/bin/../../lib/gcc/pic32mx/4.8.3/../../../../pic32mx/lib\libpic32.a(vector39.o)
                0x9fc016e0                __vector_dispatch_39
                0x00000001                ASSERT (((_vector_spacing == 0x0) || (SIZEOF (.vector_39) <= (_vector_spacing << 0x5))), function at exception vector 39 too large)

.vector_40      0x9fc01700        0x8
 *(.vector_40)
 .vector_40     0x9fc01700        0x8 c:/program files (x86)/microchip/xc32/v1.40/bin/bin/../../lib/gcc/pic32mx/4.8.3/../../../../pic32mx/lib\libpic32.a(vector40.o)
                0x9fc01700                __vector_dispatch_40
                0x00000001                ASSERT (((_vector_spacing == 0x0) || (SIZEOF (.vector_40) <= (_vector_spacing << 0x5))), function at exception vector 40 too large)

.vector_41      0x9fc01720        0x8
 *(.vector_41)
 .vector_41     0x9fc01720        0x8 c:/program files (x86)/microchip/xc32/v1.40/bin/bin/../../lib/gcc/pic32mx/4.8.3/../../../../pic32mx/lib\libpic32.a(vector41.o)
                0x9fc01720                __vector_dispatch_41
                0x00000001                ASSERT (((_vector_spacing == 0x0) || (SIZEOF (.vector_41) <= (_vector_spacing << 0x5))), function at exception vector 41 too large)

.vector_42      0x9fc01740        0x8
 *(.vector_42)
 .vector_42     0x9fc01740        0x8 c:/program files (x86)/microchip/xc32/v1.40/bin/bin/../../lib/gcc/pic32mx/4.8.3/../../../../pic32mx/lib\libpic32.a(vector42.o)
                0x9fc01740                __vector_dispatch_42
                0x00000001                ASSERT (((_vector_spacing == 0x0) || (SIZEOF (.vector_42) <= (_vector_spacing << 0x5))), function at exception vector 42 too large)

.vector_43      0x9fc01760        0x8
 *(.vector_43)
 .vector_43     0x9fc01760        0x8 c:/program files (x86)/microchip/xc32/v1.40/bin/bin/../../lib/gcc/pic32mx/4.8.3/../../../../pic32mx/lib\libpic32.a(vector43.o)
                0x9fc01760                __vector_dispatch_43
                0x00000001                ASSERT (((_vector_spacing == 0x0) || (SIZEOF (.vector_43) <= (_vector_spacing << 0x5))), function at exception vector 43 too large)

.vector_44      0x9fc01780        0x8
 *(.vector_44)
 .vector_44     0x9fc01780        0x8 build/pic32mx/debug/_ext/435813987/system_interrupt.o
                0x9fc01780                __vector_dispatch_44
                0x00000001                ASSERT (((_vector_spacing == 0x0) || (SIZEOF (.vector_44) <= (_vector_spacing << 0x5))), function at exception vector 44 too large)

.vector_45      0x9fc017a0        0x8
 *(.vector_45)
 .vector_45     0x9fc017a0        0x8 build/pic32mx/debug/_ext/435813987/system_interrupt.o
                0x9fc017a0                __vector_dispatch_45
                0x00000001                ASSERT (((_vector_spacing == 0x0) || (SIZEOF (.vector_45) <= (_vector_spacing << 0x5))), function at exception vector 45 too large)

.vector_46      0x9fc017c0        0x8
 *(.vector_46)
 .vector_46     0x9fc017c0        0x8 c:/program files (x86)/microchip/xc32/v1.40/bin/bin/../../lib/gcc/pic32mx/4.8.3/../../../../pic32mx/lib\libpic32.a(vector46.o)
                0x9fc017c0                __vector_dispatch_46
                0x00000001                ASSERT (((_vector_spacing == 0x0) || (SIZEOF (.vector_46) <= (_vector_spacing << 0x5))), function at exception vector 46 too large)

.vector_47      0x9fc017e0        0x8
 *(.vector_47)
 .vector_47     0x9fc017e0        0x8 c:/program files (x86)/microchip/xc32/v1.40/bin/bin/../../lib/gcc/pic32mx/4.8.3/../../../../pic32mx/lib\libpic32.a(vector47.o)
                0x9fc017e0                __vector_dispatch_47
                0x00000001                ASSERT (((_vector_spacing == 0x0) || (SIZEOF (.vector_47) <= (_vector_spacing << 0x5))), function at exception vector 47 too large)

.vector_48      0x9fc01800        0x8
 *(.vector_48)
 .vector_48     0x9fc01800        0x8 build/pic32mx/debug/_ext/435813987/system_interrupt.o
                0x9fc01800                __vector_dispatch_48
                0x00000001                ASSERT (((_vector_spacing == 0x0) || (SIZEOF (.vector_48) <= (_vector_spacing << 0x5))), function at exception vector 48 too large)

.vector_49      0x9fc01820        0x8
 *(.vector_49)
 .vector_49     0x9fc01820        0x8 c:/program files (x86)/microchip/xc32/v1.40/bin/bin/../../lib/gcc/pic32mx/4.8.3/../../../../pic32mx/lib\libpic32.a(vector49.o)
                0x9fc01820                __vector_dispatch_49
                0x00000001                ASSERT (((_vector_spacing == 0x0) || (SIZEOF (.vector_49) <= (_vector_spacing << 0x5))), function at exception vector 49 too large)

.vector_50      0x9fc01840        0x8
 *(.vector_50)
 .vector_50     0x9fc01840        0x8 c:/program files (x86)/microchip/xc32/v1.40/bin/bin/../../lib/gcc/pic32mx/4.8.3/../../../../pic32mx/lib\libpic32.a(vector50.o)
                0x9fc01840                __vector_dispatch_50
                0x00000001                ASSERT (((_vector_spacing == 0x0) || (SIZEOF (.vector_50) <= (_vector_spacing << 0x5))), function at exception vector 50 too large)

.vector_51      0x9fc01860        0x8
 *(.vector_51)
 .vector_51     0x9fc01860        0x8 c:/program files (x86)/microchip/xc32/v1.40/bin/bin/../../lib/gcc/pic32mx/4.8.3/../../../../pic32mx/lib\libpic32.a(vector51.o)
                0x9fc01860                __vector_dispatch_51
                0x00000001                ASSERT (((_vector_spacing == 0x0) || (SIZEOF (.vector_51) <= (_vector_spacing << 0x5))), function at exception vector 51 too large)

.vector_52      0x9fc01880        0x0
 *(.vector_52)
                0x00000001                ASSERT (((_vector_spacing == 0x0) || (SIZEOF (.vector_52) <= (_vector_spacing << 0x5))), function at exception vector 52 too large)

.vector_53      0x9fc018a0        0x0
 *(.vector_53)
                0x00000001                ASSERT (((_vector_spacing == 0x0) || (SIZEOF (.vector_53) <= (_vector_spacing << 0x5))), function at exception vector 53 too large)

.vector_54      0x9fc018c0        0x0
 *(.vector_54)
                0x00000001                ASSERT (((_vector_spacing == 0x0) || (SIZEOF (.vector_54) <= (_vector_spacing << 0x5))), function at exception vector 54 too large)

.vector_55      0x9fc018e0        0x0
 *(.vector_55)
                0x00000001                ASSERT (((_vector_spacing == 0x0) || (SIZEOF (.vector_55) <= (_vector_spacing << 0x5))), function at exception vector 55 too large)

.vector_56      0x9fc01900        0x0
 *(.vector_56)
                0x00000001                ASSERT (((_vector_spacing == 0x0) || (SIZEOF (.vector_56) <= (_vector_spacing << 0x5))), function at exception vector 56 too large)

.vector_57      0x9fc01920        0x0
 *(.vector_57)
                0x00000001                ASSERT (((_vector_spacing == 0x0) || (SIZEOF (.vector_57) <= (_vector_spacing << 0x5))), function at exception vector 57 too large)

.vector_58      0x9fc01940        0x0
 *(.vector_58)
                0x00000001                ASSERT (((_vector_spacing == 0x0) || (SIZEOF (.vector_58) <= (_vector_spacing << 0x5))), function at exception vector 58 too large)

.vector_59      0x9fc01960        0x0
 *(.vector_59)
                0x00000001                ASSERT (((_vector_spacing == 0x0) || (SIZEOF (.vector_59) <= (_vector_spacing << 0x5))), function at exception vector 59 too large)

.vector_60      0x9fc01980        0x0
 *(.vector_60)
                0x00000001                ASSERT (((_vector_spacing == 0x0) || (SIZEOF (.vector_60) <= (_vector_spacing << 0x5))), function at exception vector 60 too large)

.vector_61      0x9fc019a0        0x0
 *(.vector_61)
                0x00000001                ASSERT (((_vector_spacing == 0x0) || (SIZEOF (.vector_61) <= (_vector_spacing << 0x5))), function at exception vector 61 too large)

.vector_62      0x9fc019c0        0x0
 *(.vector_62)
                0x00000001                ASSERT (((_vector_spacing == 0x0) || (SIZEOF (.vector_62) <= (_vector_spacing << 0x5))), function at exception vector 62 too large)

.vector_63      0x9fc019e0        0x0
 *(.vector_63)
                0x00000001                ASSERT (((_vector_spacing == 0x0) || (SIZEOF (.vector_63) <= (_vector_spacing << 0x5))), function at exception vector 63 too large)

.startup
 *(.startup)

.text           0x9d000000        0x0
 *(.stub .gnu.linkonce.t.*)
 *(.text.*personality*)
 *(.mips16.fn.*)
 *(.mips16.call.*)
 *(.gnu.warning)
                0x9d000000                . = ALIGN (0x4)

.init           0x9d000000        0x0
 *crti.o(.init)
 *crtbegin.o(.init)
 *(EXCLUDE_FILE(*crtn.o *crtend?.o *crtend.o) .init)
 *crtend.o(.init)
 *crtn.o(.init)
                0x9d000000                . = ALIGN (0x4)

.fini           0x9d000000        0x0
 *(.fini)
                0x9d000000                . = ALIGN (0x4)

.preinit_array  0x9d000000        0x0
                0x9d000000                PROVIDE (__preinit_array_start, .)
 *(.preinit_array)
                0x9d000000                PROVIDE (__preinit_array_end, .)
                0x9d000000                . = ALIGN (0x4)

.init_array     0x9d000000        0x0
                0x9d000000                PROVIDE (__init_array_start, .)
 *(SORT(.init_array.*))
 *(.init_array)
                0x9d000000                PROVIDE (__init_array_end, .)
                0x9d000000                . = ALIGN (0x4)

.fini_array     0x9d000000        0x0
                0x9d000000                PROVIDE (__fini_array_start, .)
 *(SORT(.fini_array.*))
 *(.fini_array)
                0x9d000000                PROVIDE (__fini_array_end, .)
                0x9d000000                . = ALIGN (0x4)

.ctors          0x9d000000        0x0
 *crtbegin.o(.ctors)
 *crtbegin?.o(.ctors)
 *(EXCLUDE_FILE(*crtend?.o *crtend.o) .ctors)
 *(SORT(.ctors.*))
 *(.ctors)
                0x9d000000                . = ALIGN (0x4)

.dtors          0x9d000000        0x0
 *crtbegin.o(.dtors)
 *crtbegin?.o(.dtors)
 *(EXCLUDE_FILE(*crtend?.o *crtend.o) .dtors)
 *(SORT(.dtors.*))
 *(.dtors)
                0x9d000000                . = ALIGN (0x4)

.rodata         0x9d000000        0x0
 *(.gnu.linkonce.r.*)
 *(.rodata1)
                0x9d000000                . = ALIGN (0x4)

.sdata2         0x9fc00490        0x0
 *(.sdata2 .sdata2.* .gnu.linkonce.s2.*)
                0x9fc00490                . = ALIGN (0x4)

.sbss2          0x9fc00490        0x0
 *(.sbss2 .sbss2.* .gnu.linkonce.sb2.*)
                0x9fc00490                . = ALIGN (0x4)

.eh_frame_hdr
 *(.eh_frame_hdr)
                0x9fc00490                . = ALIGN (0x4)

.eh_frame
 *(.eh_frame)
                0x9fc00490                . = ALIGN (0x4)

.gcc_except_table
 *(.gcc_except_table .gcc_except_table.*)
                0x9fc00490                . = ALIGN (0x4)

.dbg_data       0xa0000000      0x200
                0xa0000000                . = (. + DEFINED (_DEBUGGER)?0x200:0x0)
 *fill*         0xa0000000      0x200 

.jcr            0xa0000200        0x0
 *(.jcr)
                0xa0000200                . = ALIGN (0x4)

.eh_frame
 *(.eh_frame)
                0xa0000200                . = ALIGN (0x4)

.gcc_except_table
 *(.gcc_except_table .gcc_except_table.*)
                0xa0000200                . = ALIGN (0x4)

.persist        0xa0000200        0x0
                0xa0000200                _persist_begin = .
 *(.persist .persist.*)
 *(.pbss .pbss.*)
                0xa0000200                . = ALIGN (0x4)
                0xa0000200                _persist_end = .

.data           0xa0000200        0x0
 *(.gnu.linkonce.d.*)
 *(.data1)
                0xa0000200                . = ALIGN (0x4)
                0xa0000200                . = .
                0xa00081f0                _gp = (ALIGN (0x10) + 0x7ff0)

.got            0xa0000200        0x0
 *(.got.plt)
 *(.got)
                0xa0000200                . = ALIGN (0x4)

.sdata          0xa0000200       0x3c
                0xa0000200                _sdata_begin = .
 *(.sdata .sdata.* .gnu.linkonce.s.*)
 .sdata         0xa0000200        0xc build/pic32mx/debug/_ext/435813987/system_init.o
                0xa0000200                sysConsoleObjects
                0xa0000204                consUsbInit0
 .sdata         0xa000020c        0x8 build/pic32mx/debug/_ext/1360937237/app.o
 .sdata         0xa0000214        0x4 build/pic32mx/debug/_ext/2104899551/sys_fs_media_manager.o
                0xa0000214                gSYSFSCommandStatus
 .sdata         0xa0000218        0x4 build/pic32mx/debug/_ext/1136935090/lfsr.o
 .sdata         0xa000021c        0x8 build/pic32mx/debug/_ext/1408260596/arp.o
 .sdata         0xa0000224        0x2 build/pic32mx/debug/_ext/1408260596/sntp.o
 .sdata         0xa0000226        0x1 build/pic32mx/debug/_ext/1408260596/zero_conf_helper.o
                0xa0000226                zeroconf_dbg_level
 *fill*         0xa0000227        0x1 
 .sdata         0xa0000228        0x8 build/pic32mx/debug/_ext/1408260596/zero_conf_link_local.o
 .sdata         0xa0000230        0x8 build/pic32mx/debug/_ext/1408260596/tcpip_manager.o
 .sdata         0xa0000238        0x4 c:/program files (x86)/microchip/xc32/v1.40/bin/bin/../../lib/gcc/pic32mx/4.8.3/../../../../pic32mx/lib\libpic32.a(xc32_uart.o)
                0xa0000238                __XC_UART
                0xa000023c                . = ALIGN (0x4)
                0xa000023c                _sdata_end = .

.lit8
 *(.lit8)

.lit4
 *(.lit4)
                0xa000023c                . = ALIGN (0x4)
                0xa000023c                _data_end = .
                0xa000023c                _bss_begin = .

.sbss           0xa000023c      0x264
                0xa000023c                _sbss_begin = .
 *(.dynsbss)
 *(.sbss .sbss.* .gnu.linkonce.sb.*)
 .sbss          0xa000023c        0x8 build/pic32mx/debug/_ext/435813987/system_init.o
                0xa000023c                sysCmdInit
 .sbss          0xa0000244        0xc build/pic32mx/debug/_ext/435813987/system_exceptions.o
 .sbss          0xa0000250       0x14 build/pic32mx/debug/_ext/1360937237/app.o
                0xa0000250                LEDstate1
                0xa0000254                LEDstate2
                0xa0000258                LEDstate3
 .sbss          0xa0000264        0x2 build/pic32mx/debug/_ext/1360937237/custom_http_app.o
 *fill*         0xa0000266        0x2 
 .sbss          0xa0000268        0x4 build/pic32mx/debug/_ext/1908841681/drv_ethmac.o
 .sbss          0xa000026c        0x2 build/pic32mx/debug/_ext/571308596/drv_nvm.o
                0xa000026c                gDrvNVMBufferToken
 *fill*         0xa000026e        0x2 
 .sbss          0xa0000270        0x4 build/pic32mx/debug/_ext/185269848/drv_tmr.o
 .sbss          0xa0000274       0x10 build/pic32mx/debug/_ext/425903153/sys_command.o
 .sbss          0xa0000284        0xc build/pic32mx/debug/_ext/30809027/sys_console_usb_cdc.o
                0xa000028c                pReadBuf
 .sbss          0xa0000290        0x4 build/pic32mx/debug/_ext/2104899551/sys_fs.o
                0xa0000290                gSYSFSEventHandler
 *fill*         0xa0000294        0xc 
 .sbss          0xa00002a0       0x20 build/pic32mx/debug/_ext/1136935090/big_int_helper_c32.o
                0xa00002a0                _iA
                0xa00002a4                _xA
                0xa00002a8                _iB
                0xa00002ac                _xB
                0xa00002b0                _iR
                0xa00002b4                _wC
 .sbss          0xa00002c0       0x24 build/pic32mx/debug/_ext/1408260596/tcp.o
 .sbss          0xa00002e4       0x18 build/pic32mx/debug/_ext/1408260596/udp.o
 .sbss          0xa00002fc       0x1c build/pic32mx/debug/_ext/1408260596/dhcp.o
 .sbss          0xa0000318        0xc build/pic32mx/debug/_ext/1408260596/dns.o
 .sbss          0xa0000324       0x24 build/pic32mx/debug/_ext/1408260596/http.o
 .sbss          0xa0000348        0x8 build/pic32mx/debug/_ext/1408260596/icmp.o
 .sbss          0xa0000350        0xc build/pic32mx/debug/_ext/1408260596/nbns.o
 *fill*         0xa000035c        0x4 
 .sbss          0xa0000360       0x48 build/pic32mx/debug/_ext/1408260596/sntp.o
 .sbss          0xa00003a8        0xc build/pic32mx/debug/_ext/1408260596/zero_conf_link_local.o
 .sbss          0xa00003b4       0x20 build/pic32mx/debug/_ext/1408260596/tcpip_announce.o
 .sbss          0xa00003d4       0x24 build/pic32mx/debug/_ext/1408260596/tcpip_manager.o
 .sbss          0xa00003f8       0x18 build/pic32mx/debug/_ext/1408260596/tcpip_packet.o
 .sbss          0xa0000410       0x10 build/pic32mx/debug/_ext/1408260596/ipv4.o
 *(.scommon)
 .scommon       0xa0000420        0xc build/pic32mx/debug/_ext/1482089478/sys_clk_static.o
                0xa0000420                modeSeljunk
                0xa0000424                BDT_ENTRY
 .scommon       0xa000042c        0x0 build/pic32mx/debug/_ext/435813987/system_init.o
 .scommon       0xa000042c        0x0 build/pic32mx/debug/_ext/435813987/system_interrupt.o
 .scommon       0xa000042c        0x0 build/pic32mx/debug/_ext/435813987/system_exceptions.o
 .scommon       0xa000042c        0x0 build/pic32mx/debug/_ext/435813987/system_tasks.o
 .scommon       0xa000042c       0x34 build/pic32mx/debug/_ext/1360937237/app.o
                0xa000042c                charbuff
                0xa0000430                check
                0xa0000434                dupa
                0xa0000438                AppBuffer2
                0xa000043c                addrw
                0xa0000440                Napiecie_int
                0xa0000444                wCurrentChunk
                0xa0000448                AppBuffer
                0xa000044c                portc
                0xa0000450                Napiecie_to_fix
                0xa0000454                wMaxPut
                0xa0000458                sxed
                0xa000045c                wMaxGet
                0xa000045e                port
 .scommon       0xa0000460        0x0 build/pic32mx/debug/_ext/1360937237/custom_http_app.o
 .scommon       0xa0000460        0x0 build/pic32mx/debug/_ext/1360937237/http_print.o
 .scommon       0xa0000460        0x0 build/pic32mx/debug/_ext/1908841681/drv_ethmac.o
 .scommon       0xa0000460        0x0 build/pic32mx/debug/_ext/1908841681/drv_ethmac_lib.o
 .scommon       0xa0000460        0x0 build/pic32mx/debug/_ext/732687875/drv_ethphy.o
 .scommon       0xa0000460        0x0 build/pic32mx/debug/_ext/732687875/drv_extphy_dp83848.o
 .scommon       0xa0000460        0xc build/pic32mx/debug/_ext/571308596/drv_nvm.o
                0xa0000460                gNVMGeometryTable
                0xa0000464                nvmClientObjMutex
                0xa0000465                nvmBufObjMutex
                0xa0000468                gDrvNVMMediaGeometry
 .scommon       0xa000046c        0x0 build/pic32mx/debug/_ext/185269848/drv_tmr.o
 .scommon       0xa000046c        0x0 build/pic32mx/debug/_ext/764219029/drv_usbfs.o
 .scommon       0xa000046c        0x0 build/pic32mx/debug/_ext/764219029/drv_usbfs_device.o
 .scommon       0xa000046c        0x0 build/pic32mx/debug/_ext/425903153/sys_command.o
 .scommon       0xa000046c        0x8 build/pic32mx/debug/_ext/30809027/sys_console_usb_cdc.o
                0xa000046c                rdQElements
 .scommon       0xa0000474        0x8 build/pic32mx/debug/_ext/1271179505/sys_devcon.o
                0xa0000474                sysDevconObj
 .scommon       0xa000047c       0x19 build/pic32mx/debug/_ext/2104899551/sys_fs.o
                0xa000047c                gSYSFSObj
                0xa0000484                mutexFileSystemObj
                0xa0000488                gSYSFSCurrentMountPoint
                0xa0000490                errorValue
                0xa0000494                mutexDirObj
 *fill*         0xa0000495        0x3 
 .scommon       0xa0000498        0x2 build/pic32mx/debug/_ext/2104899551/sys_fs_media_manager.o
                0xa0000498                VolToPart
 .scommon       0xa000049a        0x0 build/pic32mx/debug/_ext/1408260596/tcp.o
 .scommon       0xa000049a        0x0 build/pic32mx/debug/_ext/1408260596/udp.o
 .scommon       0xa000049a        0x0 build/pic32mx/debug/_ext/1408260596/arp.o
 .scommon       0xa000049a        0x0 build/pic32mx/debug/_ext/1408260596/dhcp.o
 .scommon       0xa000049a        0x0 build/pic32mx/debug/_ext/1408260596/dns.o
 .scommon       0xa000049a        0x0 build/pic32mx/debug/_ext/1408260596/http.o
 .scommon       0xa000049a        0x0 build/pic32mx/debug/_ext/1408260596/icmp.o
 .scommon       0xa000049a        0x0 build/pic32mx/debug/_ext/1408260596/nbns.o
 .scommon       0xa000049a        0x0 build/pic32mx/debug/_ext/1408260596/sntp.o
 .scommon       0xa000049a        0x0 build/pic32mx/debug/_ext/1408260596/zero_conf_helper.o
 .scommon       0xa000049a        0x0 build/pic32mx/debug/_ext/1408260596/zero_conf_link_local.o
 .scommon       0xa000049a        0x0 build/pic32mx/debug/_ext/1408260596/tcpip_announce.o
 .scommon       0xa000049a        0x0 build/pic32mx/debug/_ext/1408260596/tcpip_heap_alloc.o
 .scommon       0xa000049a        0x0 build/pic32mx/debug/_ext/1408260596/tcpip_helpers.o
 .scommon       0xa000049a        0x0 build/pic32mx/debug/_ext/1408260596/tcpip_manager.o
 .scommon       0xa000049a        0x0 build/pic32mx/debug/_ext/1408260596/tcpip_notify.o
 .scommon       0xa000049a        0x0 build/pic32mx/debug/_ext/1408260596/tcpip_packet.o
 .scommon       0xa000049a        0x0 build/pic32mx/debug/_ext/1408260596/ipv4.o
 *fill*         0xa000049a        0x2 
 .scommon       0xa000049c        0x2 build/pic32mx/debug/_ext/610166344/usb_device_cdc.o
                0xa000049c                gUSBDeviceCdcCommonDataObj
 .scommon       0xa000049e        0x0 ..\..\..\..\bin\framework\peripheral\PIC32MX795F512L_peripherals.a(plib_eth_lib.o)
                0xa000049e                _sbss_end = .
                0xa00004a0                . = ALIGN (0x4)
 *fill*         0xa000049e        0x2 

.bss            0xa0000600     0x2560
 *(.dynbss)
 *(COMMON)
 COMMON         0xa0000600       0x80 build/pic32mx/debug/_ext/435813987/system_init.o
                0xa0000600                endPointTable
                0xa0000660                sysObj
 COMMON         0xa0000680       0x5c build/pic32mx/debug/_ext/732687875/drv_ethphy.o
                0xa0000680                gDrvETHPHYClientObj
                0xa00006b4                gDrvETHPHYObj
 COMMON         0xa00006dc      0x13c build/pic32mx/debug/_ext/571308596/drv_nvm.o
                0xa00006dc                gDrvNVMObj
                0xa0000710                gDrvNVMBufferObject
                0xa0000800                gDrvNVMClientObj
 COMMON         0xa0000818       0xc0 build/pic32mx/debug/_ext/764219029/drv_usbfs.o
                0xa0000818                gDrvUSBGroup
 COMMON         0xa00008d8      0x400 build/pic32mx/debug/_ext/30809027/sys_console_usb_cdc.o
                0xa00008d8                wrQElements
 COMMON         0xa0000cd8     0x1c34 build/pic32mx/debug/_ext/2104899551/sys_fs.o
                0xa0000cd8                gSYSFSFileObj
                0xa0002768                gSYSFSDirObj
                0xa00028f8                gSYSFSMountPoint
 COMMON         0xa000290c       0x50 build/pic32mx/debug/_ext/2104899551/sys_fs_media_manager.o
                0xa000290c                gSYSFSMediaObject
                0xa000293c                gSYSFSVolumeObject
 COMMON         0xa000295c       0x10 build/pic32mx/debug/_ext/850537704/mpfs.o
                0xa000295c                mpfsObject
 COMMON         0xa000296c      0x108 build/pic32mx/debug/_ext/1283840359/sys_random.o
                0xa000296c                sysRandCtx
 COMMON         0xa0002a74       0x40 build/pic32mx/debug/_ext/1136935090/hashes.o
                0xa0002a74                lastBlock
 COMMON         0xa0002ab4       0xac build/pic32mx/debug/_ext/610166344/usb_device_cdc.o
                0xa0002ab4                gUSBDeviceCDCInstance
                0xa0002af4                gUSBDeviceCDCIRP
                0xa0002b60                . = ALIGN ((. != 0x0)?0x4:0x1)
                0xa0002b60                . = ALIGN (0x4)
                0xa0002b60                _end = .
                0xa0002b60                _bss_end = .
                0x00020000                _bmxdudba_address = 0x20000
                0x00020000                _bmxdupba_address = 0x20000

/DISCARD/
 *(.pdr)
 *(.rel.dyn)
 *(.note.GNU-stack)
 *(.note.GNU-stack)
 *(.gnu_debuglink)
 *(.gnu.lto_*)
 *(.discard)

.gptab.sdata
 *(.gptab.data)
 *(.gptab.sdata)

.gptab.sbss
 *(.gptab.bss)
 *(.gptab.sbss)

.mdebug.abi32   0xa0002b60        0x0
 *(.mdebug.abi32)
 .mdebug.abi32  0xa0002b60        0x0 c:/program files (x86)/microchip/xc32/v1.40/bin/bin/../../lib/gcc/pic32mx/4.8.3/../../../../pic32mx/lib\software-debug-break.o
 .mdebug.abi32  0xa0002b60        0x0 build/pic32mx/debug/_ext/1482089478/sys_clk_static.o
 .mdebug.abi32  0xa0002b60        0x0 build/pic32mx/debug/_ext/148571690/sys_ports_static.o
 .mdebug.abi32  0xa0002b60        0x0 build/pic32mx/debug/_ext/435813987/system_init.o
 .mdebug.abi32  0xa0002b60        0x0 build/pic32mx/debug/_ext/435813987/system_interrupt.o
 .mdebug.abi32  0xa0002b60        0x0 build/pic32mx/debug/_ext/435813987/system_exceptions.o
 .mdebug.abi32  0xa0002b60        0x0 build/pic32mx/debug/_ext/435813987/system_tasks.o
 .mdebug.abi32  0xa0002b60        0x0 build/pic32mx/debug/_ext/1360937237/app.o
 .mdebug.abi32  0xa0002b60        0x0 build/pic32mx/debug/_ext/1360937237/main.o
 .mdebug.abi32  0xa0002b60        0x0 build/pic32mx/debug/_ext/1360937237/custom_http_app.o
 .mdebug.abi32  0xa0002b60        0x0 build/pic32mx/debug/_ext/1360937237/http_print.o
 .mdebug.abi32  0xa0002b60        0x0 build/pic32mx/debug/_ext/1360937237/mpfs_img2.o
 .mdebug.abi32  0xa0002b60        0x0 build/pic32mx/debug/_ext/1837361561/bsp_sys_init.o
 .mdebug.abi32  0xa0002b60        0x0 build/pic32mx/debug/_ext/1886890887/random.o
 .mdebug.abi32  0xa0002b60        0x0 build/pic32mx/debug/_ext/1886890887/arc4.o
 .mdebug.abi32  0xa0002b60        0x0 build/pic32mx/debug/_ext/1886890887/crypto.o
 .mdebug.abi32  0xa0002b60        0x0 build/pic32mx/debug/_ext/1908841681/drv_ethmac.o
 .mdebug.abi32  0xa0002b60        0x0 build/pic32mx/debug/_ext/1908841681/drv_ethmac_lib.o
 .mdebug.abi32  0xa0002b60        0x0 build/pic32mx/debug/_ext/732687875/drv_ethphy.o
 .mdebug.abi32  0xa0002b60        0x0 build/pic32mx/debug/_ext/732687875/drv_extphy_dp83848.o
 .mdebug.abi32  0xa0002b60        0x0 build/pic32mx/debug/_ext/571308596/drv_nvm.o
 .mdebug.abi32  0xa0002b60        0x0 build/pic32mx/debug/_ext/571308596/drv_nvm_erasewrite.o
 .mdebug.abi32  0xa0002b60        0x0 build/pic32mx/debug/_ext/185269848/drv_tmr.o
 .mdebug.abi32  0xa0002b60        0x0 build/pic32mx/debug/_ext/764219029/drv_usbfs.o
 .mdebug.abi32  0xa0002b60        0x0 build/pic32mx/debug/_ext/764219029/drv_usbfs_device.o
 .mdebug.abi32  0xa0002b60        0x0 build/pic32mx/debug/_ext/425903153/sys_command.o
 .mdebug.abi32  0xa0002b60        0x0 build/pic32mx/debug/_ext/30809027/sys_console.o
 .mdebug.abi32  0xa0002b60        0x0 build/pic32mx/debug/_ext/30809027/sys_console_usb_cdc.o
 .mdebug.abi32  0xa0002b60        0x0 build/pic32mx/debug/_ext/1271179505/sys_devcon.o
 .mdebug.abi32  0xa0002b60        0x0 build/pic32mx/debug/_ext/1271179505/sys_devcon_pic32mx.o
 .mdebug.abi32  0xa0002b60        0x0 build/pic32mx/debug/_ext/2104899551/sys_fs.o
 .mdebug.abi32  0xa0002b60        0x0 build/pic32mx/debug/_ext/2104899551/sys_fs_media_manager.o
 .mdebug.abi32  0xa0002b60        0x0 build/pic32mx/debug/_ext/850537704/mpfs.o
 .mdebug.abi32  0xa0002b60        0x0 build/pic32mx/debug/_ext/122796885/sys_int_pic32.o
 .mdebug.abi32  0xa0002b60        0x0 build/pic32mx/debug/_ext/77319752/sys_ports.o
 .mdebug.abi32  0xa0002b60        0x0 build/pic32mx/debug/_ext/1283840359/sys_random.o
 .mdebug.abi32  0xa0002b60        0x0 build/pic32mx/debug/_ext/813494389/sys_reset.o
 .mdebug.abi32  0xa0002b60        0x0 build/pic32mx/debug/_ext/1264926591/sys_tmr.o
 .mdebug.abi32  0xa0002b60        0x0 build/pic32mx/debug/_ext/1136935090/sys_fs_wrapper.o
 .mdebug.abi32  0xa0002b60        0x0 build/pic32mx/debug/_ext/1136935090/big_int.o
 .mdebug.abi32  0xa0002b60        0x0 build/pic32mx/debug/_ext/1136935090/hashes.o
 .mdebug.abi32  0xa0002b60        0x0 build/pic32mx/debug/_ext/1136935090/helpers.o
 .mdebug.abi32  0xa0002b60        0x0 build/pic32mx/debug/_ext/1136935090/lfsr.o
 .mdebug.abi32  0xa0002b60        0x0 build/pic32mx/debug/_ext/1408260596/tcp.o
 .mdebug.abi32  0xa0002b60        0x0 build/pic32mx/debug/_ext/1408260596/udp.o
 .mdebug.abi32  0xa0002b60        0x0 build/pic32mx/debug/_ext/1408260596/arp.o
 .mdebug.abi32  0xa0002b60        0x0 build/pic32mx/debug/_ext/1408260596/dhcp.o
 .mdebug.abi32  0xa0002b60        0x0 build/pic32mx/debug/_ext/1408260596/dns.o
 .mdebug.abi32  0xa0002b60        0x0 build/pic32mx/debug/_ext/1408260596/http.o
 .mdebug.abi32  0xa0002b60        0x0 build/pic32mx/debug/_ext/1408260596/icmp.o
 .mdebug.abi32  0xa0002b60        0x0 build/pic32mx/debug/_ext/1408260596/nbns.o
 .mdebug.abi32  0xa0002b60        0x0 build/pic32mx/debug/_ext/1408260596/sntp.o
 .mdebug.abi32  0xa0002b60        0x0 build/pic32mx/debug/_ext/1408260596/zero_conf_helper.o
 .mdebug.abi32  0xa0002b60        0x0 build/pic32mx/debug/_ext/1408260596/zero_conf_link_local.o
 .mdebug.abi32  0xa0002b60        0x0 build/pic32mx/debug/_ext/1408260596/tcpip_announce.o
 .mdebug.abi32  0xa0002b60        0x0 build/pic32mx/debug/_ext/1408260596/hash_fnv.o
 .mdebug.abi32  0xa0002b60        0x0 build/pic32mx/debug/_ext/1408260596/oahash.o
 .mdebug.abi32  0xa0002b60        0x0 build/pic32mx/debug/_ext/1408260596/tcpip_heap_alloc.o
 .mdebug.abi32  0xa0002b60        0x0 build/pic32mx/debug/_ext/1408260596/tcpip_helpers.o
 .mdebug.abi32  0xa0002b60        0x0 build/pic32mx/debug/_ext/1408260596/tcpip_manager.o
 .mdebug.abi32  0xa0002b60        0x0 build/pic32mx/debug/_ext/1408260596/tcpip_notify.o
 .mdebug.abi32  0xa0002b60        0x0 build/pic32mx/debug/_ext/1408260596/tcpip_packet.o
 .mdebug.abi32  0xa0002b60        0x0 build/pic32mx/debug/_ext/1408260596/ipv4.o
 .mdebug.abi32  0xa0002b60        0x0 build/pic32mx/debug/_ext/610166344/usb_device.o
 .mdebug.abi32  0xa0002b60        0x0 build/pic32mx/debug/_ext/610166344/usb_device_cdc.o
 .mdebug.abi32  0xa0002b60        0x0 build/pic32mx/debug/_ext/610166344/usb_device_cdc_acm.o
 .mdebug.abi32  0xa0002b60        0x0 ..\..\..\..\bin\framework\peripheral\PIC32MX795F512L_peripherals.a(plib_eth_lib.o)
 .mdebug.abi32  0xa0002b60        0x0 c:/program files (x86)/microchip/xc32/v1.40/bin/bin/../../lib/gcc/pic32mx/4.8.3\libgcc.a(_udivdi3.o)
 .mdebug.abi32  0xa0002b60        0x0 c:/program files (x86)/microchip/xc32/v1.40/bin/bin/../../lib/gcc/pic32mx/4.8.3/../../../../pic32mx/lib\libpic32.a(default-bootstrap-exception-handler.o)
 .mdebug.abi32  0xa0002b60        0x0 c:/program files (x86)/microchip/xc32/v1.40/bin/bin/../../lib/gcc/pic32mx/4.8.3/../../../../pic32mx/lib\libpic32.a(default-on-reset.o)
 .mdebug.abi32  0xa0002b60        0x0 c:/program files (x86)/microchip/xc32/v1.40/bin/bin/../../lib/gcc/pic32mx/4.8.3/../../../../pic32mx/lib\libpic32.a(default-on-bootstrap.o)
 .mdebug.abi32  0xa0002b60        0x0 c:/program files (x86)/microchip/xc32/v1.40/bin/bin/../../lib/gcc/pic32mx/4.8.3/../../../../pic32mx/lib\libpic32.a(defaultinterrupt.o)
 .mdebug.abi32  0xa0002b60        0x0 c:/program files (x86)/microchip/xc32/v1.40/bin/bin/../../lib/gcc/pic32mx/4.8.3/../../../../pic32mx/lib\libc.a(atoi.o)
 .mdebug.abi32  0xa0002b60        0x0 c:/program files (x86)/microchip/xc32/v1.40/bin/bin/../../lib/gcc/pic32mx/4.8.3/../../../../pic32mx/lib\libc.a(atol.o)
 .mdebug.abi32  0xa0002b60        0x0 c:/program files (x86)/microchip/xc32/v1.40/bin/bin/../../lib/gcc/pic32mx/4.8.3/../../../../pic32mx/lib\libc.a(ctype.o)
 .mdebug.abi32  0xa0002b60        0x0 c:/program files (x86)/microchip/xc32/v1.40/bin/bin/../../lib/gcc/pic32mx/4.8.3/../../../../pic32mx/lib\libc.a(malloc.o)
 .mdebug.abi32  0xa0002b60        0x0 c:/program files (x86)/microchip/xc32/v1.40/bin/bin/../../lib/gcc/pic32mx/4.8.3/../../../../pic32mx/lib\libc.a(rand.o)
 .mdebug.abi32  0xa0002b60        0x0 c:/program files (x86)/microchip/xc32/v1.40/bin/bin/../../lib/gcc/pic32mx/4.8.3/../../../../pic32mx/lib\libc.a(strcat.o)
 .mdebug.abi32  0xa0002b60        0x0 c:/program files (x86)/microchip/xc32/v1.40/bin/bin/../../lib/gcc/pic32mx/4.8.3/../../../../pic32mx/lib\libc.a(strncat.o)
 .mdebug.abi32  0xa0002b60        0x0 c:/program files (x86)/microchip/xc32/v1.40/bin/bin/../../lib/gcc/pic32mx/4.8.3/../../../../pic32mx/lib\libc.a(strncmp.o)
 .mdebug.abi32  0xa0002b60        0x0 c:/program files (x86)/microchip/xc32/v1.40/bin/bin/../../lib/gcc/pic32mx/4.8.3/../../../../pic32mx/lib\libc.a(strncpy.o)
 .mdebug.abi32  0xa0002b60        0x0 c:/program files (x86)/microchip/xc32/v1.40/bin/bin/../../lib/gcc/pic32mx/4.8.3/../../../../pic32mx/lib\libc.a(strtol.o)
 .mdebug.abi32  0xa0002b60        0x0 c:/program files (x86)/microchip/xc32/v1.40/bin/bin/../../lib/gcc/pic32mx/4.8.3/../../../../pic32mx/lib\libc.a(sprintf_cdnopsuxX.eo)
 .mdebug.abi32  0xa0002b60        0x0 c:/program files (x86)/microchip/xc32/v1.40/bin/bin/../../lib/gcc/pic32mx/4.8.3/../../../../pic32mx/lib\libc.a(vsnprintf.o)
 .mdebug.abi32  0xa0002b60        0x0 c:/program files (x86)/microchip/xc32/v1.40/bin/bin/../../lib/gcc/pic32mx/4.8.3/../../../../pic32mx/lib\libc.a(ctypef.o)
 .mdebug.abi32  0xa0002b60        0x0 c:/program files (x86)/microchip/xc32/v1.40/bin/bin/../../lib/gcc/pic32mx/4.8.3/../../../../pic32mx/lib\libc.a(errno.o)
 .mdebug.abi32  0xa0002b60        0x0 c:/program files (x86)/microchip/xc32/v1.40/bin/bin/../../lib/gcc/pic32mx/4.8.3/../../../../pic32mx/lib\libc.a(doprnt_cdnopsuxX.eo)
 .mdebug.abi32  0xa0002b60        0x0 c:/program files (x86)/microchip/xc32/v1.40/bin/bin/../../lib/gcc/pic32mx/4.8.3/../../../../pic32mx/lib\libc.a(doprnt.o)
 .mdebug.abi32  0xa0002b60        0x0 c:/program files (x86)/microchip/xc32/v1.40/bin/bin/../../lib/gcc/pic32mx/4.8.3/../../../../pic32mx/lib\libc.a(_fputc_simple.o)
 .mdebug.abi32  0xa0002b60        0x0 c:/program files (x86)/microchip/xc32/v1.40/bin/bin/../../lib/gcc/pic32mx/4.8.3/../../../../pic32mx/lib\libc.a(powersf.o)
 .mdebug.abi32  0xa0002b60        0x0 c:/program files (x86)/microchip/xc32/v1.40/bin/bin/../../lib/gcc/pic32mx/4.8.3/../../../../pic32mx/lib\libc.a(_iob.o)
 .mdebug.abi32  0xa0002b60        0x0 c:/program files (x86)/microchip/xc32/v1.40/bin/bin/../../lib/gcc/pic32mx/4.8.3/../../../../pic32mx/lib\libc.a(_flsbuf_simple.o)
 .mdebug.abi32  0xa0002b60        0x0 c:/program files (x86)/microchip/xc32/v1.40/bin/bin/../../lib/gcc/pic32mx/4.8.3/../../../../pic32mx/lib\libpic32.a(sbrk.o)
 .mdebug.abi32  0xa0002b60        0x0 c:/program files (x86)/microchip/xc32/v1.40/bin/bin/../../lib/gcc/pic32mx/4.8.3/../../../../pic32mx/lib\libpic32.a(write.o)
 .mdebug.abi32  0xa0002b60        0x0 c:/program files (x86)/microchip/xc32/v1.40/bin/bin/../../lib/gcc/pic32mx/4.8.3/../../../../pic32mx/lib\libpic32.a(_mon_putc.o)
 .mdebug.abi32  0xa0002b60        0x0 c:/program files (x86)/microchip/xc32/v1.40/bin/bin/../../lib/gcc/pic32mx/4.8.3/../../../../pic32mx/lib\libpic32.a(xc32_uart.o)
 .mdebug.abi32  0xa0002b60        0x0 c:/program files (x86)/microchip/xc32/v1.40/bin/bin/../../lib/gcc/pic32mx/4.8.3/../../../../pic32mx/lib\libe.a(_floatdisf.o)
 .mdebug.abi32  0xa0002b60        0x0 c:/program files (x86)/microchip/xc32/v1.40/bin/bin/../../lib/gcc/pic32mx/4.8.3\libgcc.a(_umoddi3.o)
 .mdebug.abi32  0xa0002b60        0x0 c:/program files (x86)/microchip/xc32/v1.40/bin/bin/../../lib/gcc/pic32mx/4.8.3\libgcc.a(floatunsisf.o)

.mdebug.abiN32
 *(.mdebug.abiN32)

.mdebug.abi64
 *(.mdebug.abi64)

.mdebug.abiO64
 *(.mdebug.abiO64)

.mdebug.eabi32
 *(.mdebug.eabi32)

.mdebug.eabi64
 *(.mdebug.eabi64)

.gcc_compiled_long32
 *(.gcc_compiled_long32)

.gcc_compiled_long64
 *(.gcc_compiled_long64)

.stab
 *(.stab)

.stabstr
 *(.stabstr)

.stab.excl
 *(.stab.excl)

.stab.exclstr
 *(.stab.exclstr)

.stab.index
 *(.stab.index)

.stab.indexstr
 *(.stab.indexstr)

.comment        0x00000000      0x2b5
 *(.comment)
 .comment       0x00000000       0x3c c:/program files (x86)/microchip/xc32/v1.40/bin/bin/../../lib/gcc/pic32mx/4.8.3/../../../../pic32mx/lib\software-debug-break.o
                                 0x3d (size before relaxing)
 .comment       0x00000000       0x3d build/pic32mx/debug/_ext/1482089478/sys_clk_static.o
 .comment       0x00000000       0x3d build/pic32mx/debug/_ext/148571690/sys_ports_static.o
 .comment       0x00000000       0x3d build/pic32mx/debug/_ext/435813987/system_init.o
 .comment       0x00000000       0x3d build/pic32mx/debug/_ext/435813987/system_interrupt.o
 .comment       0x00000000       0x3d build/pic32mx/debug/_ext/435813987/system_exceptions.o
 .comment       0x00000000       0x3d build/pic32mx/debug/_ext/435813987/system_tasks.o
 .comment       0x00000000       0x3d build/pic32mx/debug/_ext/1360937237/app.o
 .comment       0x00000000       0x3d build/pic32mx/debug/_ext/1360937237/main.o
 .comment       0x00000000       0x3d build/pic32mx/debug/_ext/1360937237/custom_http_app.o
 .comment       0x00000000       0x3d build/pic32mx/debug/_ext/1360937237/http_print.o
 .comment       0x00000000       0x3d build/pic32mx/debug/_ext/1360937237/mpfs_img2.o
 .comment       0x00000000       0x3d build/pic32mx/debug/_ext/1837361561/bsp_sys_init.o
 .comment       0x00000000       0x3d build/pic32mx/debug/_ext/1886890887/random.o
 .comment       0x00000000       0x3d build/pic32mx/debug/_ext/1886890887/arc4.o
 .comment       0x00000000       0x3d build/pic32mx/debug/_ext/1886890887/crypto.o
 .comment       0x00000000       0x3d build/pic32mx/debug/_ext/1908841681/drv_ethmac.o
 .comment       0x00000000       0x3d build/pic32mx/debug/_ext/1908841681/drv_ethmac_lib.o
 .comment       0x00000000       0x3d build/pic32mx/debug/_ext/732687875/drv_ethphy.o
 .comment       0x00000000       0x3d build/pic32mx/debug/_ext/732687875/drv_extphy_dp83848.o
 .comment       0x00000000       0x3d build/pic32mx/debug/_ext/571308596/drv_nvm.o
 .comment       0x00000000       0x3d build/pic32mx/debug/_ext/571308596/drv_nvm_erasewrite.o
 .comment       0x00000000       0x3d build/pic32mx/debug/_ext/185269848/drv_tmr.o
 .comment       0x00000000       0x3d build/pic32mx/debug/_ext/764219029/drv_usbfs.o
 .comment       0x00000000       0x3d build/pic32mx/debug/_ext/764219029/drv_usbfs_device.o
 .comment       0x00000000       0x3d build/pic32mx/debug/_ext/425903153/sys_command.o
 .comment       0x00000000       0x3d build/pic32mx/debug/_ext/30809027/sys_console.o
 .comment       0x00000000       0x3d build/pic32mx/debug/_ext/30809027/sys_console_usb_cdc.o
 .comment       0x00000000       0x3d build/pic32mx/debug/_ext/1271179505/sys_devcon.o
 .comment       0x00000000       0x3d build/pic32mx/debug/_ext/1271179505/sys_devcon_pic32mx.o
 .comment       0x00000000       0x3d build/pic32mx/debug/_ext/2104899551/sys_fs.o
 .comment       0x00000000       0x3d build/pic32mx/debug/_ext/2104899551/sys_fs_media_manager.o
 .comment       0x00000000       0x3d build/pic32mx/debug/_ext/850537704/mpfs.o
 .comment       0x00000000       0x3d build/pic32mx/debug/_ext/122796885/sys_int_pic32.o
 .comment       0x00000000       0x3d build/pic32mx/debug/_ext/77319752/sys_ports.o
 .comment       0x00000000       0x3d build/pic32mx/debug/_ext/1283840359/sys_random.o
 .comment       0x00000000       0x3d build/pic32mx/debug/_ext/813494389/sys_reset.o
 .comment       0x00000000       0x3d build/pic32mx/debug/_ext/1264926591/sys_tmr.o
 .comment       0x00000000       0x3d build/pic32mx/debug/_ext/1136935090/sys_fs_wrapper.o
 .comment       0x00000000       0x3d build/pic32mx/debug/_ext/1136935090/big_int.o
 .comment       0x00000000       0x3d build/pic32mx/debug/_ext/1136935090/hashes.o
 .comment       0x00000000       0x3d build/pic32mx/debug/_ext/1136935090/helpers.o
 .comment       0x00000000       0x3d build/pic32mx/debug/_ext/1136935090/lfsr.o
 .comment       0x00000000       0x3d build/pic32mx/debug/_ext/1408260596/tcp.o
 .comment       0x00000000       0x3d build/pic32mx/debug/_ext/1408260596/udp.o
 .comment       0x00000000       0x3d build/pic32mx/debug/_ext/1408260596/arp.o
 .comment       0x00000000       0x3d build/pic32mx/debug/_ext/1408260596/dhcp.o
 .comment       0x00000000       0x3d build/pic32mx/debug/_ext/1408260596/dns.o
 .comment       0x00000000       0x3d build/pic32mx/debug/_ext/1408260596/http.o
 .comment       0x00000000       0x3d build/pic32mx/debug/_ext/1408260596/icmp.o
 .comment       0x00000000       0x3d build/pic32mx/debug/_ext/1408260596/nbns.o
 .comment       0x00000000       0x3d build/pic32mx/debug/_ext/1408260596/sntp.o
 .comment       0x00000000       0x3d build/pic32mx/debug/_ext/1408260596/zero_conf_helper.o
 .comment       0x00000000       0x3d build/pic32mx/debug/_ext/1408260596/zero_conf_link_local.o
 .comment       0x00000000       0x3d build/pic32mx/debug/_ext/1408260596/tcpip_announce.o
 .comment       0x00000000       0x3d build/pic32mx/debug/_ext/1408260596/hash_fnv.o
 .comment       0x00000000       0x3d build/pic32mx/debug/_ext/1408260596/oahash.o
 .comment       0x00000000       0x3d build/pic32mx/debug/_ext/1408260596/tcpip_heap_alloc.o
 .comment       0x00000000       0x3d build/pic32mx/debug/_ext/1408260596/tcpip_helpers.o
 .comment       0x00000000       0x3d build/pic32mx/debug/_ext/1408260596/tcpip_manager.o
 .comment       0x00000000       0x3d build/pic32mx/debug/_ext/1408260596/tcpip_notify.o
 .comment       0x00000000       0x3d build/pic32mx/debug/_ext/1408260596/tcpip_packet.o
 .comment       0x00000000       0x3d build/pic32mx/debug/_ext/1408260596/ipv4.o
 .comment       0x00000000       0x3d build/pic32mx/debug/_ext/610166344/usb_device.o
 .comment       0x00000000       0x3d build/pic32mx/debug/_ext/610166344/usb_device_cdc.o
 .comment       0x00000000       0x3d build/pic32mx/debug/_ext/610166344/usb_device_cdc_acm.o
 .comment       0x0000003c       0x3c ..\..\..\..\bin\framework\peripheral\PIC32MX795F512L_peripherals.a(plib_eth_lib.o)
                                 0x3d (size before relaxing)
 .comment       0x00000000       0x3d c:/program files (x86)/microchip/xc32/v1.40/bin/bin/../../lib/gcc/pic32mx/4.8.3\libgcc.a(_udivdi3.o)
 .comment       0x00000078       0x18 c:/program files (x86)/microchip/xc32/v1.40/bin/bin/../../lib/gcc/pic32mx/4.8.3/../../../../pic32mx/lib\libpic32.a(memcmp.o)
                                 0x19 (size before relaxing)
 .comment       0x00000090       0x18 c:/program files (x86)/microchip/xc32/v1.40/bin/bin/../../lib/gcc/pic32mx/4.8.3/../../../../pic32mx/lib\libpic32.a(memset.o)
                                 0x19 (size before relaxing)
 .comment       0x000000a8       0x55 c:/program files (x86)/microchip/xc32/v1.40/bin/bin/../../lib/gcc/pic32mx/4.8.3/../../../../pic32mx/lib\libpic32.a(strcmp.o)
                                 0x56 (size before relaxing)
 .comment       0x000000fd       0x19 c:/program files (x86)/microchip/xc32/v1.40/bin/bin/../../lib/gcc/pic32mx/4.8.3/../../../../pic32mx/lib\libpic32.a(strcpy.o)
                                 0x1a (size before relaxing)
 .comment       0x00000116       0x19 c:/program files (x86)/microchip/xc32/v1.40/bin/bin/../../lib/gcc/pic32mx/4.8.3/../../../../pic32mx/lib\libpic32.a(strlen.o)
                                 0x1a (size before relaxing)
 .comment       0x00000000       0x3d c:/program files (x86)/microchip/xc32/v1.40/bin/bin/../../lib/gcc/pic32mx/4.8.3/../../../../pic32mx/lib\libpic32.a(default-bootstrap-exception-handler.o)
 .comment       0x00000000       0x3d c:/program files (x86)/microchip/xc32/v1.40/bin/bin/../../lib/gcc/pic32mx/4.8.3/../../../../pic32mx/lib\libpic32.a(default-on-reset.o)
 .comment       0x00000000       0x3d c:/program files (x86)/microchip/xc32/v1.40/bin/bin/../../lib/gcc/pic32mx/4.8.3/../../../../pic32mx/lib\libpic32.a(default-on-bootstrap.o)
 .comment       0x00000000       0x3d c:/program files (x86)/microchip/xc32/v1.40/bin/bin/../../lib/gcc/pic32mx/4.8.3/../../../../pic32mx/lib\libpic32.a(defaultinterrupt.o)
 .comment       0x00000000       0x3d c:/program files (x86)/microchip/xc32/v1.40/bin/bin/../../lib/gcc/pic32mx/4.8.3/../../../../pic32mx/lib\libc.a(atoi.o)
 .comment       0x00000000       0x3d c:/program files (x86)/microchip/xc32/v1.40/bin/bin/../../lib/gcc/pic32mx/4.8.3/../../../../pic32mx/lib\libc.a(atol.o)
 .comment       0x0000012f       0x4e c:/program files (x86)/microchip/xc32/v1.40/bin/bin/../../lib/gcc/pic32mx/4.8.3/../../../../pic32mx/lib\libc.a(ctype.o)
                                 0x8b (size before relaxing)
 .comment       0x00000000       0x3d c:/program files (x86)/microchip/xc32/v1.40/bin/bin/../../lib/gcc/pic32mx/4.8.3/../../../../pic32mx/lib\libc.a(malloc.o)
 .comment       0x00000000       0x3d c:/program files (x86)/microchip/xc32/v1.40/bin/bin/../../lib/gcc/pic32mx/4.8.3/../../../../pic32mx/lib\libc.a(rand.o)
 .comment       0x00000000       0x3d c:/program files (x86)/microchip/xc32/v1.40/bin/bin/../../lib/gcc/pic32mx/4.8.3/../../../../pic32mx/lib\libc.a(strcat.o)
 .comment       0x00000000       0x3d c:/program files (x86)/microchip/xc32/v1.40/bin/bin/../../lib/gcc/pic32mx/4.8.3/../../../../pic32mx/lib\libc.a(strncat.o)
 .comment       0x00000000       0x3d c:/program files (x86)/microchip/xc32/v1.40/bin/bin/../../lib/gcc/pic32mx/4.8.3/../../../../pic32mx/lib\libc.a(strncmp.o)
 .comment       0x00000000       0x3d c:/program files (x86)/microchip/xc32/v1.40/bin/bin/../../lib/gcc/pic32mx/4.8.3/../../../../pic32mx/lib\libc.a(strncpy.o)
 .comment       0x00000000       0x3d c:/program files (x86)/microchip/xc32/v1.40/bin/bin/../../lib/gcc/pic32mx/4.8.3/../../../../pic32mx/lib\libc.a(strtol.o)
 .comment       0x00000000       0x3d c:/program files (x86)/microchip/xc32/v1.40/bin/bin/../../lib/gcc/pic32mx/4.8.3/../../../../pic32mx/lib\libc.a(sprintf_cdnopsuxX.eo)
 .comment       0x00000000       0x3d c:/program files (x86)/microchip/xc32/v1.40/bin/bin/../../lib/gcc/pic32mx/4.8.3/../../../../pic32mx/lib\libc.a(vsnprintf.o)
 .comment       0x0000017d       0x4f c:/program files (x86)/microchip/xc32/v1.40/bin/bin/../../lib/gcc/pic32mx/4.8.3/../../../../pic32mx/lib\libc.a(ctypef.o)
                                 0x8c (size before relaxing)
 .comment       0x00000000       0x3d c:/program files (x86)/microchip/xc32/v1.40/bin/bin/../../lib/gcc/pic32mx/4.8.3/../../../../pic32mx/lib\libc.a(errno.o)
 .comment       0x00000000       0x3d c:/program files (x86)/microchip/xc32/v1.40/bin/bin/../../lib/gcc/pic32mx/4.8.3/../../../../pic32mx/lib\libc.a(doprnt_cdnopsuxX.eo)
 .comment       0x00000000       0x3d c:/program files (x86)/microchip/xc32/v1.40/bin/bin/../../lib/gcc/pic32mx/4.8.3/../../../../pic32mx/lib\libc.a(doprnt.o)
 .comment       0x00000000       0x3d c:/program files (x86)/microchip/xc32/v1.40/bin/bin/../../lib/gcc/pic32mx/4.8.3/../../../../pic32mx/lib\libc.a(_fputc_simple.o)
 .comment       0x00000000       0x3d c:/program files (x86)/microchip/xc32/v1.40/bin/bin/../../lib/gcc/pic32mx/4.8.3/../../../../pic32mx/lib\libc.a(powersf.o)
 .comment       0x00000000       0x3d c:/program files (x86)/microchip/xc32/v1.40/bin/bin/../../lib/gcc/pic32mx/4.8.3/../../../../pic32mx/lib\libc.a(_iob.o)
 .comment       0x00000000       0x3d c:/program files (x86)/microchip/xc32/v1.40/bin/bin/../../lib/gcc/pic32mx/4.8.3/../../../../pic32mx/lib\libc.a(_flsbuf_simple.o)
 .comment       0x000001cc       0x4b c:/program files (x86)/microchip/xc32/v1.40/bin/bin/../../lib/gcc/pic32mx/4.8.3/../../../../pic32mx/lib\libpic32.a(sbrk.o)
                                 0x88 (size before relaxing)
 .comment       0x00000000       0x3d c:/program files (x86)/microchip/xc32/v1.40/bin/bin/../../lib/gcc/pic32mx/4.8.3/../../../../pic32mx/lib\libpic32.a(write.o)
 .comment       0x00000000       0x3d c:/program files (x86)/microchip/xc32/v1.40/bin/bin/../../lib/gcc/pic32mx/4.8.3/../../../../pic32mx/lib\libpic32.a(_mon_putc.o)
 .comment       0x00000000       0x3d c:/program files (x86)/microchip/xc32/v1.40/bin/bin/../../lib/gcc/pic32mx/4.8.3/../../../../pic32mx/lib\libpic32.a(xc32_uart.o)
 .comment       0x00000217       0x9e c:/program files (x86)/microchip/xc32/v1.40/bin/bin/../../lib/gcc/pic32mx/4.8.3/../../../../pic32mx/lib\libe.a(_floatdisf.o)
                                 0xdb (size before relaxing)
 .comment       0x00000000       0x3d c:/program files (x86)/microchip/xc32/v1.40/bin/bin/../../lib/gcc/pic32mx/4.8.3\libgcc.a(_umoddi3.o)
 .comment       0x00000000       0x3d c:/program files (x86)/microchip/xc32/v1.40/bin/bin/../../lib/gcc/pic32mx/4.8.3\libgcc.a(floatunsisf.o)

.debug
 *(.debug)

.line
 *(.line)

.debug_srcinfo
 *(.debug_srcinfo)

.debug_sfnames
 *(.debug_sfnames)

.debug_aranges  0x00000000     0x2e10
 *(.debug_aranges)
 .debug_aranges
                0x00000000       0x20 c:/program files (x86)/microchip/xc32/v1.40/bin/bin/../../lib/gcc/pic32mx/4.8.3/../../../../pic32mx/lib\software-debug-break.o
 .debug_aranges
                0x00000020       0x38 build/pic32mx/debug/_ext/1482089478/sys_clk_static.o
 .debug_aranges
                0x00000058       0x20 build/pic32mx/debug/_ext/148571690/sys_ports_static.o
 .debug_aranges
                0x00000078       0x28 build/pic32mx/debug/_ext/435813987/system_init.o
 .debug_aranges
                0x000000a0       0x40 build/pic32mx/debug/_ext/435813987/system_interrupt.o
 .debug_aranges
                0x000000e0       0x20 build/pic32mx/debug/_ext/435813987/system_exceptions.o
 .debug_aranges
                0x00000100       0x20 build/pic32mx/debug/_ext/435813987/system_tasks.o
 .debug_aranges
                0x00000120       0x38 build/pic32mx/debug/_ext/1360937237/app.o
 .debug_aranges
                0x00000158       0x20 build/pic32mx/debug/_ext/1360937237/main.o
 .debug_aranges
                0x00000178      0x130 build/pic32mx/debug/_ext/1360937237/custom_http_app.o
 .debug_aranges
                0x000002a8       0x28 build/pic32mx/debug/_ext/1360937237/http_print.o
 .debug_aranges
                0x000002d0       0x18 build/pic32mx/debug/_ext/1360937237/mpfs_img2.o
 .debug_aranges
                0x000002e8       0x50 build/pic32mx/debug/_ext/1837361561/bsp_sys_init.o
 .debug_aranges
                0x00000338       0x38 build/pic32mx/debug/_ext/1886890887/random.o
 .debug_aranges
                0x00000370       0x28 build/pic32mx/debug/_ext/1886890887/arc4.o
 .debug_aranges
                0x00000398       0x58 build/pic32mx/debug/_ext/1886890887/crypto.o
 .debug_aranges
                0x000003f0      0x180 build/pic32mx/debug/_ext/1908841681/drv_ethmac.o
 .debug_aranges
                0x00000570       0xf0 build/pic32mx/debug/_ext/1908841681/drv_ethmac_lib.o
 .debug_aranges
                0x00000660      0x280 build/pic32mx/debug/_ext/732687875/drv_ethphy.o
 .debug_aranges
                0x000008e0       0x30 build/pic32mx/debug/_ext/732687875/drv_extphy_dp83848.o
 .debug_aranges
                0x00000910       0xb8 build/pic32mx/debug/_ext/571308596/drv_nvm.o
 .debug_aranges
                0x000009c8       0x20 build/pic32mx/debug/_ext/571308596/drv_nvm_erasewrite.o
 .debug_aranges
                0x000009e8      0x178 build/pic32mx/debug/_ext/185269848/drv_tmr.o
 .debug_aranges
                0x00000b60       0x70 build/pic32mx/debug/_ext/764219029/drv_usbfs.o
 .debug_aranges
                0x00000bd0       0xb8 build/pic32mx/debug/_ext/764219029/drv_usbfs_device.o
 .debug_aranges
                0x00000c88       0xd0 build/pic32mx/debug/_ext/425903153/sys_command.o
 .debug_aranges
                0x00000d58       0x60 build/pic32mx/debug/_ext/30809027/sys_console.o
 .debug_aranges
                0x00000db8       0x68 build/pic32mx/debug/_ext/30809027/sys_console_usb_cdc.o
 .debug_aranges
                0x00000e20       0x78 build/pic32mx/debug/_ext/1271179505/sys_devcon.o
 .debug_aranges
                0x00000e98       0x20 build/pic32mx/debug/_ext/1271179505/sys_devcon_pic32mx.o
 .debug_aranges
                0x00000eb8      0x188 build/pic32mx/debug/_ext/2104899551/sys_fs.o
 .debug_aranges
                0x00001040       0x90 build/pic32mx/debug/_ext/2104899551/sys_fs_media_manager.o
 .debug_aranges
                0x000010d0       0xe0 build/pic32mx/debug/_ext/850537704/mpfs.o
 .debug_aranges
                0x000011b0       0x48 build/pic32mx/debug/_ext/122796885/sys_int_pic32.o
 .debug_aranges
                0x000011f8       0xf8 build/pic32mx/debug/_ext/77319752/sys_ports.o
 .debug_aranges
                0x000012f0       0x68 build/pic32mx/debug/_ext/1283840359/sys_random.o
 .debug_aranges
                0x00001358       0x20 build/pic32mx/debug/_ext/813494389/sys_reset.o
 .debug_aranges
                0x00001378       0xc8 build/pic32mx/debug/_ext/1264926591/sys_tmr.o
 .debug_aranges
                0x00001440       0x40 build/pic32mx/debug/_ext/1136935090/sys_fs_wrapper.o
 .debug_aranges
                0x00001480       0x80 build/pic32mx/debug/_ext/1136935090/big_int.o
 .debug_aranges
                0x00001500       0x20 build/pic32mx/debug/_ext/1136935090/big_int_helper_c32.o
 .debug_aranges
                0x00001520       0x60 build/pic32mx/debug/_ext/1136935090/hashes.o
 .debug_aranges
                0x00001580       0x58 build/pic32mx/debug/_ext/1136935090/helpers.o
 .debug_aranges
                0x000015d8       0x28 build/pic32mx/debug/_ext/1136935090/lfsr.o
 .debug_aranges
                0x00001600      0x258 build/pic32mx/debug/_ext/1408260596/tcp.o
 .debug_aranges
                0x00001858      0x1d0 build/pic32mx/debug/_ext/1408260596/udp.o
 .debug_aranges
                0x00001a28      0x128 build/pic32mx/debug/_ext/1408260596/arp.o
 .debug_aranges
                0x00001b50      0x170 build/pic32mx/debug/_ext/1408260596/dhcp.o
 .debug_aranges
                0x00001cc0      0x140 build/pic32mx/debug/_ext/1408260596/dns.o
 .debug_aranges
                0x00001e00      0x110 build/pic32mx/debug/_ext/1408260596/http.o
 .debug_aranges
                0x00001f10       0x58 build/pic32mx/debug/_ext/1408260596/icmp.o
 .debug_aranges
                0x00001f68       0x38 build/pic32mx/debug/_ext/1408260596/nbns.o
 .debug_aranges
                0x00001fa0       0x60 build/pic32mx/debug/_ext/1408260596/sntp.o
 .debug_aranges
                0x00002000       0x20 build/pic32mx/debug/_ext/1408260596/zero_conf_helper.o
 .debug_aranges
                0x00002020       0x70 build/pic32mx/debug/_ext/1408260596/zero_conf_link_local.o
 .debug_aranges
                0x00002090       0x50 build/pic32mx/debug/_ext/1408260596/tcpip_announce.o
 .debug_aranges
                0x000020e0       0x28 build/pic32mx/debug/_ext/1408260596/hash_fnv.o
 .debug_aranges
                0x00002108       0x50 build/pic32mx/debug/_ext/1408260596/oahash.o
 .debug_aranges
                0x00002158       0x60 build/pic32mx/debug/_ext/1408260596/tcpip_heap_alloc.o
 .debug_aranges
                0x000021b8      0x1d0 build/pic32mx/debug/_ext/1408260596/tcpip_helpers.o
 .debug_aranges
                0x00002388       0x20 build/pic32mx/debug/_ext/1408260596/tcpip_helper_c32.o
 .debug_aranges
                0x000023a8      0x2f8 build/pic32mx/debug/_ext/1408260596/tcpip_manager.o
 .debug_aranges
                0x000026a0       0x40 build/pic32mx/debug/_ext/1408260596/tcpip_notify.o
 .debug_aranges
                0x000026e0       0xa0 build/pic32mx/debug/_ext/1408260596/tcpip_packet.o
 .debug_aranges
                0x00002780       0x68 build/pic32mx/debug/_ext/1408260596/ipv4.o
 .debug_aranges
                0x000027e8      0x150 build/pic32mx/debug/_ext/610166344/usb_device.o
 .debug_aranges
                0x00002938       0x88 build/pic32mx/debug/_ext/610166344/usb_device_cdc.o
 .debug_aranges
                0x000029c0       0x20 build/pic32mx/debug/_ext/610166344/usb_device_cdc_acm.o
 .debug_aranges
                0x000029e0       0x20 c:/program files (x86)/microchip/xc32/v1.40/bin/bin/../../lib/gcc/pic32mx/4.8.3\libgcc.a(_udivdi3.o)
 .debug_aranges
                0x00002a00       0x20 c:/program files (x86)/microchip/xc32/v1.40/bin/bin/../../lib/gcc/pic32mx/4.8.3/../../../../pic32mx/lib\libpic32.a(default-bootstrap-exception-handler.o)
 .debug_aranges
                0x00002a20       0x20 c:/program files (x86)/microchip/xc32/v1.40/bin/bin/../../lib/gcc/pic32mx/4.8.3/../../../../pic32mx/lib\libpic32.a(default-on-reset.o)
 .debug_aranges
                0x00002a40       0x20 c:/program files (x86)/microchip/xc32/v1.40/bin/bin/../../lib/gcc/pic32mx/4.8.3/../../../../pic32mx/lib\libpic32.a(default-on-bootstrap.o)
 .debug_aranges
                0x00002a60       0x20 c:/program files (x86)/microchip/xc32/v1.40/bin/bin/../../lib/gcc/pic32mx/4.8.3/../../../../pic32mx/lib\libpic32.a(defaultinterrupt.o)
 .debug_aranges
                0x00002a80       0x20 c:/program files (x86)/microchip/xc32/v1.40/bin/bin/../../lib/gcc/pic32mx/4.8.3/../../../../pic32mx/lib\libc.a(atoi.o)
 .debug_aranges
                0x00002aa0       0x20 c:/program files (x86)/microchip/xc32/v1.40/bin/bin/../../lib/gcc/pic32mx/4.8.3/../../../../pic32mx/lib\libc.a(atol.o)
 .debug_aranges
                0x00002ac0       0x30 c:/program files (x86)/microchip/xc32/v1.40/bin/bin/../../lib/gcc/pic32mx/4.8.3/../../../../pic32mx/lib\libc.a(malloc.o)
 .debug_aranges
                0x00002af0       0x28 c:/program files (x86)/microchip/xc32/v1.40/bin/bin/../../lib/gcc/pic32mx/4.8.3/../../../../pic32mx/lib\libc.a(rand.o)
 .debug_aranges
                0x00002b18       0x20 c:/program files (x86)/microchip/xc32/v1.40/bin/bin/../../lib/gcc/pic32mx/4.8.3/../../../../pic32mx/lib\libc.a(strcat.o)
 .debug_aranges
                0x00002b38       0x20 c:/program files (x86)/microchip/xc32/v1.40/bin/bin/../../lib/gcc/pic32mx/4.8.3/../../../../pic32mx/lib\libc.a(strncat.o)
 .debug_aranges
                0x00002b58       0x20 c:/program files (x86)/microchip/xc32/v1.40/bin/bin/../../lib/gcc/pic32mx/4.8.3/../../../../pic32mx/lib\libc.a(strncmp.o)
 .debug_aranges
                0x00002b78       0x20 c:/program files (x86)/microchip/xc32/v1.40/bin/bin/../../lib/gcc/pic32mx/4.8.3/../../../../pic32mx/lib\libc.a(strncpy.o)
 .debug_aranges
                0x00002b98       0x28 c:/program files (x86)/microchip/xc32/v1.40/bin/bin/../../lib/gcc/pic32mx/4.8.3/../../../../pic32mx/lib\libc.a(strtol.o)
 .debug_aranges
                0x00002bc0       0x20 c:/program files (x86)/microchip/xc32/v1.40/bin/bin/../../lib/gcc/pic32mx/4.8.3/../../../../pic32mx/lib\libc.a(sprintf_cdnopsuxX.eo)
 .debug_aranges
                0x00002be0       0x20 c:/program files (x86)/microchip/xc32/v1.40/bin/bin/../../lib/gcc/pic32mx/4.8.3/../../../../pic32mx/lib\libc.a(vsnprintf.o)
 .debug_aranges
                0x00002c00       0xa0 c:/program files (x86)/microchip/xc32/v1.40/bin/bin/../../lib/gcc/pic32mx/4.8.3/../../../../pic32mx/lib\libc.a(ctypef.o)
 .debug_aranges
                0x00002ca0       0x20 c:/program files (x86)/microchip/xc32/v1.40/bin/bin/../../lib/gcc/pic32mx/4.8.3/../../../../pic32mx/lib\libc.a(doprnt_cdnopsuxX.eo)
 .debug_aranges
                0x00002cc0       0x30 c:/program files (x86)/microchip/xc32/v1.40/bin/bin/../../lib/gcc/pic32mx/4.8.3/../../../../pic32mx/lib\libc.a(doprnt.o)
 .debug_aranges
                0x00002cf0       0x20 c:/program files (x86)/microchip/xc32/v1.40/bin/bin/../../lib/gcc/pic32mx/4.8.3/../../../../pic32mx/lib\libc.a(_fputc_simple.o)
 .debug_aranges
                0x00002d10       0x20 c:/program files (x86)/microchip/xc32/v1.40/bin/bin/../../lib/gcc/pic32mx/4.8.3/../../../../pic32mx/lib\libc.a(_flsbuf_simple.o)
 .debug_aranges
                0x00002d30       0x40 c:/program files (x86)/microchip/xc32/v1.40/bin/bin/../../lib/gcc/pic32mx/4.8.3/../../../../pic32mx/lib\libpic32.a(sbrk.o)
 .debug_aranges
                0x00002d70       0x20 c:/program files (x86)/microchip/xc32/v1.40/bin/bin/../../lib/gcc/pic32mx/4.8.3/../../../../pic32mx/lib\libpic32.a(write.o)
 .debug_aranges
                0x00002d90       0x20 c:/program files (x86)/microchip/xc32/v1.40/bin/bin/../../lib/gcc/pic32mx/4.8.3/../../../../pic32mx/lib\libpic32.a(_mon_putc.o)
 .debug_aranges
                0x00002db0       0x20 c:/program files (x86)/microchip/xc32/v1.40/bin/bin/../../lib/gcc/pic32mx/4.8.3/../../../../pic32mx/lib\libe.a(_floatdisf.o)
 .debug_aranges
                0x00002dd0       0x20 c:/program files (x86)/microchip/xc32/v1.40/bin/bin/../../lib/gcc/pic32mx/4.8.3\libgcc.a(_umoddi3.o)
 .debug_aranges
                0x00002df0       0x20 c:/program files (x86)/microchip/xc32/v1.40/bin/bin/../../lib/gcc/pic32mx/4.8.3\libgcc.a(floatunsisf.o)

.debug_pubnames
 *(.debug_pubnames)

.debug_info     0x00000000    0xe1972
 *(.debug_info .gnu.linkonce.wi.*)
 .debug_info    0x00000000       0xd3 c:/program files (x86)/microchip/xc32/v1.40/bin/bin/../../lib/gcc/pic32mx/4.8.3/../../../../pic32mx/lib\software-debug-break.o
 .debug_info    0x000000d3     0x206c build/pic32mx/debug/_ext/1482089478/sys_clk_static.o
 .debug_info    0x0000213f     0x1097 build/pic32mx/debug/_ext/148571690/sys_ports_static.o
 .debug_info    0x000031d6     0x856f build/pic32mx/debug/_ext/435813987/system_init.o
 .debug_info    0x0000b745     0x24a3 build/pic32mx/debug/_ext/435813987/system_interrupt.o
 .debug_info    0x0000dbe8     0x1792 build/pic32mx/debug/_ext/435813987/system_exceptions.o
 .debug_info    0x0000f37a     0x1982 build/pic32mx/debug/_ext/435813987/system_tasks.o
 .debug_info    0x00010cfc     0x2ade build/pic32mx/debug/_ext/1360937237/app.o
 .debug_info    0x000137da      0x1a7 build/pic32mx/debug/_ext/1360937237/main.o
 .debug_info    0x00013981     0x3e81 build/pic32mx/debug/_ext/1360937237/custom_http_app.o
 .debug_info    0x00017802      0xb0f build/pic32mx/debug/_ext/1360937237/http_print.o
 .debug_info    0x00018311      0x54e build/pic32mx/debug/_ext/1360937237/mpfs_img2.o
 .debug_info    0x0001885f      0xea4 build/pic32mx/debug/_ext/1837361561/bsp_sys_init.o
 .debug_info    0x00019703      0x755 build/pic32mx/debug/_ext/1886890887/random.o
 .debug_info    0x00019e58      0x5b5 build/pic32mx/debug/_ext/1886890887/arc4.o
 .debug_info    0x0001a40d      0xf24 build/pic32mx/debug/_ext/1886890887/crypto.o
 .debug_info    0x0001b331     0x9c7a build/pic32mx/debug/_ext/1908841681/drv_ethmac.o
 .debug_info    0x00024fab     0x8f67 build/pic32mx/debug/_ext/1908841681/drv_ethmac_lib.o
 .debug_info    0x0002df12     0x72c2 build/pic32mx/debug/_ext/732687875/drv_ethphy.o
 .debug_info    0x000351d4     0x1247 build/pic32mx/debug/_ext/732687875/drv_extphy_dp83848.o
 .debug_info    0x0003641b     0x3deb build/pic32mx/debug/_ext/571308596/drv_nvm.o
 .debug_info    0x0003a206     0x1af8 build/pic32mx/debug/_ext/571308596/drv_nvm_erasewrite.o
 .debug_info    0x0003bcfe     0x7b9f build/pic32mx/debug/_ext/185269848/drv_tmr.o
 .debug_info    0x0004389d     0x3d56 build/pic32mx/debug/_ext/764219029/drv_usbfs.o
 .debug_info    0x000475f3     0x6a6f build/pic32mx/debug/_ext/764219029/drv_usbfs_device.o
 .debug_info    0x0004e062     0x397a build/pic32mx/debug/_ext/425903153/sys_command.o
 .debug_info    0x000519dc      0xf71 build/pic32mx/debug/_ext/30809027/sys_console.o
 .debug_info    0x0005294d     0x48e4 build/pic32mx/debug/_ext/30809027/sys_console_usb_cdc.o
 .debug_info    0x00057231     0x13a8 build/pic32mx/debug/_ext/1271179505/sys_devcon.o
 .debug_info    0x000585d9      0xf43 build/pic32mx/debug/_ext/1271179505/sys_devcon_pic32mx.o
 .debug_info    0x0005951c     0x3c81 build/pic32mx/debug/_ext/2104899551/sys_fs.o
 .debug_info    0x0005d19d     0x22f6 build/pic32mx/debug/_ext/2104899551/sys_fs_media_manager.o
 .debug_info    0x0005f493     0x1a08 build/pic32mx/debug/_ext/850537704/mpfs.o
 .debug_info    0x00060e9b     0x17b2 build/pic32mx/debug/_ext/122796885/sys_int_pic32.o
 .debug_info    0x0006264d     0x3254 build/pic32mx/debug/_ext/77319752/sys_ports.o
 .debug_info    0x000658a1      0xb9a build/pic32mx/debug/_ext/1283840359/sys_random.o
 .debug_info    0x0006643b      0x527 build/pic32mx/debug/_ext/813494389/sys_reset.o
 .debug_info    0x00066962     0x252c build/pic32mx/debug/_ext/1264926591/sys_tmr.o
 .debug_info    0x00068e8e      0xa52 build/pic32mx/debug/_ext/1136935090/sys_fs_wrapper.o
 .debug_info    0x000698e0      0x955 build/pic32mx/debug/_ext/1136935090/big_int.o
 .debug_info    0x0006a235       0xa5 build/pic32mx/debug/_ext/1136935090/big_int_helper_c32.o
 .debug_info    0x0006a2da      0x9a3 build/pic32mx/debug/_ext/1136935090/hashes.o
 .debug_info    0x0006ac7d      0x5a6 build/pic32mx/debug/_ext/1136935090/helpers.o
 .debug_info    0x0006b223      0x21d build/pic32mx/debug/_ext/1136935090/lfsr.o
 .debug_info    0x0006b440     0x9fde build/pic32mx/debug/_ext/1408260596/tcp.o
 .debug_info    0x0007541e     0x86e7 build/pic32mx/debug/_ext/1408260596/udp.o
 .debug_info    0x0007db05     0x70c2 build/pic32mx/debug/_ext/1408260596/arp.o
 .debug_info    0x00084bc7     0x8de9 build/pic32mx/debug/_ext/1408260596/dhcp.o
 .debug_info    0x0008d9b0     0x7ff8 build/pic32mx/debug/_ext/1408260596/dns.o
 .debug_info    0x000959a8     0x7808 build/pic32mx/debug/_ext/1408260596/http.o
 .debug_info    0x0009d1b0     0x5189 build/pic32mx/debug/_ext/1408260596/icmp.o
 .debug_info    0x000a2339     0x43b6 build/pic32mx/debug/_ext/1408260596/nbns.o
 .debug_info    0x000a66ef     0x4b10 build/pic32mx/debug/_ext/1408260596/sntp.o
 .debug_info    0x000ab1ff     0x17cf build/pic32mx/debug/_ext/1408260596/zero_conf_helper.o
 .debug_info    0x000ac9ce     0x4c99 build/pic32mx/debug/_ext/1408260596/zero_conf_link_local.o
 .debug_info    0x000b1667     0x4b9f build/pic32mx/debug/_ext/1408260596/tcpip_announce.o
 .debug_info    0x000b6206      0x265 build/pic32mx/debug/_ext/1408260596/hash_fnv.o
 .debug_info    0x000b646b      0x891 build/pic32mx/debug/_ext/1408260596/oahash.o
 .debug_info    0x000b6cfc     0x25ac build/pic32mx/debug/_ext/1408260596/tcpip_heap_alloc.o
 .debug_info    0x000b92a8     0x5818 build/pic32mx/debug/_ext/1408260596/tcpip_helpers.o
 .debug_info    0x000beac0       0x9c build/pic32mx/debug/_ext/1408260596/tcpip_helper_c32.o
 .debug_info    0x000beb5c     0xa535 build/pic32mx/debug/_ext/1408260596/tcpip_manager.o
 .debug_info    0x000c9091     0x1c6b build/pic32mx/debug/_ext/1408260596/tcpip_notify.o
 .debug_info    0x000cacfc     0x310f build/pic32mx/debug/_ext/1408260596/tcpip_packet.o
 .debug_info    0x000cde0b     0x5c3e build/pic32mx/debug/_ext/1408260596/ipv4.o
 .debug_info    0x000d3a49     0x5848 build/pic32mx/debug/_ext/610166344/usb_device.o
 .debug_info    0x000d9291     0x4e3d build/pic32mx/debug/_ext/610166344/usb_device_cdc.o
 .debug_info    0x000de0ce     0x1499 build/pic32mx/debug/_ext/610166344/usb_device_cdc_acm.o
 .debug_info    0x000df567      0x74f c:/program files (x86)/microchip/xc32/v1.40/bin/bin/../../lib/gcc/pic32mx/4.8.3\libgcc.a(_udivdi3.o)
 .debug_info    0x000dfcb6       0xe3 c:/program files (x86)/microchip/xc32/v1.40/bin/bin/../../lib/gcc/pic32mx/4.8.3/../../../../pic32mx/lib\libpic32.a(default-bootstrap-exception-handler.o)
 .debug_info    0x000dfd99       0xbd c:/program files (x86)/microchip/xc32/v1.40/bin/bin/../../lib/gcc/pic32mx/4.8.3/../../../../pic32mx/lib\libpic32.a(default-on-reset.o)
 .debug_info    0x000dfe56       0xc5 c:/program files (x86)/microchip/xc32/v1.40/bin/bin/../../lib/gcc/pic32mx/4.8.3/../../../../pic32mx/lib\libpic32.a(default-on-bootstrap.o)
 .debug_info    0x000dff1b       0xd7 c:/program files (x86)/microchip/xc32/v1.40/bin/bin/../../lib/gcc/pic32mx/4.8.3/../../../../pic32mx/lib\libpic32.a(defaultinterrupt.o)
 .debug_info    0x000dfff2       0xb2 c:/program files (x86)/microchip/xc32/v1.40/bin/bin/../../lib/gcc/pic32mx/4.8.3/../../../../pic32mx/lib\libc.a(atoi.o)
 .debug_info    0x000e00a4       0xb2 c:/program files (x86)/microchip/xc32/v1.40/bin/bin/../../lib/gcc/pic32mx/4.8.3/../../../../pic32mx/lib\libc.a(atol.o)
 .debug_info    0x000e0156       0xe7 c:/program files (x86)/microchip/xc32/v1.40/bin/bin/../../lib/gcc/pic32mx/4.8.3/../../../../pic32mx/lib\libc.a(malloc.o)
 .debug_info    0x000e023d       0xcd c:/program files (x86)/microchip/xc32/v1.40/bin/bin/../../lib/gcc/pic32mx/4.8.3/../../../../pic32mx/lib\libc.a(rand.o)
 .debug_info    0x000e030a       0xb6 c:/program files (x86)/microchip/xc32/v1.40/bin/bin/../../lib/gcc/pic32mx/4.8.3/../../../../pic32mx/lib\libc.a(strcat.o)
 .debug_info    0x000e03c0       0xb8 c:/program files (x86)/microchip/xc32/v1.40/bin/bin/../../lib/gcc/pic32mx/4.8.3/../../../../pic32mx/lib\libc.a(strncat.o)
 .debug_info    0x000e0478       0xb8 c:/program files (x86)/microchip/xc32/v1.40/bin/bin/../../lib/gcc/pic32mx/4.8.3/../../../../pic32mx/lib\libc.a(strncmp.o)
 .debug_info    0x000e0530       0xb8 c:/program files (x86)/microchip/xc32/v1.40/bin/bin/../../lib/gcc/pic32mx/4.8.3/../../../../pic32mx/lib\libc.a(strncpy.o)
 .debug_info    0x000e05e8       0xcd c:/program files (x86)/microchip/xc32/v1.40/bin/bin/../../lib/gcc/pic32mx/4.8.3/../../../../pic32mx/lib\libc.a(strtol.o)
 .debug_info    0x000e06b5       0xc3 c:/program files (x86)/microchip/xc32/v1.40/bin/bin/../../lib/gcc/pic32mx/4.8.3/../../../../pic32mx/lib\libc.a(sprintf_cdnopsuxX.eo)
 .debug_info    0x000e0778       0xbc c:/program files (x86)/microchip/xc32/v1.40/bin/bin/../../lib/gcc/pic32mx/4.8.3/../../../../pic32mx/lib\libc.a(vsnprintf.o)
 .debug_info    0x000e0834      0x22a c:/program files (x86)/microchip/xc32/v1.40/bin/bin/../../lib/gcc/pic32mx/4.8.3/../../../../pic32mx/lib\libc.a(ctypef.o)
 .debug_info    0x000e0a5e       0xc4 c:/program files (x86)/microchip/xc32/v1.40/bin/bin/../../lib/gcc/pic32mx/4.8.3/../../../../pic32mx/lib\libc.a(doprnt_cdnopsuxX.eo)
 .debug_info    0x000e0b22       0xf0 c:/program files (x86)/microchip/xc32/v1.40/bin/bin/../../lib/gcc/pic32mx/4.8.3/../../../../pic32mx/lib\libc.a(doprnt.o)
 .debug_info    0x000e0c12       0xb4 c:/program files (x86)/microchip/xc32/v1.40/bin/bin/../../lib/gcc/pic32mx/4.8.3/../../../../pic32mx/lib\libc.a(_fputc_simple.o)
 .debug_info    0x000e0cc6       0xb7 c:/program files (x86)/microchip/xc32/v1.40/bin/bin/../../lib/gcc/pic32mx/4.8.3/../../../../pic32mx/lib\libc.a(_flsbuf_simple.o)
 .debug_info    0x000e0d7d      0x11a c:/program files (x86)/microchip/xc32/v1.40/bin/bin/../../lib/gcc/pic32mx/4.8.3/../../../../pic32mx/lib\libpic32.a(sbrk.o)
 .debug_info    0x000e0e97       0xae c:/program files (x86)/microchip/xc32/v1.40/bin/bin/../../lib/gcc/pic32mx/4.8.3/../../../../pic32mx/lib\libpic32.a(write.o)
 .debug_info    0x000e0f45       0xb6 c:/program files (x86)/microchip/xc32/v1.40/bin/bin/../../lib/gcc/pic32mx/4.8.3/../../../../pic32mx/lib\libpic32.a(_mon_putc.o)
 .debug_info    0x000e0ffb       0xcc c:/program files (x86)/microchip/xc32/v1.40/bin/bin/../../lib/gcc/pic32mx/4.8.3/../../../../pic32mx/lib\libe.a(_floatdisf.o)
 .debug_info    0x000e10c7      0x78c c:/program files (x86)/microchip/xc32/v1.40/bin/bin/../../lib/gcc/pic32mx/4.8.3\libgcc.a(_umoddi3.o)
 .debug_info    0x000e1853      0x11f c:/program files (x86)/microchip/xc32/v1.40/bin/bin/../../lib/gcc/pic32mx/4.8.3\libgcc.a(floatunsisf.o)

.debug_abbrev   0x00000000     0xdd64
 *(.debug_abbrev)
 .debug_abbrev  0x00000000       0x28 c:/program files (x86)/microchip/xc32/v1.40/bin/bin/../../lib/gcc/pic32mx/4.8.3/../../../../pic32mx/lib\software-debug-break.o
 .debug_abbrev  0x00000028      0x2a9 build/pic32mx/debug/_ext/1482089478/sys_clk_static.o
 .debug_abbrev  0x000002d1      0x12f build/pic32mx/debug/_ext/148571690/sys_ports_static.o
 .debug_abbrev  0x00000400      0x40f build/pic32mx/debug/_ext/435813987/system_init.o
 .debug_abbrev  0x0000080f      0x233 build/pic32mx/debug/_ext/435813987/system_interrupt.o
 .debug_abbrev  0x00000a42      0x13d build/pic32mx/debug/_ext/435813987/system_exceptions.o
 .debug_abbrev  0x00000b7f      0x181 build/pic32mx/debug/_ext/435813987/system_tasks.o
 .debug_abbrev  0x00000d00      0x2d7 build/pic32mx/debug/_ext/1360937237/app.o
 .debug_abbrev  0x00000fd7       0x93 build/pic32mx/debug/_ext/1360937237/main.o
 .debug_abbrev  0x0000106a      0x3c9 build/pic32mx/debug/_ext/1360937237/custom_http_app.o
 .debug_abbrev  0x00001433      0x149 build/pic32mx/debug/_ext/1360937237/http_print.o
 .debug_abbrev  0x0000157c       0xb8 build/pic32mx/debug/_ext/1360937237/mpfs_img2.o
 .debug_abbrev  0x00001634      0x18d build/pic32mx/debug/_ext/1837361561/bsp_sys_init.o
 .debug_abbrev  0x000017c1      0x16e build/pic32mx/debug/_ext/1886890887/random.o
 .debug_abbrev  0x0000192f      0x149 build/pic32mx/debug/_ext/1886890887/arc4.o
 .debug_abbrev  0x00001a78      0x158 build/pic32mx/debug/_ext/1886890887/crypto.o
 .debug_abbrev  0x00001bd0      0x602 build/pic32mx/debug/_ext/1908841681/drv_ethmac.o
 .debug_abbrev  0x000021d2      0x5fa build/pic32mx/debug/_ext/1908841681/drv_ethmac_lib.o
 .debug_abbrev  0x000027cc      0x574 build/pic32mx/debug/_ext/732687875/drv_ethphy.o
 .debug_abbrev  0x00002d40      0x1f8 build/pic32mx/debug/_ext/732687875/drv_extphy_dp83848.o
 .debug_abbrev  0x00002f38      0x44f build/pic32mx/debug/_ext/571308596/drv_nvm.o
 .debug_abbrev  0x00003387      0x239 build/pic32mx/debug/_ext/571308596/drv_nvm_erasewrite.o
 .debug_abbrev  0x000035c0      0x576 build/pic32mx/debug/_ext/185269848/drv_tmr.o
 .debug_abbrev  0x00003b36      0x47b build/pic32mx/debug/_ext/764219029/drv_usbfs.o
 .debug_abbrev  0x00003fb1      0x4fb build/pic32mx/debug/_ext/764219029/drv_usbfs_device.o
 .debug_abbrev  0x000044ac      0x4d7 build/pic32mx/debug/_ext/425903153/sys_command.o
 .debug_abbrev  0x00004983      0x272 build/pic32mx/debug/_ext/30809027/sys_console.o
 .debug_abbrev  0x00004bf5      0x479 build/pic32mx/debug/_ext/30809027/sys_console_usb_cdc.o
 .debug_abbrev  0x0000506e      0x2a1 build/pic32mx/debug/_ext/1271179505/sys_devcon.o
 .debug_abbrev  0x0000530f      0x16d build/pic32mx/debug/_ext/1271179505/sys_devcon_pic32mx.o
 .debug_abbrev  0x0000547c      0x46e build/pic32mx/debug/_ext/2104899551/sys_fs.o
 .debug_abbrev  0x000058ea      0x3c8 build/pic32mx/debug/_ext/2104899551/sys_fs_media_manager.o
 .debug_abbrev  0x00005cb2      0x2c4 build/pic32mx/debug/_ext/850537704/mpfs.o
 .debug_abbrev  0x00005f76      0x1ea build/pic32mx/debug/_ext/122796885/sys_int_pic32.o
 .debug_abbrev  0x00006160      0x219 build/pic32mx/debug/_ext/77319752/sys_ports.o
 .debug_abbrev  0x00006379      0x26c build/pic32mx/debug/_ext/1283840359/sys_random.o
 .debug_abbrev  0x000065e5      0x13b build/pic32mx/debug/_ext/813494389/sys_reset.o
 .debug_abbrev  0x00006720      0x544 build/pic32mx/debug/_ext/1264926591/sys_tmr.o
 .debug_abbrev  0x00006c64      0x1c4 build/pic32mx/debug/_ext/1136935090/sys_fs_wrapper.o
 .debug_abbrev  0x00006e28      0x1ef build/pic32mx/debug/_ext/1136935090/big_int.o
 .debug_abbrev  0x00007017       0x14 build/pic32mx/debug/_ext/1136935090/big_int_helper_c32.o
 .debug_abbrev  0x0000702b      0x246 build/pic32mx/debug/_ext/1136935090/hashes.o
 .debug_abbrev  0x00007271      0x193 build/pic32mx/debug/_ext/1136935090/helpers.o
 .debug_abbrev  0x00007404       0x9e build/pic32mx/debug/_ext/1136935090/lfsr.o
 .debug_abbrev  0x000074a2      0x63a build/pic32mx/debug/_ext/1408260596/tcp.o
 .debug_abbrev  0x00007adc      0x66b build/pic32mx/debug/_ext/1408260596/udp.o
 .debug_abbrev  0x00008147      0x5ac build/pic32mx/debug/_ext/1408260596/arp.o
 .debug_abbrev  0x000086f3      0x5bb build/pic32mx/debug/_ext/1408260596/dhcp.o
 .debug_abbrev  0x00008cae      0x5ed build/pic32mx/debug/_ext/1408260596/dns.o
 .debug_abbrev  0x0000929b      0x51d build/pic32mx/debug/_ext/1408260596/http.o
 .debug_abbrev  0x000097b8      0x4fb build/pic32mx/debug/_ext/1408260596/icmp.o
 .debug_abbrev  0x00009cb3      0x435 build/pic32mx/debug/_ext/1408260596/nbns.o
 .debug_abbrev  0x0000a0e8      0x4a5 build/pic32mx/debug/_ext/1408260596/sntp.o
 .debug_abbrev  0x0000a58d      0x15f build/pic32mx/debug/_ext/1408260596/zero_conf_helper.o
 .debug_abbrev  0x0000a6ec      0x491 build/pic32mx/debug/_ext/1408260596/zero_conf_link_local.o
 .debug_abbrev  0x0000ab7d      0x409 build/pic32mx/debug/_ext/1408260596/tcpip_announce.o
 .debug_abbrev  0x0000af86       0xb0 build/pic32mx/debug/_ext/1408260596/hash_fnv.o
 .debug_abbrev  0x0000b036      0x268 build/pic32mx/debug/_ext/1408260596/oahash.o
 .debug_abbrev  0x0000b29e      0x320 build/pic32mx/debug/_ext/1408260596/tcpip_heap_alloc.o
 .debug_abbrev  0x0000b5be      0x4d4 build/pic32mx/debug/_ext/1408260596/tcpip_helpers.o
 .debug_abbrev  0x0000ba92       0x14 build/pic32mx/debug/_ext/1408260596/tcpip_helper_c32.o
 .debug_abbrev  0x0000baa6      0x6a8 build/pic32mx/debug/_ext/1408260596/tcpip_manager.o
 .debug_abbrev  0x0000c14e      0x216 build/pic32mx/debug/_ext/1408260596/tcpip_notify.o
 .debug_abbrev  0x0000c364      0x3a1 build/pic32mx/debug/_ext/1408260596/tcpip_packet.o
 .debug_abbrev  0x0000c705      0x4ff build/pic32mx/debug/_ext/1408260596/ipv4.o
 .debug_abbrev  0x0000cc04      0x431 build/pic32mx/debug/_ext/610166344/usb_device.o
 .debug_abbrev  0x0000d035      0x450 build/pic32mx/debug/_ext/610166344/usb_device_cdc.o
 .debug_abbrev  0x0000d485      0x1aa build/pic32mx/debug/_ext/610166344/usb_device_cdc_acm.o
 .debug_abbrev  0x0000d62f      0x138 c:/program files (x86)/microchip/xc32/v1.40/bin/bin/../../lib/gcc/pic32mx/4.8.3\libgcc.a(_udivdi3.o)
 .debug_abbrev  0x0000d767       0x28 c:/program files (x86)/microchip/xc32/v1.40/bin/bin/../../lib/gcc/pic32mx/4.8.3/../../../../pic32mx/lib\libpic32.a(default-bootstrap-exception-handler.o)
 .debug_abbrev  0x0000d78f       0x28 c:/program files (x86)/microchip/xc32/v1.40/bin/bin/../../lib/gcc/pic32mx/4.8.3/../../../../pic32mx/lib\libpic32.a(default-on-reset.o)
 .debug_abbrev  0x0000d7b7       0x28 c:/program files (x86)/microchip/xc32/v1.40/bin/bin/../../lib/gcc/pic32mx/4.8.3/../../../../pic32mx/lib\libpic32.a(default-on-bootstrap.o)
 .debug_abbrev  0x0000d7df       0x28 c:/program files (x86)/microchip/xc32/v1.40/bin/bin/../../lib/gcc/pic32mx/4.8.3/../../../../pic32mx/lib\libpic32.a(defaultinterrupt.o)
 .debug_abbrev  0x0000d807       0x28 c:/program files (x86)/microchip/xc32/v1.40/bin/bin/../../lib/gcc/pic32mx/4.8.3/../../../../pic32mx/lib\libc.a(atoi.o)
 .debug_abbrev  0x0000d82f       0x28 c:/program files (x86)/microchip/xc32/v1.40/bin/bin/../../lib/gcc/pic32mx/4.8.3/../../../../pic32mx/lib\libc.a(atol.o)
 .debug_abbrev  0x0000d857       0x47 c:/program files (x86)/microchip/xc32/v1.40/bin/bin/../../lib/gcc/pic32mx/4.8.3/../../../../pic32mx/lib\libc.a(malloc.o)
 .debug_abbrev  0x0000d89e       0x47 c:/program files (x86)/microchip/xc32/v1.40/bin/bin/../../lib/gcc/pic32mx/4.8.3/../../../../pic32mx/lib\libc.a(rand.o)
 .debug_abbrev  0x0000d8e5       0x28 c:/program files (x86)/microchip/xc32/v1.40/bin/bin/../../lib/gcc/pic32mx/4.8.3/../../../../pic32mx/lib\libc.a(strcat.o)
 .debug_abbrev  0x0000d90d       0x28 c:/program files (x86)/microchip/xc32/v1.40/bin/bin/../../lib/gcc/pic32mx/4.8.3/../../../../pic32mx/lib\libc.a(strncat.o)
 .debug_abbrev  0x0000d935       0x28 c:/program files (x86)/microchip/xc32/v1.40/bin/bin/../../lib/gcc/pic32mx/4.8.3/../../../../pic32mx/lib\libc.a(strncmp.o)
 .debug_abbrev  0x0000d95d       0x28 c:/program files (x86)/microchip/xc32/v1.40/bin/bin/../../lib/gcc/pic32mx/4.8.3/../../../../pic32mx/lib\libc.a(strncpy.o)
 .debug_abbrev  0x0000d985       0x28 c:/program files (x86)/microchip/xc32/v1.40/bin/bin/../../lib/gcc/pic32mx/4.8.3/../../../../pic32mx/lib\libc.a(strtol.o)
 .debug_abbrev  0x0000d9ad       0x28 c:/program files (x86)/microchip/xc32/v1.40/bin/bin/../../lib/gcc/pic32mx/4.8.3/../../../../pic32mx/lib\libc.a(sprintf_cdnopsuxX.eo)
 .debug_abbrev  0x0000d9d5       0x28 c:/program files (x86)/microchip/xc32/v1.40/bin/bin/../../lib/gcc/pic32mx/4.8.3/../../../../pic32mx/lib\libc.a(vsnprintf.o)
 .debug_abbrev  0x0000d9fd       0x28 c:/program files (x86)/microchip/xc32/v1.40/bin/bin/../../lib/gcc/pic32mx/4.8.3/../../../../pic32mx/lib\libc.a(ctypef.o)
 .debug_abbrev  0x0000da25       0x28 c:/program files (x86)/microchip/xc32/v1.40/bin/bin/../../lib/gcc/pic32mx/4.8.3/../../../../pic32mx/lib\libc.a(doprnt_cdnopsuxX.eo)
 .debug_abbrev  0x0000da4d       0x45 c:/program files (x86)/microchip/xc32/v1.40/bin/bin/../../lib/gcc/pic32mx/4.8.3/../../../../pic32mx/lib\libc.a(doprnt.o)
 .debug_abbrev  0x0000da92       0x28 c:/program files (x86)/microchip/xc32/v1.40/bin/bin/../../lib/gcc/pic32mx/4.8.3/../../../../pic32mx/lib\libc.a(_fputc_simple.o)
 .debug_abbrev  0x0000daba       0x28 c:/program files (x86)/microchip/xc32/v1.40/bin/bin/../../lib/gcc/pic32mx/4.8.3/../../../../pic32mx/lib\libc.a(_flsbuf_simple.o)
 .debug_abbrev  0x0000dae2       0x54 c:/program files (x86)/microchip/xc32/v1.40/bin/bin/../../lib/gcc/pic32mx/4.8.3/../../../../pic32mx/lib\libpic32.a(sbrk.o)
 .debug_abbrev  0x0000db36       0x28 c:/program files (x86)/microchip/xc32/v1.40/bin/bin/../../lib/gcc/pic32mx/4.8.3/../../../../pic32mx/lib\libpic32.a(write.o)
 .debug_abbrev  0x0000db5e       0x28 c:/program files (x86)/microchip/xc32/v1.40/bin/bin/../../lib/gcc/pic32mx/4.8.3/../../../../pic32mx/lib\libpic32.a(_mon_putc.o)
 .debug_abbrev  0x0000db86       0x35 c:/program files (x86)/microchip/xc32/v1.40/bin/bin/../../lib/gcc/pic32mx/4.8.3/../../../../pic32mx/lib\libe.a(_floatdisf.o)
 .debug_abbrev  0x0000dbbb      0x147 c:/program files (x86)/microchip/xc32/v1.40/bin/bin/../../lib/gcc/pic32mx/4.8.3\libgcc.a(_umoddi3.o)
 .debug_abbrev  0x0000dd02       0x62 c:/program files (x86)/microchip/xc32/v1.40/bin/bin/../../lib/gcc/pic32mx/4.8.3\libgcc.a(floatunsisf.o)

.debug_line     0x00000000    0x1e53a
 *(.debug_line)
 .debug_line    0x00000000       0x8a c:/program files (x86)/microchip/xc32/v1.40/bin/bin/../../lib/gcc/pic32mx/4.8.3/../../../../pic32mx/lib\software-debug-break.o
 .debug_line    0x0000008a      0x5ee build/pic32mx/debug/_ext/1482089478/sys_clk_static.o
 .debug_line    0x00000678      0x391 build/pic32mx/debug/_ext/148571690/sys_ports_static.o
 .debug_line    0x00000a09      0xd50 build/pic32mx/debug/_ext/435813987/system_init.o
 .debug_line    0x00001759      0x67d build/pic32mx/debug/_ext/435813987/system_interrupt.o
 .debug_line    0x00001dd6      0x3a6 build/pic32mx/debug/_ext/435813987/system_exceptions.o
 .debug_line    0x0000217c      0x642 build/pic32mx/debug/_ext/435813987/system_tasks.o
 .debug_line    0x000027be      0x6b8 build/pic32mx/debug/_ext/1360937237/app.o
 .debug_line    0x00002e76       0xb8 build/pic32mx/debug/_ext/1360937237/main.o
 .debug_line    0x00002f2e      0x85c build/pic32mx/debug/_ext/1360937237/custom_http_app.o
 .debug_line    0x0000378a      0x276 build/pic32mx/debug/_ext/1360937237/http_print.o
 .debug_line    0x00003a00      0x168 build/pic32mx/debug/_ext/1360937237/mpfs_img2.o
 .debug_line    0x00003b68      0x305 build/pic32mx/debug/_ext/1837361561/bsp_sys_init.o
 .debug_line    0x00003e6d      0x179 build/pic32mx/debug/_ext/1886890887/random.o
 .debug_line    0x00003fe6      0x10b build/pic32mx/debug/_ext/1886890887/arc4.o
 .debug_line    0x000040f1      0x1d9 build/pic32mx/debug/_ext/1886890887/crypto.o
 .debug_line    0x000042ca      0xfdf build/pic32mx/debug/_ext/1908841681/drv_ethmac.o
 .debug_line    0x000052a9      0xfe6 build/pic32mx/debug/_ext/1908841681/drv_ethmac_lib.o
 .debug_line    0x0000628f     0x115c build/pic32mx/debug/_ext/732687875/drv_ethphy.o
 .debug_line    0x000073eb      0x32c build/pic32mx/debug/_ext/732687875/drv_extphy_dp83848.o
 .debug_line    0x00007717      0xa24 build/pic32mx/debug/_ext/571308596/drv_nvm.o
 .debug_line    0x0000813b      0x488 build/pic32mx/debug/_ext/571308596/drv_nvm_erasewrite.o
 .debug_line    0x000085c3     0x13ec build/pic32mx/debug/_ext/185269848/drv_tmr.o
 .debug_line    0x000099af      0x91a build/pic32mx/debug/_ext/764219029/drv_usbfs.o
 .debug_line    0x0000a2c9      0xeed build/pic32mx/debug/_ext/764219029/drv_usbfs_device.o
 .debug_line    0x0000b1b6      0x9ac build/pic32mx/debug/_ext/425903153/sys_command.o
 .debug_line    0x0000bb62      0x3d3 build/pic32mx/debug/_ext/30809027/sys_console.o
 .debug_line    0x0000bf35      0x6e3 build/pic32mx/debug/_ext/30809027/sys_console_usb_cdc.o
 .debug_line    0x0000c618      0x643 build/pic32mx/debug/_ext/1271179505/sys_devcon.o
 .debug_line    0x0000cc5b      0x48f build/pic32mx/debug/_ext/1271179505/sys_devcon_pic32mx.o
 .debug_line    0x0000d0ea      0xbeb build/pic32mx/debug/_ext/2104899551/sys_fs.o
 .debug_line    0x0000dcd5      0x63c build/pic32mx/debug/_ext/2104899551/sys_fs_media_manager.o
 .debug_line    0x0000e311      0x5a3 build/pic32mx/debug/_ext/850537704/mpfs.o
 .debug_line    0x0000e8b4      0x39e build/pic32mx/debug/_ext/122796885/sys_int_pic32.o
 .debug_line    0x0000ec52      0x88b build/pic32mx/debug/_ext/77319752/sys_ports.o
 .debug_line    0x0000f4dd      0x35b build/pic32mx/debug/_ext/1283840359/sys_random.o
 .debug_line    0x0000f838      0x307 build/pic32mx/debug/_ext/813494389/sys_reset.o
 .debug_line    0x0000fb3f      0x61d build/pic32mx/debug/_ext/1264926591/sys_tmr.o
 .debug_line    0x0001015c      0x210 build/pic32mx/debug/_ext/1136935090/sys_fs_wrapper.o
 .debug_line    0x0001036c      0x22d build/pic32mx/debug/_ext/1136935090/big_int.o
 .debug_line    0x00010599      0x15c build/pic32mx/debug/_ext/1136935090/big_int_helper_c32.o
 .debug_line    0x000106f5      0x27f build/pic32mx/debug/_ext/1136935090/hashes.o
 .debug_line    0x00010974      0x200 build/pic32mx/debug/_ext/1136935090/helpers.o
 .debug_line    0x00010b74       0xde build/pic32mx/debug/_ext/1136935090/lfsr.o
 .debug_line    0x00010c52     0x1422 build/pic32mx/debug/_ext/1408260596/tcp.o
 .debug_line    0x00012074      0xee3 build/pic32mx/debug/_ext/1408260596/udp.o
 .debug_line    0x00012f57      0xb95 build/pic32mx/debug/_ext/1408260596/arp.o
 .debug_line    0x00013aec      0xd1e build/pic32mx/debug/_ext/1408260596/dhcp.o
 .debug_line    0x0001480a      0xd20 build/pic32mx/debug/_ext/1408260596/dns.o
 .debug_line    0x0001552a      0xcd7 build/pic32mx/debug/_ext/1408260596/http.o
 .debug_line    0x00016201      0x675 build/pic32mx/debug/_ext/1408260596/icmp.o
 .debug_line    0x00016876      0x602 build/pic32mx/debug/_ext/1408260596/nbns.o
 .debug_line    0x00016e78      0x6d5 build/pic32mx/debug/_ext/1408260596/sntp.o
 .debug_line    0x0001754d      0x3ce build/pic32mx/debug/_ext/1408260596/zero_conf_helper.o
 .debug_line    0x0001791b      0x7dd build/pic32mx/debug/_ext/1408260596/zero_conf_link_local.o
 .debug_line    0x000180f8      0x635 build/pic32mx/debug/_ext/1408260596/tcpip_announce.o
 .debug_line    0x0001872d      0x134 build/pic32mx/debug/_ext/1408260596/hash_fnv.o
 .debug_line    0x00018861      0x1d9 build/pic32mx/debug/_ext/1408260596/oahash.o
 .debug_line    0x00018a3a      0x615 build/pic32mx/debug/_ext/1408260596/tcpip_heap_alloc.o
 .debug_line    0x0001904f      0xe4b build/pic32mx/debug/_ext/1408260596/tcpip_helpers.o
 .debug_line    0x00019e9a       0xfa build/pic32mx/debug/_ext/1408260596/tcpip_helper_c32.o
 .debug_line    0x00019f94     0x12ef build/pic32mx/debug/_ext/1408260596/tcpip_manager.o
 .debug_line    0x0001b283      0x485 build/pic32mx/debug/_ext/1408260596/tcpip_notify.o
 .debug_line    0x0001b708      0x674 build/pic32mx/debug/_ext/1408260596/tcpip_packet.o
 .debug_line    0x0001bd7c      0x7f9 build/pic32mx/debug/_ext/1408260596/ipv4.o
 .debug_line    0x0001c575      0x937 build/pic32mx/debug/_ext/610166344/usb_device.o
 .debug_line    0x0001ceac      0x693 build/pic32mx/debug/_ext/610166344/usb_device_cdc.o
 .debug_line    0x0001d53f      0x24b build/pic32mx/debug/_ext/610166344/usb_device_cdc_acm.o
 .debug_line    0x0001d78a       0xed c:/program files (x86)/microchip/xc32/v1.40/bin/bin/../../lib/gcc/pic32mx/4.8.3\libgcc.a(_udivdi3.o)
 .debug_line    0x0001d877       0x97 c:/program files (x86)/microchip/xc32/v1.40/bin/bin/../../lib/gcc/pic32mx/4.8.3/../../../../pic32mx/lib\libpic32.a(default-bootstrap-exception-handler.o)
 .debug_line    0x0001d90e       0x84 c:/program files (x86)/microchip/xc32/v1.40/bin/bin/../../lib/gcc/pic32mx/4.8.3/../../../../pic32mx/lib\libpic32.a(default-on-reset.o)
 .debug_line    0x0001d992       0x88 c:/program files (x86)/microchip/xc32/v1.40/bin/bin/../../lib/gcc/pic32mx/4.8.3/../../../../pic32mx/lib\libpic32.a(default-on-bootstrap.o)
 .debug_line    0x0001da1a       0x96 c:/program files (x86)/microchip/xc32/v1.40/bin/bin/../../lib/gcc/pic32mx/4.8.3/../../../../pic32mx/lib\libpic32.a(defaultinterrupt.o)
 .debug_line    0x0001dab0       0x6e c:/program files (x86)/microchip/xc32/v1.40/bin/bin/../../lib/gcc/pic32mx/4.8.3/../../../../pic32mx/lib\libc.a(atoi.o)
 .debug_line    0x0001db1e       0x6e c:/program files (x86)/microchip/xc32/v1.40/bin/bin/../../lib/gcc/pic32mx/4.8.3/../../../../pic32mx/lib\libc.a(atol.o)
 .debug_line    0x0001db8c        0x0 c:/program files (x86)/microchip/xc32/v1.40/bin/bin/../../lib/gcc/pic32mx/4.8.3/../../../../pic32mx/lib\libc.a(ctype.o)
 .debug_line    0x0001db8c       0x70 c:/program files (x86)/microchip/xc32/v1.40/bin/bin/../../lib/gcc/pic32mx/4.8.3/../../../../pic32mx/lib\libc.a(malloc.o)
 .debug_line    0x0001dbfc       0x6e c:/program files (x86)/microchip/xc32/v1.40/bin/bin/../../lib/gcc/pic32mx/4.8.3/../../../../pic32mx/lib\libc.a(rand.o)
 .debug_line    0x0001dc6a       0x70 c:/program files (x86)/microchip/xc32/v1.40/bin/bin/../../lib/gcc/pic32mx/4.8.3/../../../../pic32mx/lib\libc.a(strcat.o)
 .debug_line    0x0001dcda       0x71 c:/program files (x86)/microchip/xc32/v1.40/bin/bin/../../lib/gcc/pic32mx/4.8.3/../../../../pic32mx/lib\libc.a(strncat.o)
 .debug_line    0x0001dd4b       0x71 c:/program files (x86)/microchip/xc32/v1.40/bin/bin/../../lib/gcc/pic32mx/4.8.3/../../../../pic32mx/lib\libc.a(strncmp.o)
 .debug_line    0x0001ddbc       0x71 c:/program files (x86)/microchip/xc32/v1.40/bin/bin/../../lib/gcc/pic32mx/4.8.3/../../../../pic32mx/lib\libc.a(strncpy.o)
 .debug_line    0x0001de2d       0x70 c:/program files (x86)/microchip/xc32/v1.40/bin/bin/../../lib/gcc/pic32mx/4.8.3/../../../../pic32mx/lib\libc.a(strtol.o)
 .debug_line    0x0001de9d       0x71 c:/program files (x86)/microchip/xc32/v1.40/bin/bin/../../lib/gcc/pic32mx/4.8.3/../../../../pic32mx/lib\libc.a(sprintf_cdnopsuxX.eo)
 .debug_line    0x0001df0e       0x73 c:/program files (x86)/microchip/xc32/v1.40/bin/bin/../../lib/gcc/pic32mx/4.8.3/../../../../pic32mx/lib\libc.a(vsnprintf.o)
 .debug_line    0x0001df81       0x70 c:/program files (x86)/microchip/xc32/v1.40/bin/bin/../../lib/gcc/pic32mx/4.8.3/../../../../pic32mx/lib\libc.a(ctypef.o)
 .debug_line    0x0001dff1        0x0 c:/program files (x86)/microchip/xc32/v1.40/bin/bin/../../lib/gcc/pic32mx/4.8.3/../../../../pic32mx/lib\libc.a(errno.o)
 .debug_line    0x0001dff1       0x70 c:/program files (x86)/microchip/xc32/v1.40/bin/bin/../../lib/gcc/pic32mx/4.8.3/../../../../pic32mx/lib\libc.a(doprnt_cdnopsuxX.eo)
 .debug_line    0x0001e061       0x70 c:/program files (x86)/microchip/xc32/v1.40/bin/bin/../../lib/gcc/pic32mx/4.8.3/../../../../pic32mx/lib\libc.a(doprnt.o)
 .debug_line    0x0001e0d1       0x6f c:/program files (x86)/microchip/xc32/v1.40/bin/bin/../../lib/gcc/pic32mx/4.8.3/../../../../pic32mx/lib\libc.a(_fputc_simple.o)
 .debug_line    0x0001e140        0x0 c:/program files (x86)/microchip/xc32/v1.40/bin/bin/../../lib/gcc/pic32mx/4.8.3/../../../../pic32mx/lib\libc.a(powersf.o)
 .debug_line    0x0001e140        0x0 c:/program files (x86)/microchip/xc32/v1.40/bin/bin/../../lib/gcc/pic32mx/4.8.3/../../../../pic32mx/lib\libc.a(_iob.o)
 .debug_line    0x0001e140       0x70 c:/program files (x86)/microchip/xc32/v1.40/bin/bin/../../lib/gcc/pic32mx/4.8.3/../../../../pic32mx/lib\libc.a(_flsbuf_simple.o)
 .debug_line    0x0001e1b0       0x78 c:/program files (x86)/microchip/xc32/v1.40/bin/bin/../../lib/gcc/pic32mx/4.8.3/../../../../pic32mx/lib\libpic32.a(sbrk.o)
 .debug_line    0x0001e228       0x79 c:/program files (x86)/microchip/xc32/v1.40/bin/bin/../../lib/gcc/pic32mx/4.8.3/../../../../pic32mx/lib\libpic32.a(write.o)
 .debug_line    0x0001e2a1       0x7d c:/program files (x86)/microchip/xc32/v1.40/bin/bin/../../lib/gcc/pic32mx/4.8.3/../../../../pic32mx/lib\libpic32.a(_mon_putc.o)
 .debug_line    0x0001e31e        0x0 c:/program files (x86)/microchip/xc32/v1.40/bin/bin/../../lib/gcc/pic32mx/4.8.3/../../../../pic32mx/lib\libpic32.a(xc32_uart.o)
 .debug_line    0x0001e31e       0x93 c:/program files (x86)/microchip/xc32/v1.40/bin/bin/../../lib/gcc/pic32mx/4.8.3/../../../../pic32mx/lib\libe.a(_floatdisf.o)
 .debug_line    0x0001e3b1       0xff c:/program files (x86)/microchip/xc32/v1.40/bin/bin/../../lib/gcc/pic32mx/4.8.3\libgcc.a(_umoddi3.o)
 .debug_line    0x0001e4b0       0x8a c:/program files (x86)/microchip/xc32/v1.40/bin/bin/../../lib/gcc/pic32mx/4.8.3\libgcc.a(floatunsisf.o)

.debug_frame    0x00000000     0x7738
 *(.debug_frame)
 .debug_frame   0x00000000       0x20 c:/program files (x86)/microchip/xc32/v1.40/bin/bin/../../lib/gcc/pic32mx/4.8.3/../../../../pic32mx/lib\software-debug-break.o
 .debug_frame   0x00000020       0x58 build/pic32mx/debug/_ext/1482089478/sys_clk_static.o
 .debug_frame   0x00000078       0x20 build/pic32mx/debug/_ext/148571690/sys_ports_static.o
 .debug_frame   0x00000098       0x44 build/pic32mx/debug/_ext/435813987/system_init.o
 .debug_frame   0x000000dc      0x170 build/pic32mx/debug/_ext/435813987/system_interrupt.o
 .debug_frame   0x0000024c       0x28 build/pic32mx/debug/_ext/435813987/system_exceptions.o
 .debug_frame   0x00000274       0x28 build/pic32mx/debug/_ext/435813987/system_tasks.o
 .debug_frame   0x0000029c       0x78 build/pic32mx/debug/_ext/1360937237/app.o
 .debug_frame   0x00000314       0x28 build/pic32mx/debug/_ext/1360937237/main.o
 .debug_frame   0x0000033c      0x384 build/pic32mx/debug/_ext/1360937237/custom_http_app.o
 .debug_frame   0x000006c0       0x40 build/pic32mx/debug/_ext/1360937237/http_print.o
 .debug_frame   0x00000700       0x80 build/pic32mx/debug/_ext/1837361561/bsp_sys_init.o
 .debug_frame   0x00000780       0x80 build/pic32mx/debug/_ext/1886890887/random.o
 .debug_frame   0x00000800       0x30 build/pic32mx/debug/_ext/1886890887/arc4.o
 .debug_frame   0x00000830      0x114 build/pic32mx/debug/_ext/1886890887/crypto.o
 .debug_frame   0x00000944      0x454 build/pic32mx/debug/_ext/1908841681/drv_ethmac.o
 .debug_frame   0x00000d98      0x288 build/pic32mx/debug/_ext/1908841681/drv_ethmac_lib.o
 .debug_frame   0x00001020      0x6d4 build/pic32mx/debug/_ext/732687875/drv_ethphy.o
 .debug_frame   0x000016f4       0x58 build/pic32mx/debug/_ext/732687875/drv_extphy_dp83848.o
 .debug_frame   0x0000174c      0x1fc build/pic32mx/debug/_ext/571308596/drv_nvm.o
 .debug_frame   0x00001948       0x34 build/pic32mx/debug/_ext/571308596/drv_nvm_erasewrite.o
 .debug_frame   0x0000197c      0x3bc build/pic32mx/debug/_ext/185269848/drv_tmr.o
 .debug_frame   0x00001d38       0xe8 build/pic32mx/debug/_ext/764219029/drv_usbfs.o
 .debug_frame   0x00001e20      0x1d8 build/pic32mx/debug/_ext/764219029/drv_usbfs_device.o
 .debug_frame   0x00001ff8      0x2c8 build/pic32mx/debug/_ext/425903153/sys_command.o
 .debug_frame   0x000022c0      0x108 build/pic32mx/debug/_ext/30809027/sys_console.o
 .debug_frame   0x000023c8       0xe0 build/pic32mx/debug/_ext/30809027/sys_console_usb_cdc.o
 .debug_frame   0x000024a8       0xe8 build/pic32mx/debug/_ext/1271179505/sys_devcon.o
 .debug_frame   0x00002590       0x28 build/pic32mx/debug/_ext/1271179505/sys_devcon_pic32mx.o
 .debug_frame   0x000025b8      0x4a8 build/pic32mx/debug/_ext/2104899551/sys_fs.o
 .debug_frame   0x00002a60      0x1b4 build/pic32mx/debug/_ext/2104899551/sys_fs_media_manager.o
 .debug_frame   0x00002c14      0x2b0 build/pic32mx/debug/_ext/850537704/mpfs.o
 .debug_frame   0x00002ec4       0x90 build/pic32mx/debug/_ext/122796885/sys_int_pic32.o
 .debug_frame   0x00002f54      0x1d0 build/pic32mx/debug/_ext/77319752/sys_ports.o
 .debug_frame   0x00003124       0xe4 build/pic32mx/debug/_ext/1283840359/sys_random.o
 .debug_frame   0x00003208       0x20 build/pic32mx/debug/_ext/813494389/sys_reset.o
 .debug_frame   0x00003228      0x208 build/pic32mx/debug/_ext/1264926591/sys_tmr.o
 .debug_frame   0x00003430       0x90 build/pic32mx/debug/_ext/1136935090/sys_fs_wrapper.o
 .debug_frame   0x000034c0      0x158 build/pic32mx/debug/_ext/1136935090/big_int.o
 .debug_frame   0x00003618      0x114 build/pic32mx/debug/_ext/1136935090/hashes.o
 .debug_frame   0x0000372c       0xa4 build/pic32mx/debug/_ext/1136935090/helpers.o
 .debug_frame   0x000037d0       0x3c build/pic32mx/debug/_ext/1136935090/lfsr.o
 .debug_frame   0x0000380c      0x750 build/pic32mx/debug/_ext/1408260596/tcp.o
 .debug_frame   0x00003f5c      0x5ac build/pic32mx/debug/_ext/1408260596/udp.o
 .debug_frame   0x00004508      0x410 build/pic32mx/debug/_ext/1408260596/arp.o
 .debug_frame   0x00004918      0x490 build/pic32mx/debug/_ext/1408260596/dhcp.o
 .debug_frame   0x00004da8      0x444 build/pic32mx/debug/_ext/1408260596/dns.o
 .debug_frame   0x000051ec      0x2bc build/pic32mx/debug/_ext/1408260596/http.o
 .debug_frame   0x000054a8       0xf4 build/pic32mx/debug/_ext/1408260596/icmp.o
 .debug_frame   0x0000559c       0x8c build/pic32mx/debug/_ext/1408260596/nbns.o
 .debug_frame   0x00005628       0xfc build/pic32mx/debug/_ext/1408260596/sntp.o
 .debug_frame   0x00005724       0x2c build/pic32mx/debug/_ext/1408260596/zero_conf_helper.o
 .debug_frame   0x00005750      0x130 build/pic32mx/debug/_ext/1408260596/zero_conf_link_local.o
 .debug_frame   0x00005880       0xc4 build/pic32mx/debug/_ext/1408260596/tcpip_announce.o
 .debug_frame   0x00005944       0x30 build/pic32mx/debug/_ext/1408260596/hash_fnv.o
 .debug_frame   0x00005974       0xb4 build/pic32mx/debug/_ext/1408260596/oahash.o
 .debug_frame   0x00005a28       0xec build/pic32mx/debug/_ext/1408260596/tcpip_heap_alloc.o
 .debug_frame   0x00005b14      0x53c build/pic32mx/debug/_ext/1408260596/tcpip_helpers.o
 .debug_frame   0x00006050      0x818 build/pic32mx/debug/_ext/1408260596/tcpip_manager.o
 .debug_frame   0x00006868       0x94 build/pic32mx/debug/_ext/1408260596/tcpip_notify.o
 .debug_frame   0x000068fc      0x18c build/pic32mx/debug/_ext/1408260596/tcpip_packet.o
 .debug_frame   0x00006a88      0x138 build/pic32mx/debug/_ext/1408260596/ipv4.o
 .debug_frame   0x00006bc0      0x3d8 build/pic32mx/debug/_ext/610166344/usb_device.o
 .debug_frame   0x00006f98      0x15c build/pic32mx/debug/_ext/610166344/usb_device_cdc.o
 .debug_frame   0x000070f4       0x28 build/pic32mx/debug/_ext/610166344/usb_device_cdc_acm.o
 .debug_frame   0x0000711c       0x20 c:/program files (x86)/microchip/xc32/v1.40/bin/bin/../../lib/gcc/pic32mx/4.8.3\libgcc.a(_udivdi3.o)
 .debug_frame   0x0000713c       0x2c c:/program files (x86)/microchip/xc32/v1.40/bin/bin/../../lib/gcc/pic32mx/4.8.3/../../../../pic32mx/lib\libpic32.a(default-bootstrap-exception-handler.o)
 .debug_frame   0x00007168       0x20 c:/program files (x86)/microchip/xc32/v1.40/bin/bin/../../lib/gcc/pic32mx/4.8.3/../../../../pic32mx/lib\libpic32.a(default-on-reset.o)
 .debug_frame   0x00007188       0x20 c:/program files (x86)/microchip/xc32/v1.40/bin/bin/../../lib/gcc/pic32mx/4.8.3/../../../../pic32mx/lib\libpic32.a(default-on-bootstrap.o)
 .debug_frame   0x000071a8       0x20 c:/program files (x86)/microchip/xc32/v1.40/bin/bin/../../lib/gcc/pic32mx/4.8.3/../../../../pic32mx/lib\libpic32.a(defaultinterrupt.o)
 .debug_frame   0x000071c8       0x20 c:/program files (x86)/microchip/xc32/v1.40/bin/bin/../../lib/gcc/pic32mx/4.8.3/../../../../pic32mx/lib\libc.a(atoi.o)
 .debug_frame   0x000071e8       0x20 c:/program files (x86)/microchip/xc32/v1.40/bin/bin/../../lib/gcc/pic32mx/4.8.3/../../../../pic32mx/lib\libc.a(atol.o)
 .debug_frame   0x00007208       0x68 c:/program files (x86)/microchip/xc32/v1.40/bin/bin/../../lib/gcc/pic32mx/4.8.3/../../../../pic32mx/lib\libc.a(malloc.o)
 .debug_frame   0x00007270       0x30 c:/program files (x86)/microchip/xc32/v1.40/bin/bin/../../lib/gcc/pic32mx/4.8.3/../../../../pic32mx/lib\libc.a(rand.o)
 .debug_frame   0x000072a0       0x20 c:/program files (x86)/microchip/xc32/v1.40/bin/bin/../../lib/gcc/pic32mx/4.8.3/../../../../pic32mx/lib\libc.a(strcat.o)
 .debug_frame   0x000072c0       0x20 c:/program files (x86)/microchip/xc32/v1.40/bin/bin/../../lib/gcc/pic32mx/4.8.3/../../../../pic32mx/lib\libc.a(strncat.o)
 .debug_frame   0x000072e0       0x20 c:/program files (x86)/microchip/xc32/v1.40/bin/bin/../../lib/gcc/pic32mx/4.8.3/../../../../pic32mx/lib\libc.a(strncmp.o)
 .debug_frame   0x00007300       0x20 c:/program files (x86)/microchip/xc32/v1.40/bin/bin/../../lib/gcc/pic32mx/4.8.3/../../../../pic32mx/lib\libc.a(strncpy.o)
 .debug_frame   0x00007320       0x58 c:/program files (x86)/microchip/xc32/v1.40/bin/bin/../../lib/gcc/pic32mx/4.8.3/../../../../pic32mx/lib\libc.a(strtol.o)
 .debug_frame   0x00007378       0x28 c:/program files (x86)/microchip/xc32/v1.40/bin/bin/../../lib/gcc/pic32mx/4.8.3/../../../../pic32mx/lib\libc.a(sprintf_cdnopsuxX.eo)
 .debug_frame   0x000073a0       0x2c c:/program files (x86)/microchip/xc32/v1.40/bin/bin/../../lib/gcc/pic32mx/4.8.3/../../../../pic32mx/lib\libc.a(vsnprintf.o)
 .debug_frame   0x000073cc      0x120 c:/program files (x86)/microchip/xc32/v1.40/bin/bin/../../lib/gcc/pic32mx/4.8.3/../../../../pic32mx/lib\libc.a(ctypef.o)
 .debug_frame   0x000074ec       0x38 c:/program files (x86)/microchip/xc32/v1.40/bin/bin/../../lib/gcc/pic32mx/4.8.3/../../../../pic32mx/lib\libc.a(doprnt_cdnopsuxX.eo)
 .debug_frame   0x00007524       0x74 c:/program files (x86)/microchip/xc32/v1.40/bin/bin/../../lib/gcc/pic32mx/4.8.3/../../../../pic32mx/lib\libc.a(doprnt.o)
 .debug_frame   0x00007598       0x2c c:/program files (x86)/microchip/xc32/v1.40/bin/bin/../../lib/gcc/pic32mx/4.8.3/../../../../pic32mx/lib\libc.a(_fputc_simple.o)
 .debug_frame   0x000075c4       0x28 c:/program files (x86)/microchip/xc32/v1.40/bin/bin/../../lib/gcc/pic32mx/4.8.3/../../../../pic32mx/lib\libc.a(_flsbuf_simple.o)
 .debug_frame   0x000075ec       0x84 c:/program files (x86)/microchip/xc32/v1.40/bin/bin/../../lib/gcc/pic32mx/4.8.3/../../../../pic32mx/lib\libpic32.a(sbrk.o)
 .debug_frame   0x00007670       0x38 c:/program files (x86)/microchip/xc32/v1.40/bin/bin/../../lib/gcc/pic32mx/4.8.3/../../../../pic32mx/lib\libpic32.a(write.o)
 .debug_frame   0x000076a8       0x28 c:/program files (x86)/microchip/xc32/v1.40/bin/bin/../../lib/gcc/pic32mx/4.8.3/../../../../pic32mx/lib\libpic32.a(_mon_putc.o)
 .debug_frame   0x000076d0       0x20 c:/program files (x86)/microchip/xc32/v1.40/bin/bin/../../lib/gcc/pic32mx/4.8.3/../../../../pic32mx/lib\libe.a(_floatdisf.o)
 .debug_frame   0x000076f0       0x20 c:/program files (x86)/microchip/xc32/v1.40/bin/bin/../../lib/gcc/pic32mx/4.8.3\libgcc.a(_umoddi3.o)
 .debug_frame   0x00007710       0x28 c:/program files (x86)/microchip/xc32/v1.40/bin/bin/../../lib/gcc/pic32mx/4.8.3\libgcc.a(floatunsisf.o)

.debug_str      0x00000000     0x1db5
 *(.debug_str)
 .debug_str     0x00000000        0x0 c:/program files (x86)/microchip/xc32/v1.40/bin/bin/../../lib/gcc/pic32mx/4.8.3/../../../../pic32mx/lib\software-debug-break.o
 .debug_str     0x00000000       0x39 build/pic32mx/debug/_ext/1482089478/sys_clk_static.o
 .debug_str     0x00000039       0x20 build/pic32mx/debug/_ext/148571690/sys_ports_static.o
 .debug_str     0x00000059      0x14e build/pic32mx/debug/_ext/435813987/system_init.o
 .debug_str     0x000001a7        0x0 build/pic32mx/debug/_ext/435813987/system_interrupt.o
 .debug_str     0x000001a7        0x0 build/pic32mx/debug/_ext/435813987/system_exceptions.o
 .debug_str     0x000001a7        0x0 build/pic32mx/debug/_ext/435813987/system_tasks.o
 .debug_str     0x000001a7       0x21 build/pic32mx/debug/_ext/1360937237/app.o
 .debug_str     0x000001c8        0x0 build/pic32mx/debug/_ext/1360937237/main.o
 .debug_str     0x000001c8       0x46 build/pic32mx/debug/_ext/1360937237/custom_http_app.o
 .debug_str     0x0000020e        0xb build/pic32mx/debug/_ext/1360937237/http_print.o
 .debug_str     0x00000219        0x0 build/pic32mx/debug/_ext/1360937237/mpfs_img2.o
 .debug_str     0x00000219       0x15 build/pic32mx/debug/_ext/1837361561/bsp_sys_init.o
 .debug_str     0x0000022e        0x0 build/pic32mx/debug/_ext/1886890887/random.o
 .debug_str     0x0000022e        0x0 build/pic32mx/debug/_ext/1886890887/arc4.o
 .debug_str     0x0000022e       0x1d build/pic32mx/debug/_ext/1886890887/crypto.o
 .debug_str     0x0000024b      0x16c build/pic32mx/debug/_ext/1908841681/drv_ethmac.o
 .debug_str     0x000003b7      0x155 build/pic32mx/debug/_ext/1908841681/drv_ethmac_lib.o
 .debug_str     0x0000050c      0x17a build/pic32mx/debug/_ext/732687875/drv_ethphy.o
 .debug_str     0x00000686       0x21 build/pic32mx/debug/_ext/732687875/drv_extphy_dp83848.o
 .debug_str     0x000006a7       0xe0 build/pic32mx/debug/_ext/571308596/drv_nvm.o
 .debug_str     0x00000787       0x18 build/pic32mx/debug/_ext/571308596/drv_nvm_erasewrite.o
 .debug_str     0x0000079f       0xd5 build/pic32mx/debug/_ext/185269848/drv_tmr.o
 .debug_str     0x00000874       0xa2 build/pic32mx/debug/_ext/764219029/drv_usbfs.o
 .debug_str     0x00000916      0x177 build/pic32mx/debug/_ext/764219029/drv_usbfs_device.o
 .debug_str     0x00000a8d       0x46 build/pic32mx/debug/_ext/425903153/sys_command.o
 .debug_str     0x00000ad3        0xd build/pic32mx/debug/_ext/30809027/sys_console.o
 .debug_str     0x00000ae0       0xbb build/pic32mx/debug/_ext/30809027/sys_console_usb_cdc.o
 .debug_str     0x00000b9b       0x16 build/pic32mx/debug/_ext/1271179505/sys_devcon.o
 .debug_str     0x00000bb1        0x6 build/pic32mx/debug/_ext/1271179505/sys_devcon_pic32mx.o
 .debug_str     0x00000bb7       0x9a build/pic32mx/debug/_ext/2104899551/sys_fs.o
 .debug_str     0x00000c51       0xb6 build/pic32mx/debug/_ext/2104899551/sys_fs_media_manager.o
 .debug_str     0x00000d07       0x35 build/pic32mx/debug/_ext/850537704/mpfs.o
 .debug_str     0x00000d3c       0x2d build/pic32mx/debug/_ext/122796885/sys_int_pic32.o
 .debug_str     0x00000d69       0x98 build/pic32mx/debug/_ext/77319752/sys_ports.o
 .debug_str     0x00000e01       0x1d build/pic32mx/debug/_ext/1283840359/sys_random.o
 .debug_str     0x00000e1e        0x6 build/pic32mx/debug/_ext/813494389/sys_reset.o
 .debug_str     0x00000e24       0x7d build/pic32mx/debug/_ext/1264926591/sys_tmr.o
 .debug_str     0x00000ea1       0x1d build/pic32mx/debug/_ext/1136935090/sys_fs_wrapper.o
 .debug_str     0x00000ebe        0x0 build/pic32mx/debug/_ext/1136935090/big_int.o
 .debug_str     0x00000ebe       0x10 build/pic32mx/debug/_ext/1136935090/hashes.o
 .debug_str     0x00000ece        0x0 build/pic32mx/debug/_ext/1136935090/helpers.o
 .debug_str     0x00000ece        0x0 build/pic32mx/debug/_ext/1136935090/lfsr.o
 .debug_str     0x00000ece      0x18e build/pic32mx/debug/_ext/1408260596/tcp.o
 .debug_str     0x0000105c      0x153 build/pic32mx/debug/_ext/1408260596/udp.o
 .debug_str     0x000011af       0xd0 build/pic32mx/debug/_ext/1408260596/arp.o
 .debug_str     0x0000127f       0xa0 build/pic32mx/debug/_ext/1408260596/dhcp.o
 .debug_str     0x0000131f      0x152 build/pic32mx/debug/_ext/1408260596/dns.o
 .debug_str     0x00001471       0x7a build/pic32mx/debug/_ext/1408260596/http.o
 .debug_str     0x000014eb       0x70 build/pic32mx/debug/_ext/1408260596/icmp.o
 .debug_str     0x0000155b       0x24 build/pic32mx/debug/_ext/1408260596/nbns.o
 .debug_str     0x0000157f       0x24 build/pic32mx/debug/_ext/1408260596/sntp.o
 .debug_str     0x000015a3        0x0 build/pic32mx/debug/_ext/1408260596/zero_conf_helper.o
 .debug_str     0x000015a3       0x4b build/pic32mx/debug/_ext/1408260596/zero_conf_link_local.o
 .debug_str     0x000015ee       0x24 build/pic32mx/debug/_ext/1408260596/tcpip_announce.o
 .debug_str     0x00001612        0x0 build/pic32mx/debug/_ext/1408260596/hash_fnv.o
 .debug_str     0x00001612        0xa build/pic32mx/debug/_ext/1408260596/oahash.o
 .debug_str     0x0000161c       0x47 build/pic32mx/debug/_ext/1408260596/tcpip_heap_alloc.o
 .debug_str     0x00001663       0x5d build/pic32mx/debug/_ext/1408260596/tcpip_helpers.o
 .debug_str     0x000016c0      0x257 build/pic32mx/debug/_ext/1408260596/tcpip_manager.o
 .debug_str     0x00001917       0x11 build/pic32mx/debug/_ext/1408260596/tcpip_notify.o
 .debug_str     0x00001928       0x29 build/pic32mx/debug/_ext/1408260596/tcpip_packet.o
 .debug_str     0x00001951       0x2c build/pic32mx/debug/_ext/1408260596/ipv4.o
 .debug_str     0x0000197d      0x29f build/pic32mx/debug/_ext/610166344/usb_device.o
 .debug_str     0x00001c1c      0x18b build/pic32mx/debug/_ext/610166344/usb_device_cdc.o
 .debug_str     0x00001da7        0xe build/pic32mx/debug/_ext/610166344/usb_device_cdc_acm.o
 .debug_str     0x00001db5        0x0 c:/program files (x86)/microchip/xc32/v1.40/bin/bin/../../lib/gcc/pic32mx/4.8.3\libgcc.a(_udivdi3.o)
 .debug_str     0x00001db5        0x0 c:/program files (x86)/microchip/xc32/v1.40/bin/bin/../../lib/gcc/pic32mx/4.8.3/../../../../pic32mx/lib\libpic32.a(default-bootstrap-exception-handler.o)
 .debug_str     0x00001db5        0x0 c:/program files (x86)/microchip/xc32/v1.40/bin/bin/../../lib/gcc/pic32mx/4.8.3/../../../../pic32mx/lib\libpic32.a(default-on-reset.o)
 .debug_str     0x00001db5        0x0 c:/program files (x86)/microchip/xc32/v1.40/bin/bin/../../lib/gcc/pic32mx/4.8.3/../../../../pic32mx/lib\libpic32.a(default-on-bootstrap.o)
 .debug_str     0x00001db5        0x0 c:/program files (x86)/microchip/xc32/v1.40/bin/bin/../../lib/gcc/pic32mx/4.8.3/../../../../pic32mx/lib\libpic32.a(defaultinterrupt.o)
 .debug_str     0x00001db5        0x0 c:/program files (x86)/microchip/xc32/v1.40/bin/bin/../../lib/gcc/pic32mx/4.8.3/../../../../pic32mx/lib\libc.a(atoi.o)
 .debug_str     0x00001db5        0x0 c:/program files (x86)/microchip/xc32/v1.40/bin/bin/../../lib/gcc/pic32mx/4.8.3/../../../../pic32mx/lib\libc.a(atol.o)
 .debug_str     0x00001db5        0x0 c:/program files (x86)/microchip/xc32/v1.40/bin/bin/../../lib/gcc/pic32mx/4.8.3/../../../../pic32mx/lib\libc.a(ctype.o)
 .debug_str     0x00001db5        0x0 c:/program files (x86)/microchip/xc32/v1.40/bin/bin/../../lib/gcc/pic32mx/4.8.3/../../../../pic32mx/lib\libc.a(malloc.o)
 .debug_str     0x00001db5        0x0 c:/program files (x86)/microchip/xc32/v1.40/bin/bin/../../lib/gcc/pic32mx/4.8.3/../../../../pic32mx/lib\libc.a(rand.o)
 .debug_str     0x00001db5        0x0 c:/program files (x86)/microchip/xc32/v1.40/bin/bin/../../lib/gcc/pic32mx/4.8.3/../../../../pic32mx/lib\libc.a(strcat.o)
 .debug_str     0x00001db5        0x0 c:/program files (x86)/microchip/xc32/v1.40/bin/bin/../../lib/gcc/pic32mx/4.8.3/../../../../pic32mx/lib\libc.a(strncat.o)
 .debug_str     0x00001db5        0x0 c:/program files (x86)/microchip/xc32/v1.40/bin/bin/../../lib/gcc/pic32mx/4.8.3/../../../../pic32mx/lib\libc.a(strncmp.o)
 .debug_str     0x00001db5        0x0 c:/program files (x86)/microchip/xc32/v1.40/bin/bin/../../lib/gcc/pic32mx/4.8.3/../../../../pic32mx/lib\libc.a(strncpy.o)
 .debug_str     0x00001db5        0x0 c:/program files (x86)/microchip/xc32/v1.40/bin/bin/../../lib/gcc/pic32mx/4.8.3/../../../../pic32mx/lib\libc.a(strtol.o)
 .debug_str     0x00001db5        0x0 c:/program files (x86)/microchip/xc32/v1.40/bin/bin/../../lib/gcc/pic32mx/4.8.3/../../../../pic32mx/lib\libc.a(sprintf_cdnopsuxX.eo)
 .debug_str     0x00001db5        0x0 c:/program files (x86)/microchip/xc32/v1.40/bin/bin/../../lib/gcc/pic32mx/4.8.3/../../../../pic32mx/lib\libc.a(vsnprintf.o)
 .debug_str     0x00001db5        0x0 c:/program files (x86)/microchip/xc32/v1.40/bin/bin/../../lib/gcc/pic32mx/4.8.3/../../../../pic32mx/lib\libc.a(ctypef.o)
 .debug_str     0x00001db5        0x0 c:/program files (x86)/microchip/xc32/v1.40/bin/bin/../../lib/gcc/pic32mx/4.8.3/../../../../pic32mx/lib\libc.a(errno.o)
 .debug_str     0x00001db5        0x0 c:/program files (x86)/microchip/xc32/v1.40/bin/bin/../../lib/gcc/pic32mx/4.8.3/../../../../pic32mx/lib\libc.a(doprnt_cdnopsuxX.eo)
 .debug_str     0x00001db5        0x0 c:/program files (x86)/microchip/xc32/v1.40/bin/bin/../../lib/gcc/pic32mx/4.8.3/../../../../pic32mx/lib\libc.a(doprnt.o)
 .debug_str     0x00001db5        0x0 c:/program files (x86)/microchip/xc32/v1.40/bin/bin/../../lib/gcc/pic32mx/4.8.3/../../../../pic32mx/lib\libc.a(_fputc_simple.o)
 .debug_str     0x00001db5        0x0 c:/program files (x86)/microchip/xc32/v1.40/bin/bin/../../lib/gcc/pic32mx/4.8.3/../../../../pic32mx/lib\libc.a(powersf.o)
 .debug_str     0x00001db5        0x0 c:/program files (x86)/microchip/xc32/v1.40/bin/bin/../../lib/gcc/pic32mx/4.8.3/../../../../pic32mx/lib\libc.a(_iob.o)
 .debug_str     0x00001db5        0x0 c:/program files (x86)/microchip/xc32/v1.40/bin/bin/../../lib/gcc/pic32mx/4.8.3/../../../../pic32mx/lib\libc.a(_flsbuf_simple.o)
 .debug_str     0x00001db5        0x0 c:/program files (x86)/microchip/xc32/v1.40/bin/bin/../../lib/gcc/pic32mx/4.8.3/../../../../pic32mx/lib\libpic32.a(sbrk.o)
 .debug_str     0x00001db5        0x0 c:/program files (x86)/microchip/xc32/v1.40/bin/bin/../../lib/gcc/pic32mx/4.8.3/../../../../pic32mx/lib\libpic32.a(write.o)
 .debug_str     0x00001db5        0x0 c:/program files (x86)/microchip/xc32/v1.40/bin/bin/../../lib/gcc/pic32mx/4.8.3/../../../../pic32mx/lib\libpic32.a(_mon_putc.o)
 .debug_str     0x00001db5        0x0 c:/program files (x86)/microchip/xc32/v1.40/bin/bin/../../lib/gcc/pic32mx/4.8.3/../../../../pic32mx/lib\libpic32.a(xc32_uart.o)
 .debug_str     0x00001db5        0x0 c:/program files (x86)/microchip/xc32/v1.40/bin/bin/../../lib/gcc/pic32mx/4.8.3/../../../../pic32mx/lib\libe.a(_floatdisf.o)
 .debug_str     0x00001db5        0x0 c:/program files (x86)/microchip/xc32/v1.40/bin/bin/../../lib/gcc/pic32mx/4.8.3\libgcc.a(_umoddi3.o)
 .debug_str     0x00001db5        0x0 c:/program files (x86)/microchip/xc32/v1.40/bin/bin/../../lib/gcc/pic32mx/4.8.3\libgcc.a(floatunsisf.o)

.debug_loc      0x00000000    0x3a991
 *(.debug_loc)
 .debug_loc     0x00000000       0x41 build/pic32mx/debug/_ext/1482089478/sys_clk_static.o
 .debug_loc     0x00000041       0x75 build/pic32mx/debug/_ext/435813987/system_init.o
 .debug_loc     0x000000b6       0xda build/pic32mx/debug/_ext/435813987/system_interrupt.o
 .debug_loc     0x00000190       0x20 build/pic32mx/debug/_ext/435813987/system_exceptions.o
 .debug_loc     0x000001b0       0x20 build/pic32mx/debug/_ext/435813987/system_tasks.o
 .debug_loc     0x000001d0      0x178 build/pic32mx/debug/_ext/1360937237/app.o
 .debug_loc     0x00000348       0x20 build/pic32mx/debug/_ext/1360937237/main.o
 .debug_loc     0x00000368     0x1130 build/pic32mx/debug/_ext/1360937237/custom_http_app.o
 .debug_loc     0x00001498       0xfb build/pic32mx/debug/_ext/1360937237/http_print.o
 .debug_loc     0x00001593      0x10e build/pic32mx/debug/_ext/1837361561/bsp_sys_init.o
 .debug_loc     0x000016a1      0x235 build/pic32mx/debug/_ext/1886890887/random.o
 .debug_loc     0x000018d6      0x1b5 build/pic32mx/debug/_ext/1886890887/arc4.o
 .debug_loc     0x00001a8b      0x6c4 build/pic32mx/debug/_ext/1886890887/crypto.o
 .debug_loc     0x0000214f     0x23c6 build/pic32mx/debug/_ext/1908841681/drv_ethmac.o
 .debug_loc     0x00004515     0x27ce build/pic32mx/debug/_ext/1908841681/drv_ethmac_lib.o
 .debug_loc     0x00006ce3     0x3997 build/pic32mx/debug/_ext/732687875/drv_ethphy.o
 .debug_loc     0x0000a67a      0x222 build/pic32mx/debug/_ext/732687875/drv_extphy_dp83848.o
 .debug_loc     0x0000a89c     0x15d7 build/pic32mx/debug/_ext/571308596/drv_nvm.o
 .debug_loc     0x0000be73      0x27d build/pic32mx/debug/_ext/571308596/drv_nvm_erasewrite.o
 .debug_loc     0x0000c0f0     0x3763 build/pic32mx/debug/_ext/185269848/drv_tmr.o
 .debug_loc     0x0000f853      0x6d1 build/pic32mx/debug/_ext/764219029/drv_usbfs.o
 .debug_loc     0x0000ff24     0x2722 build/pic32mx/debug/_ext/764219029/drv_usbfs_device.o
 .debug_loc     0x00012646     0x1361 build/pic32mx/debug/_ext/425903153/sys_command.o
 .debug_loc     0x000139a7      0x50a build/pic32mx/debug/_ext/30809027/sys_console.o
 .debug_loc     0x00013eb1      0x730 build/pic32mx/debug/_ext/30809027/sys_console_usb_cdc.o
 .debug_loc     0x000145e1      0x150 build/pic32mx/debug/_ext/1271179505/sys_devcon.o
 .debug_loc     0x00014731      0x100 build/pic32mx/debug/_ext/1271179505/sys_devcon_pic32mx.o
 .debug_loc     0x00014831     0x2a7c build/pic32mx/debug/_ext/2104899551/sys_fs.o
 .debug_loc     0x000172ad      0xd46 build/pic32mx/debug/_ext/2104899551/sys_fs_media_manager.o
 .debug_loc     0x00017ff3      0xced build/pic32mx/debug/_ext/850537704/mpfs.o
 .debug_loc     0x00018ce0      0x10d build/pic32mx/debug/_ext/122796885/sys_int_pic32.o
 .debug_loc     0x00018ded      0xee1 build/pic32mx/debug/_ext/77319752/sys_ports.o
 .debug_loc     0x00019cce      0x1b4 build/pic32mx/debug/_ext/1283840359/sys_random.o
 .debug_loc     0x00019e82      0xef1 build/pic32mx/debug/_ext/1264926591/sys_tmr.o
 .debug_loc     0x0001ad73      0x287 build/pic32mx/debug/_ext/1136935090/sys_fs_wrapper.o
 .debug_loc     0x0001affa      0x625 build/pic32mx/debug/_ext/1136935090/big_int.o
 .debug_loc     0x0001b61f      0xbc1 build/pic32mx/debug/_ext/1136935090/hashes.o
 .debug_loc     0x0001c1e0      0x4e3 build/pic32mx/debug/_ext/1136935090/helpers.o
 .debug_loc     0x0001c6c3       0xe8 build/pic32mx/debug/_ext/1136935090/lfsr.o
 .debug_loc     0x0001c7ab     0x4ae5 build/pic32mx/debug/_ext/1408260596/tcp.o
 .debug_loc     0x00021290     0x3393 build/pic32mx/debug/_ext/1408260596/udp.o
 .debug_loc     0x00024623     0x225f build/pic32mx/debug/_ext/1408260596/arp.o
 .debug_loc     0x00026882     0x206c build/pic32mx/debug/_ext/1408260596/dhcp.o
 .debug_loc     0x000288ee     0x28a3 build/pic32mx/debug/_ext/1408260596/dns.o
 .debug_loc     0x0002b191     0x16fd build/pic32mx/debug/_ext/1408260596/http.o
 .debug_loc     0x0002c88e      0x76f build/pic32mx/debug/_ext/1408260596/icmp.o
 .debug_loc     0x0002cffd      0x428 build/pic32mx/debug/_ext/1408260596/nbns.o
 .debug_loc     0x0002d425      0x37e build/pic32mx/debug/_ext/1408260596/sntp.o
 .debug_loc     0x0002d7a3       0xe9 build/pic32mx/debug/_ext/1408260596/zero_conf_helper.o
 .debug_loc     0x0002d88c      0x85e build/pic32mx/debug/_ext/1408260596/zero_conf_link_local.o
 .debug_loc     0x0002e0ea      0x370 build/pic32mx/debug/_ext/1408260596/tcpip_announce.o
 .debug_loc     0x0002e45a      0x137 build/pic32mx/debug/_ext/1408260596/hash_fnv.o
 .debug_loc     0x0002e591      0x311 build/pic32mx/debug/_ext/1408260596/oahash.o
 .debug_loc     0x0002e8a2      0xade build/pic32mx/debug/_ext/1408260596/tcpip_heap_alloc.o
 .debug_loc     0x0002f380     0x2b6e build/pic32mx/debug/_ext/1408260596/tcpip_helpers.o
 .debug_loc     0x00031eee     0x2bb5 build/pic32mx/debug/_ext/1408260596/tcpip_manager.o
 .debug_loc     0x00034aa3      0x2aa build/pic32mx/debug/_ext/1408260596/tcpip_notify.o
 .debug_loc     0x00034d4d      0xaff build/pic32mx/debug/_ext/1408260596/tcpip_packet.o
 .debug_loc     0x0003584c      0xdcf build/pic32mx/debug/_ext/1408260596/ipv4.o
 .debug_loc     0x0003661b     0x1e41 build/pic32mx/debug/_ext/610166344/usb_device.o
 .debug_loc     0x0003845c      0xe78 build/pic32mx/debug/_ext/610166344/usb_device_cdc.o
 .debug_loc     0x000392d4      0x1a2 build/pic32mx/debug/_ext/610166344/usb_device_cdc_acm.o
 .debug_loc     0x00039476      0xa6a c:/program files (x86)/microchip/xc32/v1.40/bin/bin/../../lib/gcc/pic32mx/4.8.3\libgcc.a(_udivdi3.o)
 .debug_loc     0x00039ee0      0xa3d c:/program files (x86)/microchip/xc32/v1.40/bin/bin/../../lib/gcc/pic32mx/4.8.3\libgcc.a(_umoddi3.o)
 .debug_loc     0x0003a91d       0x74 c:/program files (x86)/microchip/xc32/v1.40/bin/bin/../../lib/gcc/pic32mx/4.8.3\libgcc.a(floatunsisf.o)

.debug_macinfo
 *(.debug_macinfo)

.debug_weaknames
 *(.debug_weaknames)

.debug_funcnames
 *(.debug_funcnames)

.debug_typenames
 *(.debug_typenames)

.debug_varnames
 *(.debug_varnames)

.debug_pubtypes
 *(.debug_pubtypes)

.debug_ranges   0x00000000     0x45c8
 *(.debug_ranges)
 .debug_ranges  0x00000000       0x10 c:/program files (x86)/microchip/xc32/v1.40/bin/bin/../../lib/gcc/pic32mx/4.8.3/../../../../pic32mx/lib\software-debug-break.o
 .debug_ranges  0x00000010       0x28 build/pic32mx/debug/_ext/1482089478/sys_clk_static.o
 .debug_ranges  0x00000038       0x10 build/pic32mx/debug/_ext/148571690/sys_ports_static.o
 .debug_ranges  0x00000048       0x18 build/pic32mx/debug/_ext/435813987/system_init.o
 .debug_ranges  0x00000060       0x30 build/pic32mx/debug/_ext/435813987/system_interrupt.o
 .debug_ranges  0x00000090       0x10 build/pic32mx/debug/_ext/435813987/system_exceptions.o
 .debug_ranges  0x000000a0       0x10 build/pic32mx/debug/_ext/435813987/system_tasks.o
 .debug_ranges  0x000000b0       0x48 build/pic32mx/debug/_ext/1360937237/app.o
 .debug_ranges  0x000000f8       0x10 build/pic32mx/debug/_ext/1360937237/main.o
 .debug_ranges  0x00000108      0x178 build/pic32mx/debug/_ext/1360937237/custom_http_app.o
 .debug_ranges  0x00000280       0x18 build/pic32mx/debug/_ext/1360937237/http_print.o
 .debug_ranges  0x00000298       0x58 build/pic32mx/debug/_ext/1837361561/bsp_sys_init.o
 .debug_ranges  0x000002f0       0x28 build/pic32mx/debug/_ext/1886890887/random.o
 .debug_ranges  0x00000318       0x18 build/pic32mx/debug/_ext/1886890887/arc4.o
 .debug_ranges  0x00000330       0x48 build/pic32mx/debug/_ext/1886890887/crypto.o
 .debug_ranges  0x00000378      0x1f0 build/pic32mx/debug/_ext/1908841681/drv_ethmac.o
 .debug_ranges  0x00000568      0x488 build/pic32mx/debug/_ext/1908841681/drv_ethmac_lib.o
 .debug_ranges  0x000009f0      0x2d0 build/pic32mx/debug/_ext/732687875/drv_ethphy.o
 .debug_ranges  0x00000cc0       0x20 build/pic32mx/debug/_ext/732687875/drv_extphy_dp83848.o
 .debug_ranges  0x00000ce0      0x120 build/pic32mx/debug/_ext/571308596/drv_nvm.o
 .debug_ranges  0x00000e00       0x28 build/pic32mx/debug/_ext/571308596/drv_nvm_erasewrite.o
 .debug_ranges  0x00000e28      0x6b0 build/pic32mx/debug/_ext/185269848/drv_tmr.o
 .debug_ranges  0x000014d8       0x78 build/pic32mx/debug/_ext/764219029/drv_usbfs.o
 .debug_ranges  0x00001550      0x1f0 build/pic32mx/debug/_ext/764219029/drv_usbfs_device.o
 .debug_ranges  0x00001740      0x1f8 build/pic32mx/debug/_ext/425903153/sys_command.o
 .debug_ranges  0x00001938       0x50 build/pic32mx/debug/_ext/30809027/sys_console.o
 .debug_ranges  0x00001988       0x88 build/pic32mx/debug/_ext/30809027/sys_console_usb_cdc.o
 .debug_ranges  0x00001a10       0x68 build/pic32mx/debug/_ext/1271179505/sys_devcon.o
 .debug_ranges  0x00001a78       0x10 build/pic32mx/debug/_ext/1271179505/sys_devcon_pic32mx.o
 .debug_ranges  0x00001a88      0x178 build/pic32mx/debug/_ext/2104899551/sys_fs.o
 .debug_ranges  0x00001c00       0x80 build/pic32mx/debug/_ext/2104899551/sys_fs_media_manager.o
 .debug_ranges  0x00001c80       0xd0 build/pic32mx/debug/_ext/850537704/mpfs.o
 .debug_ranges  0x00001d50       0x50 build/pic32mx/debug/_ext/122796885/sys_int_pic32.o
 .debug_ranges  0x00001da0       0xe8 build/pic32mx/debug/_ext/77319752/sys_ports.o
 .debug_ranges  0x00001e88       0x58 build/pic32mx/debug/_ext/1283840359/sys_random.o
 .debug_ranges  0x00001ee0       0x10 build/pic32mx/debug/_ext/813494389/sys_reset.o
 .debug_ranges  0x00001ef0      0x158 build/pic32mx/debug/_ext/1264926591/sys_tmr.o
 .debug_ranges  0x00002048       0x30 build/pic32mx/debug/_ext/1136935090/sys_fs_wrapper.o
 .debug_ranges  0x00002078       0x70 build/pic32mx/debug/_ext/1136935090/big_int.o
 .debug_ranges  0x000020e8       0x50 build/pic32mx/debug/_ext/1136935090/hashes.o
 .debug_ranges  0x00002138       0x48 build/pic32mx/debug/_ext/1136935090/helpers.o
 .debug_ranges  0x00002180       0x18 build/pic32mx/debug/_ext/1136935090/lfsr.o
 .debug_ranges  0x00002198      0x4f8 build/pic32mx/debug/_ext/1408260596/tcp.o
 .debug_ranges  0x00002690      0x428 build/pic32mx/debug/_ext/1408260596/udp.o
 .debug_ranges  0x00002ab8      0x130 build/pic32mx/debug/_ext/1408260596/arp.o
 .debug_ranges  0x00002be8      0x298 build/pic32mx/debug/_ext/1408260596/dhcp.o
 .debug_ranges  0x00002e80      0x240 build/pic32mx/debug/_ext/1408260596/dns.o
 .debug_ranges  0x000030c0      0x2e8 build/pic32mx/debug/_ext/1408260596/http.o
 .debug_ranges  0x000033a8       0x60 build/pic32mx/debug/_ext/1408260596/icmp.o
 .debug_ranges  0x00003408       0x90 build/pic32mx/debug/_ext/1408260596/nbns.o
 .debug_ranges  0x00003498       0x88 build/pic32mx/debug/_ext/1408260596/sntp.o
 .debug_ranges  0x00003520       0x10 build/pic32mx/debug/_ext/1408260596/zero_conf_helper.o
 .debug_ranges  0x00003530       0x78 build/pic32mx/debug/_ext/1408260596/zero_conf_link_local.o
 .debug_ranges  0x000035a8       0x40 build/pic32mx/debug/_ext/1408260596/tcpip_announce.o
 .debug_ranges  0x000035e8       0x18 build/pic32mx/debug/_ext/1408260596/hash_fnv.o
 .debug_ranges  0x00003600       0x40 build/pic32mx/debug/_ext/1408260596/oahash.o
 .debug_ranges  0x00003640       0x98 build/pic32mx/debug/_ext/1408260596/tcpip_heap_alloc.o
 .debug_ranges  0x000036d8      0x2b8 build/pic32mx/debug/_ext/1408260596/tcpip_helpers.o
 .debug_ranges  0x00003990      0x520 build/pic32mx/debug/_ext/1408260596/tcpip_manager.o
 .debug_ranges  0x00003eb0       0x30 build/pic32mx/debug/_ext/1408260596/tcpip_notify.o
 .debug_ranges  0x00003ee0       0x90 build/pic32mx/debug/_ext/1408260596/tcpip_packet.o
 .debug_ranges  0x00003f70       0xd0 build/pic32mx/debug/_ext/1408260596/ipv4.o
 .debug_ranges  0x00004040      0x140 build/pic32mx/debug/_ext/610166344/usb_device.o
 .debug_ranges  0x00004180       0x78 build/pic32mx/debug/_ext/610166344/usb_device_cdc.o
 .debug_ranges  0x000041f8       0x10 build/pic32mx/debug/_ext/610166344/usb_device_cdc_acm.o
 .debug_ranges  0x00004208       0x98 c:/program files (x86)/microchip/xc32/v1.40/bin/bin/../../lib/gcc/pic32mx/4.8.3\libgcc.a(_udivdi3.o)
 .debug_ranges  0x000042a0       0x10 c:/program files (x86)/microchip/xc32/v1.40/bin/bin/../../lib/gcc/pic32mx/4.8.3/../../../../pic32mx/lib\libpic32.a(default-bootstrap-exception-handler.o)
 .debug_ranges  0x000042b0       0x10 c:/program files (x86)/microchip/xc32/v1.40/bin/bin/../../lib/gcc/pic32mx/4.8.3/../../../../pic32mx/lib\libpic32.a(default-on-reset.o)
 .debug_ranges  0x000042c0       0x10 c:/program files (x86)/microchip/xc32/v1.40/bin/bin/../../lib/gcc/pic32mx/4.8.3/../../../../pic32mx/lib\libpic32.a(default-on-bootstrap.o)
 .debug_ranges  0x000042d0       0x10 c:/program files (x86)/microchip/xc32/v1.40/bin/bin/../../lib/gcc/pic32mx/4.8.3/../../../../pic32mx/lib\libpic32.a(defaultinterrupt.o)
 .debug_ranges  0x000042e0       0x10 c:/program files (x86)/microchip/xc32/v1.40/bin/bin/../../lib/gcc/pic32mx/4.8.3/../../../../pic32mx/lib\libc.a(atoi.o)
 .debug_ranges  0x000042f0       0x10 c:/program files (x86)/microchip/xc32/v1.40/bin/bin/../../lib/gcc/pic32mx/4.8.3/../../../../pic32mx/lib\libc.a(atol.o)
 .debug_ranges  0x00004300       0x20 c:/program files (x86)/microchip/xc32/v1.40/bin/bin/../../lib/gcc/pic32mx/4.8.3/../../../../pic32mx/lib\libc.a(malloc.o)
 .debug_ranges  0x00004320       0x18 c:/program files (x86)/microchip/xc32/v1.40/bin/bin/../../lib/gcc/pic32mx/4.8.3/../../../../pic32mx/lib\libc.a(rand.o)
 .debug_ranges  0x00004338       0x10 c:/program files (x86)/microchip/xc32/v1.40/bin/bin/../../lib/gcc/pic32mx/4.8.3/../../../../pic32mx/lib\libc.a(strcat.o)
 .debug_ranges  0x00004348       0x10 c:/program files (x86)/microchip/xc32/v1.40/bin/bin/../../lib/gcc/pic32mx/4.8.3/../../../../pic32mx/lib\libc.a(strncat.o)
 .debug_ranges  0x00004358       0x10 c:/program files (x86)/microchip/xc32/v1.40/bin/bin/../../lib/gcc/pic32mx/4.8.3/../../../../pic32mx/lib\libc.a(strncmp.o)
 .debug_ranges  0x00004368       0x10 c:/program files (x86)/microchip/xc32/v1.40/bin/bin/../../lib/gcc/pic32mx/4.8.3/../../../../pic32mx/lib\libc.a(strncpy.o)
 .debug_ranges  0x00004378       0x18 c:/program files (x86)/microchip/xc32/v1.40/bin/bin/../../lib/gcc/pic32mx/4.8.3/../../../../pic32mx/lib\libc.a(strtol.o)
 .debug_ranges  0x00004390       0x10 c:/program files (x86)/microchip/xc32/v1.40/bin/bin/../../lib/gcc/pic32mx/4.8.3/../../../../pic32mx/lib\libc.a(sprintf_cdnopsuxX.eo)
 .debug_ranges  0x000043a0       0x10 c:/program files (x86)/microchip/xc32/v1.40/bin/bin/../../lib/gcc/pic32mx/4.8.3/../../../../pic32mx/lib\libc.a(vsnprintf.o)
 .debug_ranges  0x000043b0       0x90 c:/program files (x86)/microchip/xc32/v1.40/bin/bin/../../lib/gcc/pic32mx/4.8.3/../../../../pic32mx/lib\libc.a(ctypef.o)
 .debug_ranges  0x00004440       0x10 c:/program files (x86)/microchip/xc32/v1.40/bin/bin/../../lib/gcc/pic32mx/4.8.3/../../../../pic32mx/lib\libc.a(doprnt_cdnopsuxX.eo)
 .debug_ranges  0x00004450       0x20 c:/program files (x86)/microchip/xc32/v1.40/bin/bin/../../lib/gcc/pic32mx/4.8.3/../../../../pic32mx/lib\libc.a(doprnt.o)
 .debug_ranges  0x00004470       0x10 c:/program files (x86)/microchip/xc32/v1.40/bin/bin/../../lib/gcc/pic32mx/4.8.3/../../../../pic32mx/lib\libc.a(_fputc_simple.o)
 .debug_ranges  0x00004480       0x10 c:/program files (x86)/microchip/xc32/v1.40/bin/bin/../../lib/gcc/pic32mx/4.8.3/../../../../pic32mx/lib\libc.a(_flsbuf_simple.o)
 .debug_ranges  0x00004490       0x30 c:/program files (x86)/microchip/xc32/v1.40/bin/bin/../../lib/gcc/pic32mx/4.8.3/../../../../pic32mx/lib\libpic32.a(sbrk.o)
 .debug_ranges  0x000044c0       0x10 c:/program files (x86)/microchip/xc32/v1.40/bin/bin/../../lib/gcc/pic32mx/4.8.3/../../../../pic32mx/lib\libpic32.a(write.o)
 .debug_ranges  0x000044d0       0x10 c:/program files (x86)/microchip/xc32/v1.40/bin/bin/../../lib/gcc/pic32mx/4.8.3/../../../../pic32mx/lib\libpic32.a(_mon_putc.o)
 .debug_ranges  0x000044e0       0x10 c:/program files (x86)/microchip/xc32/v1.40/bin/bin/../../lib/gcc/pic32mx/4.8.3/../../../../pic32mx/lib\libe.a(_floatdisf.o)
 .debug_ranges  0x000044f0       0xd8 c:/program files (x86)/microchip/xc32/v1.40/bin/bin/../../lib/gcc/pic32mx/4.8.3\libgcc.a(_umoddi3.o)

.gnu.attributes
                0x00000000       0x10
 *(.gnu.attributes)
 .gnu.attributes
                0x00000000       0x10 c:/program files (x86)/microchip/xc32/v1.40/bin/bin/../../lib/gcc/pic32mx/4.8.3/../../../../pic32mx/lib\software-debug-break.o
 .gnu.attributes
                0x00000010       0x10 build/pic32mx/debug/_ext/1482089478/sys_clk_static.o
 .gnu.attributes
                0x00000020       0x10 build/pic32mx/debug/_ext/148571690/sys_ports_static.o
 .gnu.attributes
                0x00000030       0x10 build/pic32mx/debug/_ext/435813987/system_init.o
 .gnu.attributes
                0x00000040       0x10 build/pic32mx/debug/_ext/435813987/system_interrupt.o
 .gnu.attributes
                0x00000050       0x10 build/pic32mx/debug/_ext/435813987/system_exceptions.o
 .gnu.attributes
                0x00000060       0x10 build/pic32mx/debug/_ext/435813987/system_tasks.o
 .gnu.attributes
                0x00000070       0x10 build/pic32mx/debug/_ext/1360937237/app.o
 .gnu.attributes
                0x00000080       0x10 build/pic32mx/debug/_ext/1360937237/main.o
 .gnu.attributes
                0x00000090       0x10 build/pic32mx/debug/_ext/1360937237/custom_http_app.o
 .gnu.attributes
                0x000000a0       0x10 build/pic32mx/debug/_ext/1360937237/http_print.o
 .gnu.attributes
                0x000000b0       0x10 build/pic32mx/debug/_ext/1360937237/mpfs_img2.o
 .gnu.attributes
                0x000000c0       0x10 build/pic32mx/debug/_ext/1837361561/bsp_sys_init.o
 .gnu.attributes
                0x000000d0       0x10 build/pic32mx/debug/_ext/1886890887/random.o
 .gnu.attributes
                0x000000e0       0x10 build/pic32mx/debug/_ext/1886890887/arc4.o
 .gnu.attributes
                0x000000f0       0x10 build/pic32mx/debug/_ext/1886890887/crypto.o
 .gnu.attributes
                0x00000100       0x10 build/pic32mx/debug/_ext/1908841681/drv_ethmac.o
 .gnu.attributes
                0x00000110       0x10 build/pic32mx/debug/_ext/1908841681/drv_ethmac_lib.o
 .gnu.attributes
                0x00000120       0x10 build/pic32mx/debug/_ext/732687875/drv_ethphy.o
 .gnu.attributes
                0x00000130       0x10 build/pic32mx/debug/_ext/732687875/drv_extphy_dp83848.o
 .gnu.attributes
                0x00000140       0x10 build/pic32mx/debug/_ext/571308596/drv_nvm.o
 .gnu.attributes
                0x00000150       0x10 build/pic32mx/debug/_ext/571308596/drv_nvm_erasewrite.o
 .gnu.attributes
                0x00000160       0x10 build/pic32mx/debug/_ext/185269848/drv_tmr.o
 .gnu.attributes
                0x00000170       0x10 build/pic32mx/debug/_ext/764219029/drv_usbfs.o
 .gnu.attributes
                0x00000180       0x10 build/pic32mx/debug/_ext/764219029/drv_usbfs_device.o
 .gnu.attributes
                0x00000190       0x10 build/pic32mx/debug/_ext/425903153/sys_command.o
 .gnu.attributes
                0x000001a0       0x10 build/pic32mx/debug/_ext/30809027/sys_console.o
 .gnu.attributes
                0x000001b0       0x10 build/pic32mx/debug/_ext/30809027/sys_console_usb_cdc.o
 .gnu.attributes
                0x000001c0       0x10 build/pic32mx/debug/_ext/1271179505/sys_devcon.o
 .gnu.attributes
                0x000001d0       0x10 build/pic32mx/debug/_ext/1271179505/sys_devcon_pic32mx.o
 .gnu.attributes
                0x000001e0       0x10 build/pic32mx/debug/_ext/2104899551/sys_fs.o
 .gnu.attributes
                0x000001f0       0x10 build/pic32mx/debug/_ext/2104899551/sys_fs_media_manager.o
 .gnu.attributes
                0x00000200       0x10 build/pic32mx/debug/_ext/850537704/mpfs.o
 .gnu.attributes
                0x00000210       0x10 build/pic32mx/debug/_ext/122796885/sys_int_pic32.o
 .gnu.attributes
                0x00000220       0x10 build/pic32mx/debug/_ext/77319752/sys_ports.o
 .gnu.attributes
                0x00000230       0x10 build/pic32mx/debug/_ext/1283840359/sys_random.o
 .gnu.attributes
                0x00000240       0x10 build/pic32mx/debug/_ext/813494389/sys_reset.o
 .gnu.attributes
                0x00000250       0x10 build/pic32mx/debug/_ext/1264926591/sys_tmr.o
 .gnu.attributes
                0x00000260       0x10 build/pic32mx/debug/_ext/1136935090/sys_fs_wrapper.o
 .gnu.attributes
                0x00000270       0x10 build/pic32mx/debug/_ext/1136935090/big_int.o
 .gnu.attributes
                0x00000280       0x10 build/pic32mx/debug/_ext/1136935090/hashes.o
 .gnu.attributes
                0x00000290       0x10 build/pic32mx/debug/_ext/1136935090/helpers.o
 .gnu.attributes
                0x000002a0       0x10 build/pic32mx/debug/_ext/1136935090/lfsr.o
 .gnu.attributes
                0x000002b0       0x10 build/pic32mx/debug/_ext/1408260596/tcp.o
 .gnu.attributes
                0x000002c0       0x10 build/pic32mx/debug/_ext/1408260596/udp.o
 .gnu.attributes
                0x000002d0       0x10 build/pic32mx/debug/_ext/1408260596/arp.o
 .gnu.attributes
                0x000002e0       0x10 build/pic32mx/debug/_ext/1408260596/dhcp.o
 .gnu.attributes
                0x000002f0       0x10 build/pic32mx/debug/_ext/1408260596/dns.o
 .gnu.attributes
                0x00000300       0x10 build/pic32mx/debug/_ext/1408260596/http.o
 .gnu.attributes
                0x00000310       0x10 build/pic32mx/debug/_ext/1408260596/icmp.o
 .gnu.attributes
                0x00000320       0x10 build/pic32mx/debug/_ext/1408260596/nbns.o
 .gnu.attributes
                0x00000330       0x10 build/pic32mx/debug/_ext/1408260596/sntp.o
 .gnu.attributes
                0x00000340       0x10 build/pic32mx/debug/_ext/1408260596/zero_conf_helper.o
 .gnu.attributes
                0x00000350       0x10 build/pic32mx/debug/_ext/1408260596/zero_conf_link_local.o
 .gnu.attributes
                0x00000360       0x10 build/pic32mx/debug/_ext/1408260596/tcpip_announce.o
 .gnu.attributes
                0x00000370       0x10 build/pic32mx/debug/_ext/1408260596/hash_fnv.o
 .gnu.attributes
                0x00000380       0x10 build/pic32mx/debug/_ext/1408260596/oahash.o
 .gnu.attributes
                0x00000390       0x10 build/pic32mx/debug/_ext/1408260596/tcpip_heap_alloc.o
 .gnu.attributes
                0x000003a0       0x10 build/pic32mx/debug/_ext/1408260596/tcpip_helpers.o
 .gnu.attributes
                0x000003b0       0x10 build/pic32mx/debug/_ext/1408260596/tcpip_manager.o
 .gnu.attributes
                0x000003c0       0x10 build/pic32mx/debug/_ext/1408260596/tcpip_notify.o
 .gnu.attributes
                0x000003d0       0x10 build/pic32mx/debug/_ext/1408260596/tcpip_packet.o
 .gnu.attributes
                0x000003e0       0x10 build/pic32mx/debug/_ext/1408260596/ipv4.o
 .gnu.attributes
                0x000003f0       0x10 build/pic32mx/debug/_ext/610166344/usb_device.o
 .gnu.attributes
                0x00000400       0x10 build/pic32mx/debug/_ext/610166344/usb_device_cdc.o
 .gnu.attributes
                0x00000410       0x10 build/pic32mx/debug/_ext/610166344/usb_device_cdc_acm.o
 .gnu.attributes
                0x00000420       0x10 ..\..\..\..\bin\framework\peripheral\PIC32MX795F512L_peripherals.a(plib_eth_lib.o)
 .gnu.attributes
                0x00000430       0x10 c:/program files (x86)/microchip/xc32/v1.40/bin/bin/../../lib/gcc/pic32mx/4.8.3\libgcc.a(_udivdi3.o)
 .gnu.attributes
                0x00000440       0x10 c:/program files (x86)/microchip/xc32/v1.40/bin/bin/../../lib/gcc/pic32mx/4.8.3/../../../../pic32mx/lib\libpic32.a(default-bootstrap-exception-handler.o)
 .gnu.attributes
                0x00000450       0x10 c:/program files (x86)/microchip/xc32/v1.40/bin/bin/../../lib/gcc/pic32mx/4.8.3/../../../../pic32mx/lib\libpic32.a(default-on-reset.o)
 .gnu.attributes
                0x00000460       0x10 c:/program files (x86)/microchip/xc32/v1.40/bin/bin/../../lib/gcc/pic32mx/4.8.3/../../../../pic32mx/lib\libpic32.a(default-on-bootstrap.o)
 .gnu.attributes
                0x00000470       0x10 c:/program files (x86)/microchip/xc32/v1.40/bin/bin/../../lib/gcc/pic32mx/4.8.3/../../../../pic32mx/lib\libpic32.a(defaultinterrupt.o)
 .gnu.attributes
                0x00000480       0x10 c:/program files (x86)/microchip/xc32/v1.40/bin/bin/../../lib/gcc/pic32mx/4.8.3/../../../../pic32mx/lib\libc.a(atoi.o)
 .gnu.attributes
                0x00000490       0x10 c:/program files (x86)/microchip/xc32/v1.40/bin/bin/../../lib/gcc/pic32mx/4.8.3/../../../../pic32mx/lib\libc.a(atol.o)
 .gnu.attributes
                0x000004a0       0x10 c:/program files (x86)/microchip/xc32/v1.40/bin/bin/../../lib/gcc/pic32mx/4.8.3/../../../../pic32mx/lib\libc.a(ctype.o)
 .gnu.attributes
                0x000004b0       0x10 c:/program files (x86)/microchip/xc32/v1.40/bin/bin/../../lib/gcc/pic32mx/4.8.3/../../../../pic32mx/lib\libc.a(malloc.o)
 .gnu.attributes
                0x000004c0       0x10 c:/program files (x86)/microchip/xc32/v1.40/bin/bin/../../lib/gcc/pic32mx/4.8.3/../../../../pic32mx/lib\libc.a(rand.o)
 .gnu.attributes
                0x000004d0       0x10 c:/program files (x86)/microchip/xc32/v1.40/bin/bin/../../lib/gcc/pic32mx/4.8.3/../../../../pic32mx/lib\libc.a(strcat.o)
 .gnu.attributes
                0x000004e0       0x10 c:/program files (x86)/microchip/xc32/v1.40/bin/bin/../../lib/gcc/pic32mx/4.8.3/../../../../pic32mx/lib\libc.a(strncat.o)
 .gnu.attributes
                0x000004f0       0x10 c:/program files (x86)/microchip/xc32/v1.40/bin/bin/../../lib/gcc/pic32mx/4.8.3/../../../../pic32mx/lib\libc.a(strncmp.o)
 .gnu.attributes
                0x00000500       0x10 c:/program files (x86)/microchip/xc32/v1.40/bin/bin/../../lib/gcc/pic32mx/4.8.3/../../../../pic32mx/lib\libc.a(strncpy.o)
 .gnu.attributes
                0x00000510       0x10 c:/program files (x86)/microchip/xc32/v1.40/bin/bin/../../lib/gcc/pic32mx/4.8.3/../../../../pic32mx/lib\libc.a(strtol.o)
 .gnu.attributes
                0x00000520       0x10 c:/program files (x86)/microchip/xc32/v1.40/bin/bin/../../lib/gcc/pic32mx/4.8.3/../../../../pic32mx/lib\libc.a(sprintf_cdnopsuxX.eo)
 .gnu.attributes
                0x00000530       0x10 c:/program files (x86)/microchip/xc32/v1.40/bin/bin/../../lib/gcc/pic32mx/4.8.3/../../../../pic32mx/lib\libc.a(vsnprintf.o)
 .gnu.attributes
                0x00000540       0x10 c:/program files (x86)/microchip/xc32/v1.40/bin/bin/../../lib/gcc/pic32mx/4.8.3/../../../../pic32mx/lib\libc.a(ctypef.o)
 .gnu.attributes
                0x00000550       0x10 c:/program files (x86)/microchip/xc32/v1.40/bin/bin/../../lib/gcc/pic32mx/4.8.3/../../../../pic32mx/lib\libc.a(errno.o)
 .gnu.attributes
                0x00000560       0x10 c:/program files (x86)/microchip/xc32/v1.40/bin/bin/../../lib/gcc/pic32mx/4.8.3/../../../../pic32mx/lib\libc.a(doprnt_cdnopsuxX.eo)
 .gnu.attributes
                0x00000570       0x10 c:/program files (x86)/microchip/xc32/v1.40/bin/bin/../../lib/gcc/pic32mx/4.8.3/../../../../pic32mx/lib\libc.a(doprnt.o)
 .gnu.attributes
                0x00000580       0x10 c:/program files (x86)/microchip/xc32/v1.40/bin/bin/../../lib/gcc/pic32mx/4.8.3/../../../../pic32mx/lib\libc.a(_fputc_simple.o)
 .gnu.attributes
                0x00000590       0x10 c:/program files (x86)/microchip/xc32/v1.40/bin/bin/../../lib/gcc/pic32mx/4.8.3/../../../../pic32mx/lib\libc.a(powersf.o)
 .gnu.attributes
                0x000005a0       0x10 c:/program files (x86)/microchip/xc32/v1.40/bin/bin/../../lib/gcc/pic32mx/4.8.3/../../../../pic32mx/lib\libc.a(_iob.o)
 .gnu.attributes
                0x000005b0       0x10 c:/program files (x86)/microchip/xc32/v1.40/bin/bin/../../lib/gcc/pic32mx/4.8.3/../../../../pic32mx/lib\libc.a(_flsbuf_simple.o)
 .gnu.attributes
                0x000005c0       0x10 c:/program files (x86)/microchip/xc32/v1.40/bin/bin/../../lib/gcc/pic32mx/4.8.3/../../../../pic32mx/lib\libpic32.a(sbrk.o)
 .gnu.attributes
                0x000005d0       0x10 c:/program files (x86)/microchip/xc32/v1.40/bin/bin/../../lib/gcc/pic32mx/4.8.3/../../../../pic32mx/lib\libpic32.a(write.o)
 .gnu.attributes
                0x000005e0       0x10 c:/program files (x86)/microchip/xc32/v1.40/bin/bin/../../lib/gcc/pic32mx/4.8.3/../../../../pic32mx/lib\libpic32.a(_mon_putc.o)
 .gnu.attributes
                0x000005f0       0x10 c:/program files (x86)/microchip/xc32/v1.40/bin/bin/../../lib/gcc/pic32mx/4.8.3/../../../../pic32mx/lib\libpic32.a(xc32_uart.o)
 .gnu.attributes
                0x00000600       0x10 c:/program files (x86)/microchip/xc32/v1.40/bin/bin/../../lib/gcc/pic32mx/4.8.3/../../../../pic32mx/lib\libe.a(_floatdisf.o)
 .gnu.attributes
                0x00000610       0x10 c:/program files (x86)/microchip/xc32/v1.40/bin/bin/../../lib/gcc/pic32mx/4.8.3\libgcc.a(_umoddi3.o)
 .gnu.attributes
                0x00000620       0x10 c:/program files (x86)/microchip/xc32/v1.40/bin/bin/../../lib/gcc/pic32mx/4.8.3\libgcc.a(floatunsisf.o)
LOAD c:/program files (x86)/microchip/xc32/v1.40/bin/bin/../../lib/gcc/pic32mx/4.8.3\libgcc.a
START GROUP
LOAD c:/program files (x86)/microchip/xc32/v1.40/bin/bin/../../lib/gcc/pic32mx/4.8.3/../../../../pic32mx/lib\libpic32.a
LOAD c:/program files (x86)/microchip/xc32/v1.40/bin/bin/../../lib/gcc/pic32mx/4.8.3/../../../../pic32mx/lib\libdebug.a
LOAD c:/program files (x86)/microchip/xc32/v1.40/bin/bin/../../lib/gcc/pic32mx/4.8.3/../../../../pic32mx/lib\libpic32.a
LOAD c:/program files (x86)/microchip/xc32/v1.40/bin/bin/../../lib/gcc/pic32mx/4.8.3/../../../../pic32mx/lib\libm.a
LOAD c:/program files (x86)/microchip/xc32/v1.40/bin/bin/../../lib/gcc/pic32mx/4.8.3/../../../../pic32mx/lib\libe.a
LOAD c:/program files (x86)/microchip/xc32/v1.40/bin/bin/../../lib/gcc/pic32mx/4.8.3/../../../../pic32mx/lib\libdsp.a
LOAD c:/program files (x86)/microchip/xc32/v1.40/bin/bin/../../lib/gcc/pic32mx/4.8.3\libgcc.a
LOAD c:/program files (x86)/microchip/xc32/v1.40/bin/bin/../../lib/gcc/pic32mx/4.8.3/../../../../pic32mx/lib\libc.a
LOAD c:/program files (x86)/microchip/xc32/v1.40/bin/bin/../../lib/gcc/pic32mx/4.8.3/../../../../pic32mx/lib\libpic32.a
END GROUP
LOAD c:/program files (x86)/microchip/xc32/v1.40/bin/bin/../../lib/gcc/pic32mx/4.8.3\libgcc.a
OUTPUT(dist/pic32mx/debug/moj_proj.X.debug.elf elf32-tradlittlemips)
LOAD stack
LOAD data_init

.reginfo        0x00000000       0x18
 .reginfo       0x00000000       0x18 c:/program files (x86)/microchip/xc32/v1.40/bin/bin/../../lib/gcc/pic32mx/4.8.3/../../../../pic32mx/lib/./proc/32MX795F512L/crt0_mips32r2.o

.stack          0xa00100a0      0x400
 .stack         0xa00100a0      0x400 stack

.bss.gDrvNVMEraseBuffer
                0xa0002b60     0x1000
 .bss.gDrvNVMEraseBuffer
                0xa0002b60     0x1000 build/pic32mx/debug/_ext/571308596/drv_nvm.o
                0xa0002b60                gDrvNVMEraseBuffer

.bss            0xa0003b60      0x9e0
 .bss           0xa0003b60      0x418 build/pic32mx/debug/_ext/1360937237/app.o
                0xa0003b60                appData
 .bss           0xa0003f78      0x3a8 build/pic32mx/debug/_ext/425903153/sys_command.o
 .bss           0xa0004320      0x220 build/pic32mx/debug/_ext/850537704/mpfs.o

.bss.gCurMedia  0xa0004540      0x210
 .bss.gCurMedia
                0xa0004540      0x210 build/pic32mx/debug/_ext/2104899551/sys_fs_media_manager.o
                0xa0004540                gCurMedia

.bss.gSYSFSPagebuffer
                0xa0004750      0x200
 .bss.gSYSFSPagebuffer
                0xa0004750      0x200 build/pic32mx/debug/_ext/2104899551/sys_fs_media_manager.o
                0xa0004750                gSYSFSPagebuffer

.bss            0xa0004950      0x168
 .bss           0xa0004950      0x168 build/pic32mx/debug/_ext/1408260596/tcpip_manager.o

.bss            0xa00004a0      0x114
 .bss           0xa00004a0      0x114 build/pic32mx/debug/_ext/1360937237/custom_http_app.o

.data           0xa0004ab8      0x104
 .data          0xa0004ab8      0x104 build/pic32mx/debug/_ext/1908841681/drv_ethmac.o

.bss            0xa0004bbc       0xf0
 .bss           0xa0004bbc       0xf0 build/pic32mx/debug/_ext/610166344/usb_device.o

.data           0xa0004cac       0xc0
 .data          0xa0004cac       0xc0 build/pic32mx/debug/_ext/30809027/sys_console_usb_cdc.o
                0xa0004cac                consUsbCdcDevDesc
                0xa0004cd0                wrQueue
                0xa0004ce4                rdQueue
                0xa0004cf8                consUsbData

.bss            0xa0004d6c      0x150
 .bss           0xa0004d6c       0x90 build/pic32mx/debug/_ext/1264926591/sys_tmr.o
 .bss           0xa0004dfc       0x6c build/pic32mx/debug/_ext/1408260596/dns.o
 .bss           0xa0004e68       0x54 build/pic32mx/debug/_ext/1408260596/arp.o

.data           0xa00005b4       0x4c
 .data          0xa00005b4       0x4c build/pic32mx/debug/_ext/435813987/system_exceptions.o

.data           0xa0004ebc       0x4c
 .data          0xa0004ebc       0x4c build/pic32mx/debug/_ext/764219029/drv_usbfs_device.o
                0xa0004ebc                gDrvUSBFSDeviceInterface

.bss            0xa0004f08       0xd4
 .bss           0xa0004f08       0x44 c:/program files (x86)/microchip/xc32/v1.40/bin/bin/../../lib/gcc/pic32mx/4.8.3/../../../../pic32mx/lib\libc.a(_iob.o)
                0xa0004f08                _outdone
                0xa0004f0c                _sibuf
                0xa0004f2c                _sobuf
 .bss           0xa0004f4c       0x3c build/pic32mx/debug/_ext/185269848/drv_tmr.o
 .bss           0xa0004f88       0x30 build/pic32mx/debug/_ext/1408260596/sntp.o
 .bss           0xa0004fb8       0x24 c:/program files (x86)/microchip/xc32/v1.40/bin/bin/../../lib/gcc/pic32mx/4.8.3/../../../../pic32mx/lib\libpic32.a(sbrk.o)
                0xa0004fb8                _minbrk
                0xa0004fbc                _maxbrk

.data           0xa0004fdc       0x20
 .data          0xa0004fdc       0x20 build/pic32mx/debug/_ext/1408260596/tcpip_packet.o

.bss            0xa0004ffc       0x40
 .bss           0xa0004ffc       0x20 build/pic32mx/debug/_ext/1408260596/ipv4.o
 .bss           0xa000501c       0x20 c:/program files (x86)/microchip/xc32/v1.40/bin/bin/../../lib/gcc/pic32mx/4.8.3/../../../../pic32mx/lib\libc.a(malloc.o)
                0xa000501c                __allocs
                0xa000502c                __allocp
                0xa0005030                __alloct
                0xa0005034                __allocx

.data           0xa000503c       0x18
 .data          0xa000503c       0x18 build/pic32mx/debug/_ext/435813987/system_init.o
                0xa000503c                NVMGeometryTable

.bss            0xa0005054       0x30
 .bss           0xa0005054       0x18 build/pic32mx/debug/_ext/30809027/sys_console.o
 .bss           0xa000506c       0x18 build/pic32mx/debug/_ext/1283840359/sys_random.o

.data           0xa0005084       0x10
 .data          0xa0005084       0x10 build/pic32mx/debug/_ext/1360937237/app.o
                0xa0005084                pcip

.bss            0xa0005094       0x20
 .bss           0xa0005094       0x10 build/pic32mx/debug/_ext/1408260596/dhcp.o
 .bss           0xa00050a4       0x10 build/pic32mx/debug/_ext/1408260596/icmp.o

.bss            0xa00050b8       0x1c
 .bss           0xa00050b8       0x10 c:/program files (x86)/microchip/xc32/v1.40/bin/bin/../../lib/gcc/pic32mx/4.8.3/../../../../pic32mx/lib\libc.a(rand.o)
 .bss           0xa00050c8        0xc build/pic32mx/debug/_ext/1408260596/udp.o

.data           0xa00050d4        0xc
 .data          0xa00050d4        0xc build/pic32mx/debug/_ext/1408260596/tcpip_manager.o

.bss.errno      0xa00050b4        0x4
 .bss.errno     0xa00050b4        0x4 c:/program files (x86)/microchip/xc32/v1.40/bin/bin/../../lib/gcc/pic32mx/4.8.3/../../../../pic32mx/lib\libc.a(errno.o)
                0xa00050b4                errno

_0430b6c058139ba9
                0x9d070000    0x10000
 _0430b6c058139ba9
                0x9d070000    0x10000 build/pic32mx/debug/_ext/1360937237/mpfs_img2.o
                0x9d070000                NVM_MEDIA_DATA

.text.vfprintf  0x9d000000     0x1c08
 .text.vfprintf
                0x9d000000     0x1c08 c:/program files (x86)/microchip/xc32/v1.40/bin/bin/../../lib/gcc/pic32mx/4.8.3/../../../../pic32mx/lib\libc.a(doprnt.o)
                0x9d000000                vfprintf

.text.TCPIP_HTTP_Process
                0x9d001c08     0x19e4
 .text.TCPIP_HTTP_Process
                0x9d001c08     0x19e4 build/pic32mx/debug/_ext/1408260596/http.o

.text.TCPIP_TCP_ProcessIPv4
                0x9d0035ec      0xed4
 .text.TCPIP_TCP_ProcessIPv4
                0x9d0035ec      0xed4 build/pic32mx/debug/_ext/1408260596/tcp.o
                0x9d0035ec                TCPIP_TCP_ProcessIPv4

.text._vfprintf_cdnopsuxX
                0x9d0044c0      0xad0
 .text._vfprintf_cdnopsuxX
                0x9d0044c0      0xad0 c:/program files (x86)/microchip/xc32/v1.40/bin/bin/../../lib/gcc/pic32mx/4.8.3/../../../../pic32mx/lib\libc.a(doprnt_cdnopsuxX.eo)
                0x9d0044c0                _vfprintf_cdnopsuxX
                0x9d0044c0                _vfprintf_cdnopuxX

.rodata         0x9d004f90      0x920
 .rodata        0x9d004f90      0x920 build/pic32mx/debug/_ext/1408260596/http.o

.text.TCPIP_STACK_Task
                0x9d0058b0      0x8ac
 .text.TCPIP_STACK_Task
                0x9d0058b0      0x8ac build/pic32mx/debug/_ext/1408260596/tcpip_manager.o
                0x9d0058b0                TCPIP_STACK_Task

.text.TCPIP_DHCP_Task
                0x9d00615c      0x844
 .text.TCPIP_DHCP_Task
                0x9d00615c      0x844 build/pic32mx/debug/_ext/1408260596/dhcp.o
                0x9d00615c                TCPIP_DHCP_Task

.text._DRV_USBFS_DEVICE_Tasks_ISR
                0x9d0069a0      0x6e8
 .text._DRV_USBFS_DEVICE_Tasks_ISR
                0x9d0069a0      0x6e8 build/pic32mx/debug/_ext/764219029/drv_usbfs_device.o
                0x9d0069a0                _DRV_USBFS_DEVICE_Tasks_ISR

.text._TcpSend  0x9d007088      0x6d0
 .text._TcpSend
                0x9d007088      0x6d0 build/pic32mx/debug/_ext/1408260596/tcp.o

.text.APP_Tasks
                0x9d007758      0x6b0
 .text.APP_Tasks
                0x9d007758      0x6b0 build/pic32mx/debug/_ext/1360937237/app.o
                0x9d007758                APP_Tasks

.text.TCPIP_HTTP_PostExecute
                0x9d007e08      0x6ac
 .text.TCPIP_HTTP_PostExecute
                0x9d007e08      0x6ac build/pic32mx/debug/_ext/1360937237/custom_http_app.o
                0x9d007e08                TCPIP_HTTP_PostExecute

.dinit          0x9d0084b4      0x6a0
 .dinit         0x9d0084b4      0x6a0 data_init

.text.SYS_FS_MEDIA_MANAGER_Tasks
                0x9d008b54      0x658
 .text.SYS_FS_MEDIA_MANAGER_Tasks
                0x9d008b54      0x658 build/pic32mx/debug/_ext/2104899551/sys_fs_media_manager.o
                0x9d008b54                SYS_FS_MEDIA_MANAGER_Tasks

.text.TCPIP_ZCLL_Task
                0x9d0091ac      0x5ec
 .text.TCPIP_ZCLL_Task
                0x9d0091ac      0x5ec build/pic32mx/debug/_ext/1408260596/zero_conf_link_local.o
                0x9d0091ac                TCPIP_ZCLL_Task

.text.SYS_CMD_Tasks
                0x9d009798      0x4f0
 .text.SYS_CMD_Tasks
                0x9d009798      0x4f0 build/pic32mx/debug/_ext/425903153/sys_command.o
                0x9d009798                SYS_CMD_Tasks

.text.Console_USB_Tasks
                0x9d009c88      0x4d0
 .text.Console_USB_Tasks
                0x9d009c88      0x4d0 build/pic32mx/debug/_ext/30809027/sys_console_usb_cdc.o
                0x9d009c88                Console_USB_Tasks

.text.TCPIP_SNTP_Task
                0x9d00a158      0x4b0
 .text.TCPIP_SNTP_Task
                0x9d00a158      0x4b0 build/pic32mx/debug/_ext/1408260596/sntp.o
                0x9d00a158                TCPIP_SNTP_Task

.text.TCPIP_TCP_FifoSizeAdjust
                0x9d00a608      0x4ac
 .text.TCPIP_TCP_FifoSizeAdjust
                0x9d00a608      0x4ac build/pic32mx/debug/_ext/1408260596/tcp.o
                0x9d00a608                TCPIP_TCP_FifoSizeAdjust

.text.TCPIP_TCP_Tick
                0x9d00aab4      0x494
 .text.TCPIP_TCP_Tick
                0x9d00aab4      0x494 build/pic32mx/debug/_ext/1408260596/tcp.o
                0x9d00aab4                TCPIP_TCP_Tick

.text.DRV_ETHMAC_PIC32MACInitialize
                0x9d00af48      0x480
 .text.DRV_ETHMAC_PIC32MACInitialize
                0x9d00af48      0x480 build/pic32mx/debug/_ext/1908841681/drv_ethmac.o
                0x9d00af48                DRV_ETHMAC_PIC32MACInitialize

.text           0x9d00b3c8      0x8bc
 .text          0x9d00b3c8      0x464 c:/program files (x86)/microchip/xc32/v1.40/bin/bin/../../lib/gcc/pic32mx/4.8.3\libgcc.a(_umoddi3.o)
                0x9d00b3c8                __umoddi3
 .text          0x9d00b82c      0x458 c:/program files (x86)/microchip/xc32/v1.40/bin/bin/../../lib/gcc/pic32mx/4.8.3\libgcc.a(_udivdi3.o)
                0x9d00b82c                __udivdi3

.text.TCPIP_Helper_StringToIPv6Address
                0x9d00bc84      0x3f0
 .text.TCPIP_Helper_StringToIPv6Address
                0x9d00bc84      0x3f0 build/pic32mx/debug/_ext/1408260596/tcpip_helpers.o
                0x9d00bc84                TCPIP_Helper_StringToIPv6Address

.text.DRV_NVM_Tasks
                0x9d00c074      0x3d0
 .text.DRV_NVM_Tasks
                0x9d00c074      0x3d0 build/pic32mx/debug/_ext/571308596/drv_nvm.o
                0x9d00c074                DRV_NVM_Tasks

.text.TCPIP_DNS_Send_Query
                0x9d00c444      0x3cc
 .text.TCPIP_DNS_Send_Query
                0x9d00c444      0x3cc build/pic32mx/debug/_ext/1408260596/dns.o
                0x9d00c444                TCPIP_DNS_Send_Query

.rodata         0x9d00c810      0x3a0
 .rodata        0x9d00c810      0x3a0 build/pic32mx/debug/_ext/435813987/system_init.o
                0x9d00c810                cdcInit0
                0x9d00c81c                funcRegistrationTable
                0x9d00c830                deviceDescriptor
                0x9d00c844                fullSpeedConfigurationDescriptor
                0x9d00c888                fullSpeedConfigDescSet
                0x9d00c88c                sd000
                0x9d00c890                sd001
                0x9d00c8c4                sd002
                0x9d00c8f4                stringDescriptors
                0x9d00c900                usbMasterDescriptor
                0x9d00c92c                usbDevInitData
                0x9d00c960                drvTmr0InitData
                0x9d00c97c                NVMGeometry
                0x9d00c990                drvNvmInit
                0x9d00c9a4                sysTmrInitData
                0x9d00c9ac                drvUSBInit
                0x9d00c9d0                tcpipARPInitData
                0x9d00c9f8                tcpipUDPInitData
                0x9d00c9f8                tcpipAnnounceInitData
                0x9d00ca00                tcpipTCPInitData
                0x9d00ca08                tcpipHTTPInitData
                0x9d00ca34                tcpipSNTPInitData
                0x9d00ca50                tcpipDHCPInitData
                0x9d00ca60                tcpipMACPIC32INTInitData
                0x9d00ca60                tcpipNBNSInitData
                0x9d00ca80                tcpipDNSClientInitData
                0x9d00ca80                tcpipZCLLInitData
                0x9d00caf8                TCPIP_HOSTS_CONFIGURATION
                0x9d00cb2c                TCPIP_STACK_MODULE_CONFIG_TBL
                0x9d00cb94                sysDevconInit
                0x9d00cb98                sysfsMountTable
                0x9d00cba8                sysFSInit

.text.TCPIP_TCP_ArrayFind
                0x9d00cbb0      0x3a0
 .text.TCPIP_TCP_ArrayFind
                0x9d00cbb0      0x3a0 build/pic32mx/debug/_ext/1408260596/tcp.o
                0x9d00cbb0                TCPIP_TCP_ArrayFind

.text._TCP_Open
                0x9d00cf50      0x380
 .text._TCP_Open
                0x9d00cf50      0x380 build/pic32mx/debug/_ext/1408260596/tcp.o

.text._DNS_GetResultProcessing
                0x9d00d2d0      0x33c
 .text._DNS_GetResultProcessing
                0x9d00d2d0      0x33c build/pic32mx/debug/_ext/1408260596/dns.o

.text.TCPIP_ARP_Initialize
                0x9d00d60c      0x334
 .text.TCPIP_ARP_Initialize
                0x9d00d60c      0x334 build/pic32mx/debug/_ext/1408260596/arp.o
                0x9d00d60c                TCPIP_ARP_Initialize

.text.TCPIP_NBNS_Task
                0x9d00d940      0x32c
 .text.TCPIP_NBNS_Task
                0x9d00d940      0x32c build/pic32mx/debug/_ext/1408260596/nbns.o
                0x9d00d940                TCPIP_NBNS_Task

.text.TCPIP_STACK_BringNetUp
                0x9d00dc6c      0x328
 .text.TCPIP_STACK_BringNetUp
                0x9d00dc6c      0x328 build/pic32mx/debug/_ext/1408260596/tcpip_manager.o

.text.TCPIP_DNS_ClientInitialize
                0x9d00df94      0x308
 .text.TCPIP_DNS_ClientInitialize
                0x9d00df94      0x308 build/pic32mx/debug/_ext/1408260596/dns.o
                0x9d00df94                TCPIP_DNS_ClientInitialize

.text.ParseCmdBuffer
                0x9d00e29c      0x2fc
 .text.ParseCmdBuffer
                0x9d00e29c      0x2fc build/pic32mx/debug/_ext/425903153/sys_command.o

.text.SYS_TMR_Tasks
                0x9d00e598      0x2f4
 .text.SYS_TMR_Tasks
                0x9d00e598      0x2f4 build/pic32mx/debug/_ext/1264926591/sys_tmr.o
                0x9d00e598                SYS_TMR_Tasks

.text._DHCPSend
                0x9d00e88c      0x2ec
 .text._DHCPSend
                0x9d00e88c      0x2ec build/pic32mx/debug/_ext/1408260596/dhcp.o

.text.TCPIP_IPV4_PacketTransmit
                0x9d00eb78      0x2e0
 .text.TCPIP_IPV4_PacketTransmit
                0x9d00eb78      0x2e0 build/pic32mx/debug/_ext/1408260596/ipv4.o
                0x9d00eb78                TCPIP_IPV4_PacketTransmit

.text.CommandHelp
                0x9d00ee58      0x2dc
 .text.CommandHelp
                0x9d00ee58      0x2dc build/pic32mx/debug/_ext/425903153/sys_command.o

.text.TCPIP_ARP_Task
                0x9d00f134      0x2cc
 .text.TCPIP_ARP_Task
                0x9d00f134      0x2cc build/pic32mx/debug/_ext/1408260596/arp.o
                0x9d00f134                TCPIP_ARP_Task

.text.TCPIP_ANNOUNCE_Send
                0x9d00f400      0x2bc
 .text.TCPIP_ANNOUNCE_Send
                0x9d00f400      0x2bc build/pic32mx/debug/_ext/1408260596/tcpip_announce.o
                0x9d00f400                TCPIP_ANNOUNCE_Send

.text.MPFS_Open
                0x9d00f6bc      0x29c
 .text.MPFS_Open
                0x9d00f6bc      0x29c build/pic32mx/debug/_ext/850537704/mpfs.o
                0x9d00f6bc                MPFS_Open

.text.malloc    0x9d00f958      0x288
 .text.malloc   0x9d00f958      0x288 c:/program files (x86)/microchip/xc32/v1.40/bin/bin/../../lib/gcc/pic32mx/4.8.3/../../../../pic32mx/lib\libc.a(malloc.o)
                0x9d00f958                malloc

.text.TCPIP_IPV4_Process
                0x9d00fbe0      0x280
 .text.TCPIP_IPV4_Process
                0x9d00fbe0      0x280 build/pic32mx/debug/_ext/1408260596/ipv4.o
                0x9d00fbe0                TCPIP_IPV4_Process

.text.TCPIP_UDP_ProcessIPv4
                0x9d00fe60      0x27c
 .text.TCPIP_UDP_ProcessIPv4
                0x9d00fe60      0x27c build/pic32mx/debug/_ext/1408260596/udp.o
                0x9d00fe60                TCPIP_UDP_ProcessIPv4

.text.TCPIP_STACK_Initialize
                0x9d0100dc      0x278
 .text.TCPIP_STACK_Initialize
                0x9d0100dc      0x278 build/pic32mx/debug/_ext/1408260596/tcpip_manager.o
                0x9d0100dc                TCPIP_STACK_Initialize

.text.fpsubadd  0x9d010354      0x278
 .text.fpsubadd
                0x9d010354      0x278 c:/program files (x86)/microchip/xc32/v1.40/bin/bin/../../lib/gcc/pic32mx/4.8.3/../../../../pic32mx/lib\libm.a(fp32subadd.o)
                0x9d010354                __subsf3
                0x9d010354                fpsub
                0x9d01035c                __addsf3
                0x9d01035c                fpadd

.text.TCPIP_TCP_ArrayPutRaw
                0x9d0105cc      0x274
 .text.TCPIP_TCP_ArrayPutRaw
                0x9d0105cc      0x274 build/pic32mx/debug/_ext/1408260596/tcp.o
                0x9d0105cc                TCPIP_TCP_ArrayPutRaw

.text.TCPIP_UDP_Flush
                0x9d010840      0x270
 .text.TCPIP_UDP_Flush
                0x9d010840      0x270 build/pic32mx/debug/_ext/1408260596/udp.o
                0x9d010840                TCPIP_UDP_Flush

.text.TCPIP_DNS_IsResolved
                0x9d010ab0      0x268
 .text.TCPIP_DNS_IsResolved
                0x9d010ab0      0x268 build/pic32mx/debug/_ext/1408260596/dns.o
                0x9d010ab0                TCPIP_DNS_IsResolved

.text._USB_DEVICE_ProcessStandardDeviceGetRequests
                0x9d010d18      0x268
 .text._USB_DEVICE_ProcessStandardDeviceGetRequests
                0x9d010d18      0x268 build/pic32mx/debug/_ext/610166344/usb_device.o
                0x9d010d18                _USB_DEVICE_ProcessStandardDeviceGetRequests

.rodata         0x9d010f80      0x264
 .rodata        0x9d010f80      0x264 build/pic32mx/debug/_ext/425903153/sys_command.o
                0x9d010f90                sysConsoleApi

.text.DRV_NVM_EraseWrite
                0x9d0111e4      0x25c
 .text.DRV_NVM_EraseWrite
                0x9d0111e4      0x25c build/pic32mx/debug/_ext/571308596/drv_nvm_erasewrite.o
                0x9d0111e4                DRV_NVM_EraseWrite

.text.TCPIP_ARP_Process
                0x9d011440      0x25c
 .text.TCPIP_ARP_Process
                0x9d011440      0x25c build/pic32mx/debug/_ext/1408260596/arp.o
                0x9d011440                TCPIP_ARP_Process

.text.TCPIP_ICMP_Process
                0x9d01169c      0x25c
 .text.TCPIP_ICMP_Process
                0x9d01169c      0x25c build/pic32mx/debug/_ext/1408260596/icmp.o
                0x9d01169c                TCPIP_ICMP_Process

.text           0x9d0118f8      0x25c
 .text          0x9d0118f8      0x25c build/pic32mx/debug/_ext/1408260596/tcpip_helper_c32.o
                0x9d0118f8                TCPIP_Helper_htonl
                0x9d011904                TCPIP_Helper_htons
                0x9d011910                TCPIP_Helper_htonll
                0x9d011924                TCPIP_Helper_CalcIPChecksum

.text.SYS_FS_FileOpen
                0x9d011b54      0x258
 .text.SYS_FS_FileOpen
                0x9d011b54      0x258 build/pic32mx/debug/_ext/2104899551/sys_fs.o
                0x9d011b54                SYS_FS_FileOpen

.text._DHCPReceive
                0x9d011dac      0x254
 .text._DHCPReceive
                0x9d011dac      0x254 build/pic32mx/debug/_ext/1408260596/dhcp.o

.text.DRV_ETHMAC_PIC32MACPacketRx
                0x9d012000      0x244
 .text.DRV_ETHMAC_PIC32MACPacketRx
                0x9d012000      0x244 build/pic32mx/debug/_ext/1908841681/drv_ethmac.o
                0x9d012000                DRV_ETHMAC_PIC32MACPacketRx

.text.DRV_ETHMAC_LibRxBuffersAppend
                0x9d012244      0x240
 .text.DRV_ETHMAC_LibRxBuffersAppend
                0x9d012244      0x240 build/pic32mx/debug/_ext/1908841681/drv_ethmac_lib.o
                0x9d012244                DRV_ETHMAC_LibRxBuffersAppend

.text.MPFS_Stat
                0x9d012484      0x23c
 .text.MPFS_Stat
                0x9d012484      0x23c build/pic32mx/debug/_ext/850537704/mpfs.o
                0x9d012484                MPFS_Stat

.text.TCPIP_HTTP_Initialize
                0x9d0126c0      0x234
 .text.TCPIP_HTTP_Initialize
                0x9d0126c0      0x234 build/pic32mx/debug/_ext/1408260596/http.o
                0x9d0126c0                TCPIP_HTTP_Initialize

.text._TCPIP_HEAP_Free
                0x9d0128f4      0x230
 .text._TCPIP_HEAP_Free
                0x9d0128f4      0x230 build/pic32mx/debug/_ext/1408260596/tcpip_heap_alloc.o
                0x9d0128f4                _TCPIP_HEAP_Free

.text.fp32div   0x9d012b24      0x230
 .text.fp32div  0x9d012b24      0x230 c:/program files (x86)/microchip/xc32/v1.40/bin/bin/../../lib/gcc/pic32mx/4.8.3/../../../../pic32mx/lib\libm.a(fp32div.o)
                0x9d012b24                fpdiv
                0x9d012b24                __divsf3

.text._DNS_RESPONSE_HashEntryUpdate
                0x9d012d54      0x224
 .text._DNS_RESPONSE_HashEntryUpdate
                0x9d012d54      0x224 build/pic32mx/debug/_ext/1408260596/dns.o

.text._DRV_NVM_BlockOperation
                0x9d012f78      0x220
 .text._DRV_NVM_BlockOperation
                0x9d012f78      0x220 build/pic32mx/debug/_ext/571308596/drv_nvm.o
                0x9d012f78                _DRV_NVM_BlockOperation

.text._UDPOpen  0x9d013198      0x220
 .text._UDPOpen
                0x9d013198      0x220 build/pic32mx/debug/_ext/1408260596/udp.o

.text.DRV_TMR_Initialize
                0x9d0133b8      0x21c
 .text.DRV_TMR_Initialize
                0x9d0133b8      0x21c build/pic32mx/debug/_ext/185269848/drv_tmr.o
                0x9d0133b8                DRV_TMR_Initialize

.text.DRV_USBFS_DEVICE_IRPSubmit
                0x9d0135d4      0x21c
 .text.DRV_USBFS_DEVICE_IRPSubmit
                0x9d0135d4      0x21c build/pic32mx/debug/_ext/764219029/drv_usbfs_device.o
                0x9d0135d4                DRV_USBFS_DEVICE_IRPSubmit

.text.scale     0x9d0137f0      0x21c
 .text.scale    0x9d0137f0      0x21c c:/program files (x86)/microchip/xc32/v1.40/bin/bin/../../lib/gcc/pic32mx/4.8.3/../../../../pic32mx/lib\libc.a(doprnt.o)

.text._USB_DEVICE_ProcessStandardDeviceSetRequests
                0x9d013a0c      0x214
 .text._USB_DEVICE_ProcessStandardDeviceSetRequests
                0x9d013a0c      0x214 build/pic32mx/debug/_ext/610166344/usb_device.o
                0x9d013a0c                _USB_DEVICE_ProcessStandardDeviceSetRequests

.text.__floatdisf
                0x9d013c20      0x214
 .text.__floatdisf
                0x9d013c20      0x214 c:/program files (x86)/microchip/xc32/v1.40/bin/bin/../../lib/gcc/pic32mx/4.8.3/../../../../pic32mx/lib\libe.a(_floatdisf.o)
                0x9d013c20                __floatdisf

.text.MD5Calculate
                0x9d013e34      0x20c
 .text.MD5Calculate
                0x9d013e34      0x20c build/pic32mx/debug/_ext/1136935090/hashes.o
                0x9d013e34                MD5Calculate

.text._DRV_PHY_SMITransferDo
                0x9d014040      0x1f8
 .text._DRV_PHY_SMITransferDo
                0x9d014040      0x1f8 build/pic32mx/debug/_ext/732687875/drv_ethphy.o

.text._USB_DEVICE_EventHandler
                0x9d014238      0x1f8
 .text._USB_DEVICE_EventHandler
                0x9d014238      0x1f8 build/pic32mx/debug/_ext/610166344/usb_device.o
                0x9d014238                _USB_DEVICE_EventHandler

.text._DRV_ETHPHY_SetupPhaseDetect
                0x9d014430      0x1f4
 .text._DRV_ETHPHY_SetupPhaseDetect
                0x9d014430      0x1f4 build/pic32mx/debug/_ext/732687875/drv_ethphy.o

.text._LoadDefaultConfig
                0x9d014624      0x1e8
 .text._LoadDefaultConfig
                0x9d014624      0x1e8 build/pic32mx/debug/_ext/1408260596/tcpip_manager.o

.text.TCPIP_UDP_Bind
                0x9d01480c      0x1e0
 .text.TCPIP_UDP_Bind
                0x9d01480c      0x1e0 build/pic32mx/debug/_ext/1408260596/udp.o
                0x9d01480c                TCPIP_UDP_Bind

.text.SYS_FS_MEDIA_MANAGER_VolumePropertyGet
                0x9d0149ec      0x1dc
 .text.SYS_FS_MEDIA_MANAGER_VolumePropertyGet
                0x9d0149ec      0x1dc build/pic32mx/debug/_ext/2104899551/sys_fs_media_manager.o
                0x9d0149ec                SYS_FS_MEDIA_MANAGER_VolumePropertyGet

.text.DRV_USBFS_Initialize
                0x9d014bc8      0x1d8
 .text.DRV_USBFS_Initialize
                0x9d014bc8      0x1d8 build/pic32mx/debug/_ext/764219029/drv_usbfs.o
                0x9d014bc8                DRV_USBFS_Initialize

.text._USB_DEVICE_ControlTransferHandler
                0x9d014da0      0x1d8
 .text._USB_DEVICE_ControlTransferHandler
                0x9d014da0      0x1d8 build/pic32mx/debug/_ext/610166344/usb_device.o
                0x9d014da0                _USB_DEVICE_ControlTransferHandler

.text.DRV_ETHMAC_PIC32MACPacketTx
                0x9d014f78      0x1d4
 .text.DRV_ETHMAC_PIC32MACPacketTx
                0x9d014f78      0x1d4 build/pic32mx/debug/_ext/1908841681/drv_ethmac.o
                0x9d014f78                DRV_ETHMAC_PIC32MACPacketTx

.text.strtoul   0x9d01514c      0x1d4
 .text.strtoul  0x9d01514c      0x1d4 c:/program files (x86)/microchip/xc32/v1.40/bin/bin/../../lib/gcc/pic32mx/4.8.3/../../../../pic32mx/lib\libc.a(strtol.o)
                0x9d01514c                strtoul

.rodata         0x9d015320      0x1d0
 .rodata        0x9d015320      0x1d0 build/pic32mx/debug/_ext/1360937237/custom_http_app.o
                0x9d015424                HTML_UP_ARROW
                0x9d015428                HTML_DOWN_ARROW

.text.TCPIP_Helper_StringToIPAddress
                0x9d0154f0      0x1cc
 .text.TCPIP_Helper_StringToIPAddress
                0x9d0154f0      0x1cc build/pic32mx/debug/_ext/1408260596/tcpip_helpers.o
                0x9d0154f0                TCPIP_Helper_StringToIPAddress

.text.TCPIP_ARP_EntryRemoveNet
                0x9d0156bc      0x1c8
 .text.TCPIP_ARP_EntryRemoveNet
                0x9d0156bc      0x1c8 build/pic32mx/debug/_ext/1408260596/arp.o
                0x9d0156bc                TCPIP_ARP_EntryRemoveNet

.text.USB_DEVICE_CDC_Write
                0x9d015884      0x1c8
 .text.USB_DEVICE_CDC_Write
                0x9d015884      0x1c8 build/pic32mx/debug/_ext/610166344/usb_device_cdc.o
                0x9d015884                USB_DEVICE_CDC_Write

.text._EthAckPacket
                0x9d015a4c      0x1bc
 .text._EthAckPacket
                0x9d015a4c      0x1bc build/pic32mx/debug/_ext/1908841681/drv_ethmac_lib.o

.text.SYS_FS_MEDIA_MANAGER_SectorWrite
                0x9d015c08      0x1bc
 .text.SYS_FS_MEDIA_MANAGER_SectorWrite
                0x9d015c08      0x1bc build/pic32mx/debug/_ext/2104899551/sys_fs_media_manager.o
                0x9d015c08                SYS_FS_MEDIA_MANAGER_SectorWrite

.text.fp32mul   0x9d015dc4      0x1bc
 .text.fp32mul  0x9d015dc4      0x1bc c:/program files (x86)/microchip/xc32/v1.40/bin/bin/../../lib/gcc/pic32mx/4.8.3/../../../../pic32mx/lib\libm.a(fp32mul.o)
                0x9d015dc4                __mulsf3
                0x9d015dc4                fpmul

.text.DRV_NVM_Read
                0x9d015f80      0x1b8
 .text.DRV_NVM_Read
                0x9d015f80      0x1b8 build/pic32mx/debug/_ext/571308596/drv_nvm.o
                0x9d015f80                DRV_NVM_Read

.text.DRV_USBFS_DEVICE_EndpointEnable
                0x9d016138      0x1b8
 .text.DRV_USBFS_DEVICE_EndpointEnable
                0x9d016138      0x1b8 build/pic32mx/debug/_ext/764219029/drv_usbfs_device.o
                0x9d016138                DRV_USBFS_DEVICE_EndpointEnable

.text.SYS_Initialize
                0x9d0162f0      0x1b4
 .text.SYS_Initialize
                0x9d0162f0      0x1b4 build/pic32mx/debug/_ext/435813987/system_init.o
                0x9d0162f0                SYS_Initialize

.text.DRV_USBFS_DEVICE_EndpointStallClear
                0x9d0164a4      0x1b0
 .text.DRV_USBFS_DEVICE_EndpointStallClear
                0x9d0164a4      0x1b0 build/pic32mx/debug/_ext/764219029/drv_usbfs_device.o
                0x9d0164a4                DRV_USBFS_DEVICE_EndpointStallClear

.text.TCPIP_UDP_ArrayGetRaw
                0x9d016654      0x1b0
 .text.TCPIP_UDP_ArrayGetRaw
                0x9d016654      0x1b0 build/pic32mx/debug/_ext/1408260596/udp.o
                0x9d016654                TCPIP_UDP_ArrayGetRaw

.text.TCPIP_UDP_OptionsSet
                0x9d016804      0x1b0
 .text.TCPIP_UDP_OptionsSet
                0x9d016804      0x1b0 build/pic32mx/debug/_ext/1408260596/udp.o
                0x9d016804                TCPIP_UDP_OptionsSet

.text.DRV_USBFS_DEVICE_EndpointStall
                0x9d0169b4      0x1ac
 .text.DRV_USBFS_DEVICE_EndpointStall
                0x9d0169b4      0x1ac build/pic32mx/debug/_ext/764219029/drv_usbfs_device.o
                0x9d0169b4                DRV_USBFS_DEVICE_EndpointStall

.text.TCPIP_Helper_Base64Decode
                0x9d016b60      0x1ac
 .text.TCPIP_Helper_Base64Decode
                0x9d016b60      0x1ac build/pic32mx/debug/_ext/1408260596/tcpip_helpers.o
                0x9d016b60                TCPIP_Helper_Base64Decode

.text._DRV_ETHMAC_AddRxBuffers
                0x9d016d0c      0x1a8
 .text._DRV_ETHMAC_AddRxBuffers
                0x9d016d0c      0x1a8 build/pic32mx/debug/_ext/1908841681/drv_ethmac.o

.text.USB_DEVICE_CDC_Read
                0x9d016eb4      0x1a8
 .text.USB_DEVICE_CDC_Read
                0x9d016eb4      0x1a8 build/pic32mx/debug/_ext/610166344/usb_device_cdc.o
                0x9d016eb4                USB_DEVICE_CDC_Read

.text.DRV_TMR_CounterFrequencyGet
                0x9d01705c      0x1a4
 .text.DRV_TMR_CounterFrequencyGet
                0x9d01705c      0x1a4 build/pic32mx/debug/_ext/185269848/drv_tmr.o
                0x9d01705c                DRV_TMR_CounterFrequencyGet

.text.fround    0x9d017200      0x1a4
 .text.fround   0x9d017200      0x1a4 c:/program files (x86)/microchip/xc32/v1.40/bin/bin/../../lib/gcc/pic32mx/4.8.3/../../../../pic32mx/lib\libc.a(doprnt.o)

.text           0x9d0173a4      0x1a0
 .text          0x9d0173a4      0x1a0 c:/program files (x86)/microchip/xc32/v1.40/bin/bin/../../lib/gcc/pic32mx/4.8.3/../../../../pic32mx/lib\libpic32.a(strcpy.o)
                0x9d0173a4                strcpy

.text.DRV_ETHMAC_LibRxGetPacket
                0x9d017544      0x19c
 .text.DRV_ETHMAC_LibRxGetPacket
                0x9d017544      0x19c build/pic32mx/debug/_ext/1908841681/drv_ethmac_lib.o
                0x9d017544                DRV_ETHMAC_LibRxGetPacket

.text._DRV_TMR_ClockPrescaleSet
                0x9d0176e0      0x19c
 .text._DRV_TMR_ClockPrescaleSet
                0x9d0176e0      0x19c build/pic32mx/debug/_ext/185269848/drv_tmr.o

.text.TCPIP_UDP_Initialize
                0x9d01787c      0x19c
 .text.TCPIP_UDP_Initialize
                0x9d01787c      0x19c build/pic32mx/debug/_ext/1408260596/udp.o
                0x9d01787c                TCPIP_UDP_Initialize

.text.strtol    0x9d017a18      0x19c
 .text.strtol   0x9d017a18      0x19c c:/program files (x86)/microchip/xc32/v1.40/bin/bin/../../lib/gcc/pic32mx/4.8.3/../../../../pic32mx/lib\libc.a(strtol.o)
                0x9d017a18                strtol

.text.DRV_ETHMAC_LibMACOpen
                0x9d017bb4      0x198
 .text.DRV_ETHMAC_LibMACOpen
                0x9d017bb4      0x198 build/pic32mx/debug/_ext/1908841681/drv_ethmac_lib.o
                0x9d017bb4                DRV_ETHMAC_LibMACOpen

.text._SYS_FS_MEDIA_MANAGER_AnalyzeFileSystem
                0x9d017d4c      0x198
 .text._SYS_FS_MEDIA_MANAGER_AnalyzeFileSystem
                0x9d017d4c      0x198 build/pic32mx/debug/_ext/2104899551/sys_fs_media_manager.o
                0x9d017d4c                _SYS_FS_MEDIA_MANAGER_AnalyzeFileSystem

.text.TCPIP_UDP_Deinitialize
                0x9d017ee4      0x198
 .text.TCPIP_UDP_Deinitialize
                0x9d017ee4      0x198 build/pic32mx/debug/_ext/1408260596/udp.o
                0x9d017ee4                TCPIP_UDP_Deinitialize

.text._ARPProbeAddress
                0x9d01807c      0x198
 .text._ARPProbeAddress
                0x9d01807c      0x198 build/pic32mx/debug/_ext/1408260596/arp.o

.text.TCPIP_DNS_CacheTimeout
                0x9d018214      0x194
 .text.TCPIP_DNS_CacheTimeout
                0x9d018214      0x194 build/pic32mx/debug/_ext/1408260596/dns.o
                0x9d018214                TCPIP_DNS_CacheTimeout

.text._sbrk_init
                0x9d0183a8      0x194
 .text._sbrk_init
                0x9d0183a8      0x194 c:/program files (x86)/microchip/xc32/v1.40/bin/bin/../../lib/gcc/pic32mx/4.8.3/../../../../pic32mx/lib\libpic32.a(sbrk.o)
                0x9d0183a8                _sbrk_init

.text._HTTP_ReadTo
                0x9d01853c      0x190
 .text._HTTP_ReadTo
                0x9d01853c      0x190 build/pic32mx/debug/_ext/1408260596/http.o

.text.TCPIP_TCP_ArrayGetRaw
                0x9d0186cc      0x18c
 .text.TCPIP_TCP_ArrayGetRaw
                0x9d0186cc      0x18c build/pic32mx/debug/_ext/1408260596/tcp.o
                0x9d0186cc                TCPIP_TCP_ArrayGetRaw

.text.TCPIP_DNS_ClientTask
                0x9d018858      0x18c
 .text.TCPIP_DNS_ClientTask
                0x9d018858      0x18c build/pic32mx/debug/_ext/1408260596/dns.o
                0x9d018858                TCPIP_DNS_ClientTask

.text.DRV_ETHMAC_LibInit
                0x9d0189e4      0x188
 .text.DRV_ETHMAC_LibInit
                0x9d0189e4      0x188 build/pic32mx/debug/_ext/1908841681/drv_ethmac_lib.o
                0x9d0189e4                DRV_ETHMAC_LibInit

.text.DRV_ETHMAC_LibRxAcknowledgeBuffer
                0x9d018b6c      0x184
 .text.DRV_ETHMAC_LibRxAcknowledgeBuffer
                0x9d018b6c      0x184 build/pic32mx/debug/_ext/1908841681/drv_ethmac_lib.o
                0x9d018b6c                DRV_ETHMAC_LibRxAcknowledgeBuffer

.text._USB_DEVICE_Ep0ReceiveCompleteCallback
                0x9d018cf0      0x184
 .text._USB_DEVICE_Ep0ReceiveCompleteCallback
                0x9d018cf0      0x184 build/pic32mx/debug/_ext/610166344/usb_device.o
                0x9d018cf0                _USB_DEVICE_Ep0ReceiveCompleteCallback

.text._DRV_ETHPHY_NegResultPhase_ANAD
                0x9d018e74      0x180
 .text._DRV_ETHPHY_NegResultPhase_ANAD
                0x9d018e74      0x180 build/pic32mx/debug/_ext/732687875/drv_ethphy.o

.text.TCPIP_TCP_OptionsSet
                0x9d018ff4      0x180
 .text.TCPIP_TCP_OptionsSet
                0x9d018ff4      0x180 build/pic32mx/debug/_ext/1408260596/tcp.o
                0x9d018ff4                TCPIP_TCP_OptionsSet

.text.TCPIP_DHCP_Initialize
                0x9d019174      0x180
 .text.TCPIP_DHCP_Initialize
                0x9d019174      0x180 build/pic32mx/debug/_ext/1408260596/dhcp.o
                0x9d019174                TCPIP_DHCP_Initialize

.text._TCPIP_HEAP_Malloc
                0x9d0192f4      0x180
 .text._TCPIP_HEAP_Malloc
                0x9d0192f4      0x180 build/pic32mx/debug/_ext/1408260596/tcpip_heap_alloc.o
                0x9d0192f4                _TCPIP_HEAP_Malloc

.text.DRV_ETHMAC_PIC32MACEventMaskSet
                0x9d019474      0x17c
 .text.DRV_ETHMAC_PIC32MACEventMaskSet
                0x9d019474      0x17c build/pic32mx/debug/_ext/1908841681/drv_ethmac.o
                0x9d019474                DRV_ETHMAC_PIC32MACEventMaskSet

.text.MD5HashBlock
                0x9d0195f0      0x178
 .text.MD5HashBlock
                0x9d0195f0      0x178 build/pic32mx/debug/_ext/1136935090/hashes.o

.text._ZeroconfARPPktNotify
                0x9d019768      0x178
 .text._ZeroconfARPPktNotify
                0x9d019768      0x178 build/pic32mx/debug/_ext/1408260596/zero_conf_link_local.o

.text._USB_DEVICE_CDC_ACMSetUpPacketHandler
                0x9d0198e0      0x178
 .text._USB_DEVICE_CDC_ACMSetUpPacketHandler
                0x9d0198e0      0x178 build/pic32mx/debug/_ext/610166344/usb_device_cdc_acm.o
                0x9d0198e0                _USB_DEVICE_CDC_ACMSetUpPacketHandler

.text.SYS_FS_FileSeek
                0x9d019a58      0x170
 .text.SYS_FS_FileSeek
                0x9d019a58      0x170 build/pic32mx/debug/_ext/2104899551/sys_fs.o
                0x9d019a58                SYS_FS_FileSeek

.text._EthAppendBusyList
                0x9d019bc8      0x168
 .text._EthAppendBusyList
                0x9d019bc8      0x168 build/pic32mx/debug/_ext/1908841681/drv_ethmac_lib.o

.text.SYS_FS_Mount
                0x9d019d30      0x168
 .text.SYS_FS_Mount
                0x9d019d30      0x168 build/pic32mx/debug/_ext/2104899551/sys_fs.o
                0x9d019d30                SYS_FS_Mount

.text._UDPv4AllocateSktTxBuffer
                0x9d019e98      0x168
 .text._UDPv4AllocateSktTxBuffer
                0x9d019e98      0x168 build/pic32mx/debug/_ext/1408260596/udp.o

.text.USB_DEVICE_Tasks
                0x9d01a000      0x168
 .text.USB_DEVICE_Tasks
                0x9d01a000      0x168 build/pic32mx/debug/_ext/610166344/usb_device.o
                0x9d01a000                USB_DEVICE_Tasks

.text           0x9d01a168      0x2d0
 .text          0x9d01a168      0x168 c:/program files (x86)/microchip/xc32/v1.40/bin/bin/../../lib/gcc/pic32mx/4.8.3/../../../../pic32mx/lib\libpic32.a(memcpy.o)
                0x9d01a168                memcpy
 .text          0x9d01a2d0      0x168 c:/program files (x86)/microchip/xc32/v1.40/bin/bin/../../lib/gcc/pic32mx/4.8.3/../../../../pic32mx/lib\libpic32.a(strlen.o)
                0x9d01a2d0                strlen

.text.TCPIP_IPV4_SelectSourceInterface
                0x9d01a438      0x164
 .text.TCPIP_IPV4_SelectSourceInterface
                0x9d01a438      0x164 build/pic32mx/debug/_ext/1408260596/ipv4.o
                0x9d01a438                TCPIP_IPV4_SelectSourceInterface

.text._SYS_TMR_ClientCreate
                0x9d01a59c      0x160
 .text._SYS_TMR_ClientCreate
                0x9d01a59c      0x160 build/pic32mx/debug/_ext/1264926591/sys_tmr.o

.text._DRV_ETHPHY_SetupPhaseReset
                0x9d01a6fc      0x15c
 .text._DRV_ETHPHY_SetupPhaseReset
                0x9d01a6fc      0x15c build/pic32mx/debug/_ext/732687875/drv_ethphy.o

.text.DRV_EXTPHY_MDIXConfigure
                0x9d01a858      0x15c
 .text.DRV_EXTPHY_MDIXConfigure
                0x9d01a858      0x15c build/pic32mx/debug/_ext/732687875/drv_extphy_dp83848.o

.text._DHCPProcessReceiveData
                0x9d01a9b4      0x15c
 .text._DHCPProcessReceiveData
                0x9d01a9b4      0x15c build/pic32mx/debug/_ext/1408260596/dhcp.o

.text.DRV_ETHMAC_LibTxSendPacket
                0x9d01ab10      0x158
 .text.DRV_ETHMAC_LibTxSendPacket
                0x9d01ab10      0x158 build/pic32mx/debug/_ext/1908841681/drv_ethmac_lib.o
                0x9d01ab10                DRV_ETHMAC_LibTxSendPacket

.text.DRV_USBFS_DEVICE_EndpointDisable
                0x9d01ac68      0x158
 .text.DRV_USBFS_DEVICE_EndpointDisable
                0x9d01ac68      0x158 build/pic32mx/debug/_ext/764219029/drv_usbfs_device.o
                0x9d01ac68                DRV_USBFS_DEVICE_EndpointDisable

.text._ARPSendIfPkt
                0x9d01adc0      0x158
 .text._ARPSendIfPkt
                0x9d01adc0      0x158 build/pic32mx/debug/_ext/1408260596/arp.o

.text.USB_DEVICE_Initialize
                0x9d01af18      0x158
 .text.USB_DEVICE_Initialize
                0x9d01af18      0x158 build/pic32mx/debug/_ext/610166344/usb_device.o
                0x9d01af18                USB_DEVICE_Initialize

.text._USB_DEVICE_CDC_Initialization
                0x9d01b070      0x158
 .text._USB_DEVICE_CDC_Initialization
                0x9d01b070      0x158 build/pic32mx/debug/_ext/610166344/usb_device_cdc.o
                0x9d01b070                _USB_DEVICE_CDC_Initialization

.text.TCPIP_HTTP_GetExecute
                0x9d01b1c8      0x150
 .text.TCPIP_HTTP_GetExecute
                0x9d01b1c8      0x150 build/pic32mx/debug/_ext/1360937237/custom_http_app.o
                0x9d01b1c8                TCPIP_HTTP_GetExecute

.text._TcpDisconnect
                0x9d01b318      0x14c
 .text._TcpDisconnect
                0x9d01b318      0x14c build/pic32mx/debug/_ext/1408260596/tcp.o

.rodata         0x9d01b464      0x148
 .rodata        0x9d01b464      0x148 build/pic32mx/debug/_ext/1360937237/app.o

.text._MACDeinit
                0x9d01b5ac      0x148
 .text._MACDeinit
                0x9d01b5ac      0x148 build/pic32mx/debug/_ext/1908841681/drv_ethmac.o

.text.TCPIP_UDP_OptionsGet
                0x9d01b6f4      0x148
 .text.TCPIP_UDP_OptionsGet
                0x9d01b6f4      0x148 build/pic32mx/debug/_ext/1408260596/udp.o
                0x9d01b6f4                TCPIP_UDP_OptionsGet

.text.TCPIP_HTTP_URLDecode
                0x9d01b83c      0x148
 .text.TCPIP_HTTP_URLDecode
                0x9d01b83c      0x148 build/pic32mx/debug/_ext/1408260596/http.o
                0x9d01b83c                TCPIP_HTTP_URLDecode

.text.DRV_TMR_Alarm16BitRegister
                0x9d01b984      0x144
 .text.DRV_TMR_Alarm16BitRegister
                0x9d01b984      0x144 build/pic32mx/debug/_ext/185269848/drv_tmr.o
                0x9d01b984                DRV_TMR_Alarm16BitRegister

.text.TCPIP_UDP_OpenServerSkt
                0x9d01bac8      0x144
 .text.TCPIP_UDP_OpenServerSkt
                0x9d01bac8      0x144 build/pic32mx/debug/_ext/1408260596/udp.o
                0x9d01bac8                TCPIP_UDP_OpenServerSkt

.text.fputc     0x9d01bc0c      0x144
 .text.fputc    0x9d01bc0c      0x144 c:/program files (x86)/microchip/xc32/v1.40/bin/bin/../../lib/gcc/pic32mx/4.8.3/../../../../pic32mx/lib\libc.a(_fputc_simple.o)
                0x9d01bc0c                fputc

.text.DRV_EXTPHY_MIIConfigure
                0x9d01bd50      0x140
 .text.DRV_EXTPHY_MIIConfigure
                0x9d01bd50      0x140 build/pic32mx/debug/_ext/732687875/drv_extphy_dp83848.o

.text.DRV_NVM_Initialize
                0x9d01be90      0x140
 .text.DRV_NVM_Initialize
                0x9d01be90      0x140 build/pic32mx/debug/_ext/571308596/drv_nvm.o
                0x9d01be90                DRV_NVM_Initialize

.text.DisplayNodeMsg
                0x9d01bfd0      0x140
 .text.DisplayNodeMsg
                0x9d01bfd0      0x140 build/pic32mx/debug/_ext/425903153/sys_command.o

.text._SYS_FS_DiskNumberAppend
                0x9d01c110      0x140
 .text._SYS_FS_DiskNumberAppend
                0x9d01c110      0x140 build/pic32mx/debug/_ext/2104899551/sys_fs.o
                0x9d01c110                _SYS_FS_DiskNumberAppend

.rodata         0x9d01c250      0x140
 .rodata        0x9d01c250      0x140 build/pic32mx/debug/_ext/1136935090/hashes.o

.text._DRV_TMR_ClockSourceSet
                0x9d01c390      0x13c
 .text._DRV_TMR_ClockSourceSet
                0x9d01c390      0x13c build/pic32mx/debug/_ext/185269848/drv_tmr.o

.text.DRV_USBFS_DEVICE_IRPCancelAll
                0x9d01c4cc      0x13c
 .text.DRV_USBFS_DEVICE_IRPCancelAll
                0x9d01c4cc      0x13c build/pic32mx/debug/_ext/764219029/drv_usbfs_device.o
                0x9d01c4cc                DRV_USBFS_DEVICE_IRPCancelAll

.text.TCPIP_SNTP_Initialize
                0x9d01c608      0x138
 .text.TCPIP_SNTP_Initialize
                0x9d01c608      0x138 build/pic32mx/debug/_ext/1408260596/sntp.o
                0x9d01c608                TCPIP_SNTP_Initialize

.text._IntHandlerDrvTmrInstance0
                0x9d01c740      0x134
 .text._IntHandlerDrvTmrInstance0
                0x9d01c740      0x134 build/pic32mx/debug/_ext/435813987/system_interrupt.o
                0x9d01c740                _IntHandlerDrvTmrInstance0

.text._IntHandlerDrvNvm
                0x9d01c874      0x134
 .text._IntHandlerDrvNvm
                0x9d01c874      0x134 build/pic32mx/debug/_ext/435813987/system_interrupt.o
                0x9d01c874                _IntHandlerDrvNvm

.text._IntHandlerUSBInstance0
                0x9d01c9a8      0x134
 .text._IntHandlerUSBInstance0
                0x9d01c9a8      0x134 build/pic32mx/debug/_ext/435813987/system_interrupt.o
                0x9d01c9a8                _IntHandlerUSBInstance0

.text._DRV_ETHPHY_SetupPhaseIdle
                0x9d01cadc      0x134
 .text._DRV_ETHPHY_SetupPhaseIdle
                0x9d01cadc      0x134 build/pic32mx/debug/_ext/732687875/drv_ethphy.o

.text.TCPIP_Helper_StringToMACAddress
                0x9d01cc10      0x134
 .text.TCPIP_Helper_StringToMACAddress
                0x9d01cc10      0x134 build/pic32mx/debug/_ext/1408260596/tcpip_helpers.o
                0x9d01cc10                TCPIP_Helper_StringToMACAddress

.text._IntHandler_ETHMAC
                0x9d01cd44      0x130
 .text._IntHandler_ETHMAC
                0x9d01cd44      0x130 build/pic32mx/debug/_ext/435813987/system_interrupt.o
                0x9d01cd44                _IntHandler_ETHMAC

.text._DRV_NVM_UnlockSequence
                0x9d01ce74      0x130
 .text._DRV_NVM_UnlockSequence
                0x9d01ce74      0x130 build/pic32mx/debug/_ext/571308596/drv_nvm.o
                0x9d01ce74                _DRV_NVM_UnlockSequence

.text._TCPIP_PKT_FlightLog
                0x9d01cfa4      0x130
 .text._TCPIP_PKT_FlightLog
                0x9d01cfa4      0x130 build/pic32mx/debug/_ext/1408260596/tcpip_packet.o
                0x9d01cfa4                _TCPIP_PKT_FlightLog

.text.DRV_ETHMAC_LibDescriptorsPoolAdd
                0x9d01d0d4      0x12c
 .text.DRV_ETHMAC_LibDescriptorsPoolAdd
                0x9d01d0d4      0x12c build/pic32mx/debug/_ext/1908841681/drv_ethmac_lib.o
                0x9d01d0d4                DRV_ETHMAC_LibDescriptorsPoolAdd

.text.TCPIP_ANNOUNCE_Init
                0x9d01d200      0x12c
 .text.TCPIP_ANNOUNCE_Init
                0x9d01d200      0x12c build/pic32mx/debug/_ext/1408260596/tcpip_announce.o
                0x9d01d200                TCPIP_ANNOUNCE_Init

.text._flsbuf   0x9d01d32c      0x12c
 .text._flsbuf  0x9d01d32c      0x12c c:/program files (x86)/microchip/xc32/v1.40/bin/bin/../../lib/gcc/pic32mx/4.8.3/../../../../pic32mx/lib\libc.a(_flsbuf_simple.o)
                0x9d01d32c                _flsbuf

.text.DRV_ETHMAC_PIC32MACRxFilterHashTableEntrySet
                0x9d01d458      0x128
 .text.DRV_ETHMAC_PIC32MACRxFilterHashTableEntrySet
                0x9d01d458      0x128 build/pic32mx/debug/_ext/1908841681/drv_ethmac.o
                0x9d01d458                DRV_ETHMAC_PIC32MACRxFilterHashTableEntrySet

.text._ARPDeleteResources
                0x9d01d580      0x128
 .text._ARPDeleteResources
                0x9d01d580      0x128 build/pic32mx/debug/_ext/1408260596/arp.o

.text._OAHashFindBkt
                0x9d01d6a8      0x124
 .text._OAHashFindBkt
                0x9d01d6a8      0x124 build/pic32mx/debug/_ext/1408260596/oahash.o

.text.TCPIP_IPV4_ArpHandler
                0x9d01d7cc      0x124
 .text.TCPIP_IPV4_ArpHandler
                0x9d01d7cc      0x124 build/pic32mx/debug/_ext/1408260596/ipv4.o

.text.DRV_ETHMAC_Tasks_ISR
                0x9d01d8f0      0x120
 .text.DRV_ETHMAC_Tasks_ISR
                0x9d01d8f0      0x120 build/pic32mx/debug/_ext/1908841681/drv_ethmac.o
                0x9d01d8f0                DRV_ETHMAC_Tasks_ISR

.text           0x9d01da10      0x120
 .text          0x9d01da10      0x120 c:/program files (x86)/microchip/xc32/v1.40/bin/bin/../../lib/gcc/pic32mx/4.8.3/../../../../pic32mx/lib\libpic32.a(strcmp.o)
                0x9d01da10                strcmp

.text.DRV_ETHMAC_PIC32MACTasks
                0x9d01db30      0x11c
 .text.DRV_ETHMAC_PIC32MACTasks
                0x9d01db30      0x11c build/pic32mx/debug/_ext/1908841681/drv_ethmac.o
                0x9d01db30                DRV_ETHMAC_PIC32MACTasks

.text._GetMaxSegSizeOption
                0x9d01dc4c      0x11c
 .text._GetMaxSegSizeOption
                0x9d01dc4c      0x11c build/pic32mx/debug/_ext/1408260596/tcp.o

.text.TCPIP_ARP_IsResolved
                0x9d01dd68      0x11c
 .text.TCPIP_ARP_IsResolved
                0x9d01dd68      0x11c build/pic32mx/debug/_ext/1408260596/arp.o
                0x9d01dd68                TCPIP_ARP_IsResolved

.text._DNS_Enable
                0x9d01de84      0x11c
 .text._DNS_Enable
                0x9d01de84      0x11c build/pic32mx/debug/_ext/1408260596/dns.o

.text._MacRxPacketAck
                0x9d01dfa0      0x118
 .text._MacRxPacketAck
                0x9d01dfa0      0x118 build/pic32mx/debug/_ext/1908841681/drv_ethmac.o

.text.DRV_NVM_Close
                0x9d01e0b8      0x118
 .text.DRV_NVM_Close
                0x9d01e0b8      0x118 build/pic32mx/debug/_ext/571308596/drv_nvm.o
                0x9d01e0b8                DRV_NVM_Close

.text._DRV_TMR_Resume
                0x9d01e1d0      0x118
 .text._DRV_TMR_Resume
                0x9d01e1d0      0x118 build/pic32mx/debug/_ext/185269848/drv_tmr.o

.text._DHCPSetLeaseTimeParams
                0x9d01e2e8      0x118
 .text._DHCPSetLeaseTimeParams
                0x9d01e2e8      0x118 build/pic32mx/debug/_ext/1408260596/dhcp.o

.text.TCPIP_Helper_PacketChecksum
                0x9d01e400      0x118
 .text.TCPIP_Helper_PacketChecksum
                0x9d01e400      0x118 build/pic32mx/debug/_ext/1408260596/tcpip_helpers.o
                0x9d01e400                TCPIP_Helper_PacketChecksum

.text.DRV_ETHMAC_PIC32MACStatisticsGet
                0x9d01e518      0x114
 .text.DRV_ETHMAC_PIC32MACStatisticsGet
                0x9d01e518      0x114 build/pic32mx/debug/_ext/1908841681/drv_ethmac.o
                0x9d01e518                DRV_ETHMAC_PIC32MACStatisticsGet

.text.TCPIP_HTTP_Deinitialize
                0x9d01e62c      0x114
 .text.TCPIP_HTTP_Deinitialize
                0x9d01e62c      0x114 build/pic32mx/debug/_ext/1408260596/http.o
                0x9d01e62c                TCPIP_HTTP_Deinitialize

.text.DRV_ETHMAC_LibClose
                0x9d01e740      0x110
 .text.DRV_ETHMAC_LibClose
                0x9d01e740      0x110 build/pic32mx/debug/_ext/1908841681/drv_ethmac_lib.o
                0x9d01e740                DRV_ETHMAC_LibClose

.rodata         0x9d01e850      0x110
 .rodata        0x9d01e850      0x110 build/pic32mx/debug/_ext/1408260596/tcpip_manager.o

.text._DRV_ETHPHY_SetupPhaseNegotiate_SubPhase3
                0x9d01e960      0x10c
 .text._DRV_ETHPHY_SetupPhaseNegotiate_SubPhase3
                0x9d01e960      0x10c build/pic32mx/debug/_ext/732687875/drv_ethphy.o

.text.TCPIP_TCP_Initialize
                0x9d01ea6c      0x10c
 .text.TCPIP_TCP_Initialize
                0x9d01ea6c      0x10c build/pic32mx/debug/_ext/1408260596/tcp.o
                0x9d01ea6c                TCPIP_TCP_Initialize

.text.TCPIP_DNS_OAHASH_DeleteEntry
                0x9d01eb78      0x108
 .text.TCPIP_DNS_OAHASH_DeleteEntry
                0x9d01eb78      0x108 build/pic32mx/debug/_ext/1408260596/dns.o

.text.TCPIP_STACK_Deinitialize
                0x9d01ec80      0x108
 .text.TCPIP_STACK_Deinitialize
                0x9d01ec80      0x108 build/pic32mx/debug/_ext/1408260596/tcpip_manager.o
                0x9d01ec80                TCPIP_STACK_Deinitialize

.text.MPFS_Mount
                0x9d01ed88      0x104
 .text.MPFS_Mount
                0x9d01ed88      0x104 build/pic32mx/debug/_ext/850537704/mpfs.o
                0x9d01ed88                MPFS_Mount

.text.TCPIP_HTTP_Server
                0x9d01ee8c      0x104
 .text.TCPIP_HTTP_Server
                0x9d01ee8c      0x104 build/pic32mx/debug/_ext/1408260596/http.o
                0x9d01ee8c                TCPIP_HTTP_Server

.rodata         0x9d01ef90      0x104
 .rodata        0x9d01ef90      0x104 c:/program files (x86)/microchip/xc32/v1.40/bin/bin/../../lib/gcc/pic32mx/4.8.3/../../../../pic32mx/lib\libc.a(ctype.o)
                0x9d01ef90                _ctype

.text.USBDeviceCDCEventHandler
                0x9d01f094      0x100
 .text.USBDeviceCDCEventHandler
                0x9d01f094      0x100 build/pic32mx/debug/_ext/30809027/sys_console_usb_cdc.o
                0x9d01f094                USBDeviceCDCEventHandler

.text.TCPIP_STACK_BringNetDown
                0x9d01f194      0x100
 .text.TCPIP_STACK_BringNetDown
                0x9d01f194      0x100 build/pic32mx/debug/_ext/1408260596/tcpip_manager.o

.text._USB_DEVICE_ProcessStandardEndpointRequest
                0x9d01f294      0x100
 .text._USB_DEVICE_ProcessStandardEndpointRequest
                0x9d01f294      0x100 build/pic32mx/debug/_ext/610166344/usb_device.o
                0x9d01f294                _USB_DEVICE_ProcessStandardEndpointRequest

.text._USB_DEVICE_ConfigureDevice
                0x9d01f394      0x100
 .text._USB_DEVICE_ConfigureDevice
                0x9d01f394      0x100 build/pic32mx/debug/_ext/610166344/usb_device.o
                0x9d01f394                _USB_DEVICE_ConfigureDevice

.text.MPFSGet   0x9d01f494       0xfc
 .text.MPFSGet  0x9d01f494       0xfc build/pic32mx/debug/_ext/850537704/mpfs.o
                0x9d01f494                MPFSGet

.text.TCPIP_TCP_ServerOpen
                0x9d01f590       0xfc
 .text.TCPIP_TCP_ServerOpen
                0x9d01f590       0xfc build/pic32mx/debug/_ext/1408260596/tcp.o
                0x9d01f590                TCPIP_TCP_ServerOpen

.text._TcpSocketSetIdleState
                0x9d01f68c       0xfc
 .text._TcpSocketSetIdleState
                0x9d01f68c       0xfc build/pic32mx/debug/_ext/1408260596/tcp.o

.text._USB_DEVICE_CDC_ControlTransferHandler
                0x9d01f788       0xfc
 .text._USB_DEVICE_CDC_ControlTransferHandler
                0x9d01f788       0xfc build/pic32mx/debug/_ext/610166344/usb_device_cdc.o
                0x9d01f788                _USB_DEVICE_CDC_ControlTransferHandler

.text._DRV_TMR_Suspend
                0x9d01f884       0xf8
 .text._DRV_TMR_Suspend
                0x9d01f884       0xf8 build/pic32mx/debug/_ext/185269848/drv_tmr.o

.text._DHCPClose
                0x9d01f97c       0xf8
 .text._DHCPClose
                0x9d01f97c       0xf8 build/pic32mx/debug/_ext/1408260596/dhcp.o

.rodata         0x9d01fa74       0xf8
 .rodata        0x9d01fa74       0xf8 build/pic32mx/debug/_ext/1408260596/tcpip_packet.o

.text._DRV_ETHPHY_NegCompletePhaseAN_Restart
                0x9d01fb6c       0xf4
 .text._DRV_ETHPHY_NegCompletePhaseAN_Restart
                0x9d01fb6c       0xf4 build/pic32mx/debug/_ext/732687875/drv_ethphy.o

.text.SYS_CMD_READY_TO_READ
                0x9d01fc60       0xf4
 .text.SYS_CMD_READY_TO_READ
                0x9d01fc60       0xf4 build/pic32mx/debug/_ext/425903153/sys_command.o
                0x9d01fc60                SYS_CMD_READY_TO_READ

.text.MPFSGetArray
                0x9d01fd54       0xf4
 .text.MPFSGetArray
                0x9d01fd54       0xf4 build/pic32mx/debug/_ext/850537704/mpfs.o
                0x9d01fd54                MPFSGetArray

.text.TCPIP_DHCP_ConnectionHandler
                0x9d01fe48       0xf4
 .text.TCPIP_DHCP_ConnectionHandler
                0x9d01fe48       0xf4 build/pic32mx/debug/_ext/1408260596/dhcp.o
                0x9d01fe48                TCPIP_DHCP_ConnectionHandler

.text._DRV_ETHPHY_ResetPhaseRead
                0x9d01ff3c       0xf0
 .text._DRV_ETHPHY_ResetPhaseRead
                0x9d01ff3c       0xf0 build/pic32mx/debug/_ext/732687875/drv_ethphy.o

.text.TCPIP_DNS_GetIPv6Address
                0x9d02002c       0xf0
 .text.TCPIP_DNS_GetIPv6Address
                0x9d02002c       0xf0 build/pic32mx/debug/_ext/1408260596/dns.o
                0x9d02002c                TCPIP_DNS_GetIPv6Address

.text._DRV_ETHPHY_SetupPhaseNegotiate_SubPhase0
                0x9d02011c       0xec
 .text._DRV_ETHPHY_SetupPhaseNegotiate_SubPhase0
                0x9d02011c       0xec build/pic32mx/debug/_ext/732687875/drv_ethphy.o

.text.TCPIP_DNS_ClientDeinitialize
                0x9d020208       0xec
 .text.TCPIP_DNS_ClientDeinitialize
                0x9d020208       0xec build/pic32mx/debug/_ext/1408260596/dns.o
                0x9d020208                TCPIP_DNS_ClientDeinitialize

.text.TCPIP_Helper_PacketCopy
                0x9d0202f4       0xec
 .text.TCPIP_Helper_PacketCopy
                0x9d0202f4       0xec build/pic32mx/debug/_ext/1408260596/tcpip_helpers.o
                0x9d0202f4                TCPIP_Helper_PacketCopy

.text._TCPIP_StackSyncFunction
                0x9d0203e0       0xec
 .text._TCPIP_StackSyncFunction
                0x9d0203e0       0xec build/pic32mx/debug/_ext/1408260596/tcpip_manager.o

.text.DRV_ETHMAC_PIC32MACProcess
                0x9d0204cc       0xe8
 .text.DRV_ETHMAC_PIC32MACProcess
                0x9d0204cc       0xe8 build/pic32mx/debug/_ext/1908841681/drv_ethmac.o
                0x9d0204cc                DRV_ETHMAC_PIC32MACProcess

.text._SYS_TMR_ClientParamSet
                0x9d0205b4       0xe8
 .text._SYS_TMR_ClientParamSet
                0x9d0205b4       0xe8 build/pic32mx/debug/_ext/1264926591/sys_tmr.o

.rodata         0x9d0206a0       0xe8
 .rodata        0x9d0206a0       0xe8 c:/program files (x86)/microchip/xc32/v1.40/bin/bin/../../lib/gcc/pic32mx/4.8.3/../../../../pic32mx/lib\libc.a(doprnt.o)

.text._Tcpv4AllocateTxPacketIfQueued
                0x9d020788       0xe4
 .text._Tcpv4AllocateTxPacketIfQueued
                0x9d020788       0xe4 build/pic32mx/debug/_ext/1408260596/tcp.o

.text.TCPIP_UDP_Disconnect
                0x9d02086c       0xe4
 .text.TCPIP_UDP_Disconnect
                0x9d02086c       0xe4 build/pic32mx/debug/_ext/1408260596/udp.o
                0x9d02086c                TCPIP_UDP_Disconnect

.rodata         0x9d020950       0xe0
 .rodata        0x9d020950       0xe0 build/pic32mx/debug/_ext/1908841681/drv_ethmac.o
                0x9d02095c                DRV_ETHMAC_PIC32MACObject

.text.DRV_ETHPHY_Setup
                0x9d020a30       0xe0
 .text.DRV_ETHPHY_Setup
                0x9d020a30       0xe0 build/pic32mx/debug/_ext/732687875/drv_ethphy.o
                0x9d020a30                DRV_ETHPHY_Setup

.text.DRV_TMR_CounterValue16BitGet
                0x9d020b10       0xe0
 .text.DRV_TMR_CounterValue16BitGet
                0x9d020b10       0xe0 build/pic32mx/debug/_ext/185269848/drv_tmr.o
                0x9d020b10                DRV_TMR_CounterValue16BitGet

.text.MD5AddData
                0x9d020bf0       0xe0
 .text.MD5AddData
                0x9d020bf0       0xe0 build/pic32mx/debug/_ext/1136935090/hashes.o
                0x9d020bf0                MD5AddData

.text._DHCPEnable
                0x9d020cd0       0xe0
 .text._DHCPEnable
                0x9d020cd0       0xe0 build/pic32mx/debug/_ext/1408260596/dhcp.o

.text.TCPIP_DNS_SelectDNSIntf
                0x9d020db0       0xe0
 .text.TCPIP_DNS_SelectDNSIntf
                0x9d020db0       0xe0 build/pic32mx/debug/_ext/1408260596/dns.o

.text.TCPIP_OAHASH_EntryLookup
                0x9d020e90       0xe0
 .text.TCPIP_OAHASH_EntryLookup
                0x9d020e90       0xe0 build/pic32mx/debug/_ext/1408260596/oahash.o
                0x9d020e90                TCPIP_OAHASH_EntryLookup

.rodata         0x9d020f70       0xdc
 .rodata        0x9d020f70       0xdc build/pic32mx/debug/_ext/435813987/system_exceptions.o

.text.DRV_ETHPHY_SMIClockSet
                0x9d02104c       0xdc
 .text.DRV_ETHPHY_SMIClockSet
                0x9d02104c       0xdc build/pic32mx/debug/_ext/732687875/drv_ethphy.o
                0x9d02104c                DRV_ETHPHY_SMIClockSet

.text.SYS_CMD_DELETE
                0x9d021128       0xdc
 .text.SYS_CMD_DELETE
                0x9d021128       0xdc build/pic32mx/debug/_ext/425903153/sys_command.o
                0x9d021128                SYS_CMD_DELETE

.text.SYS_DEVCON_PerformanceConfig
                0x9d021204       0xdc
 .text.SYS_DEVCON_PerformanceConfig
                0x9d021204       0xdc build/pic32mx/debug/_ext/1271179505/sys_devcon_pic32mx.o
                0x9d021204                SYS_DEVCON_PerformanceConfig

.text._TcpCloseSocket
                0x9d0212e0       0xdc
 .text._TcpCloseSocket
                0x9d0212e0       0xdc build/pic32mx/debug/_ext/1408260596/tcp.o

.text._TCPIP_PKT_PacketAlloc
                0x9d0213bc       0xdc
 .text._TCPIP_PKT_PacketAlloc
                0x9d0213bc       0xdc build/pic32mx/debug/_ext/1408260596/tcpip_packet.o
                0x9d0213bc                _TCPIP_PKT_PacketAlloc

.text.general_exception
                0x9d021498       0xdc
 .text.general_exception
                0x9d021498       0xdc c:/program files (x86)/microchip/xc32/v1.40/bin/bin/../../lib/gcc/pic32mx/4.8.3/../../../../pic32mx/lib\libpic32.a(general-exception.o)
                0x9d021498                _general_exception_context

.text._DRV_USBFS_DEVICE_EndpointBDTEntryArm
                0x9d021574       0xd8
 .text._DRV_USBFS_DEVICE_EndpointBDTEntryArm
                0x9d021574       0xd8 build/pic32mx/debug/_ext/764219029/drv_usbfs_device.o
                0x9d021574                _DRV_USBFS_DEVICE_EndpointBDTEntryArm

.text.SYS_CMD_Initialize
                0x9d02164c       0xd8
 .text.SYS_CMD_Initialize
                0x9d02164c       0xd8 build/pic32mx/debug/_ext/425903153/sys_command.o
                0x9d02164c                SYS_CMD_Initialize

.text._ARPUpdateEntry
                0x9d021724       0xd8
 .text._ARPUpdateEntry
                0x9d021724       0xd8 build/pic32mx/debug/_ext/1408260596/arp.o

.text._DHCPOpenSocket
                0x9d0217fc       0xd8
 .text._DHCPOpenSocket
                0x9d0217fc       0xd8 build/pic32mx/debug/_ext/1408260596/dhcp.o

.text._DNSNotifyClients
                0x9d0218d4       0xd8
 .text._DNSNotifyClients
                0x9d0218d4       0xd8 build/pic32mx/debug/_ext/1408260596/dns.o

.text._DRV_ETHPHY_NegResultPhase_BMSTAT
                0x9d0219ac       0xd4
 .text._DRV_ETHPHY_NegResultPhase_BMSTAT
                0x9d0219ac       0xd4 build/pic32mx/debug/_ext/732687875/drv_ethphy.o

.text.DRV_NVM_Open
                0x9d021a80       0xd4
 .text.DRV_NVM_Open
                0x9d021a80       0xd4 build/pic32mx/debug/_ext/571308596/drv_nvm.o
                0x9d021a80                DRV_NVM_Open

.text._UDPv4TxAckFnc
                0x9d021b54       0xd4
 .text._UDPv4TxAckFnc
                0x9d021b54       0xd4 build/pic32mx/debug/_ext/1408260596/udp.o

.text.TCPIP_DNS_Resolve
                0x9d021c28       0xd4
 .text.TCPIP_DNS_Resolve
                0x9d021c28       0xd4 build/pic32mx/debug/_ext/1408260596/dns.o
                0x9d021c28                TCPIP_DNS_Resolve

.text._USB_DEVICE_GetStringDescriptorRequestProcess
                0x9d021cfc       0xd4
 .text._USB_DEVICE_GetStringDescriptorRequestProcess
                0x9d021cfc       0xd4 build/pic32mx/debug/_ext/610166344/usb_device.o
                0x9d021cfc                _USB_DEVICE_GetStringDescriptorRequestProcess

.text._mon_putc
                0x9d021dd0       0xd4
 .text._mon_putc
                0x9d021dd0       0xd4 c:/program files (x86)/microchip/xc32/v1.40/bin/bin/../../lib/gcc/pic32mx/4.8.3/../../../../pic32mx/lib\libpic32.a(_mon_putc.o)
                0x9d021dd0                _mon_putc

.text._MacTxPendingPackets
                0x9d021ea4       0xd0
 .text._MacTxPendingPackets
                0x9d021ea4       0xd0 build/pic32mx/debug/_ext/1908841681/drv_ethmac.o

.text.TCPIP_DNS_ActiveDNSServerIntfSet
                0x9d021f74       0xd0
 .text.TCPIP_DNS_ActiveDNSServerIntfSet
                0x9d021f74       0xd0 build/pic32mx/debug/_ext/1408260596/dns.o

.text.PLIB_ETH_MACSetAddress
                0x9d022044       0xd0
 .text.PLIB_ETH_MACSetAddress
                0x9d022044       0xd0 ..\..\..\..\bin\framework\peripheral\PIC32MX795F512L_peripherals.a(plib_eth_lib.o)
                0x9d022044                PLIB_ETH_MACSetAddress

.rodata         0x9d022118       0xd0
 .rodata        0x9d022118       0xd0 c:/program files (x86)/microchip/xc32/v1.40/bin/bin/../../lib/gcc/pic32mx/4.8.3/../../../../pic32mx/lib\libc.a(doprnt_cdnopsuxX.eo)

.text.GenerateSeed
                0x9d0221e8       0xcc
 .text.GenerateSeed
                0x9d0221e8       0xcc build/pic32mx/debug/_ext/1886890887/random.o
                0x9d0221e8                GenerateSeed

.text.TCPIP_UDP_RemoteBind
                0x9d0222b4       0xcc
 .text.TCPIP_UDP_RemoteBind
                0x9d0222b4       0xcc build/pic32mx/debug/_ext/1408260596/udp.o
                0x9d0222b4                TCPIP_UDP_RemoteBind

.text.TCPIP_ARP_EntryRemove
                0x9d022380       0xcc
 .text.TCPIP_ARP_EntryRemove
                0x9d022380       0xcc build/pic32mx/debug/_ext/1408260596/arp.o
                0x9d022380                TCPIP_ARP_EntryRemove

.text._UDPsetPacketInfo
                0x9d02244c       0xc8
 .text._UDPsetPacketInfo
                0x9d02244c       0xc8 build/pic32mx/debug/_ext/1408260596/udp.o

.text.TCPIP_NBNS_Initialize
                0x9d022514       0xc8
 .text.TCPIP_NBNS_Initialize
                0x9d022514       0xc8 build/pic32mx/debug/_ext/1408260596/nbns.o
                0x9d022514                TCPIP_NBNS_Initialize

.text.TCPIP_STACK_NetDown
                0x9d0225dc       0xc8
 .text.TCPIP_STACK_NetDown
                0x9d0225dc       0xc8 build/pic32mx/debug/_ext/1408260596/tcpip_manager.o
                0x9d0225dc                TCPIP_STACK_NetDown

.text._sbrk     0x9d0226a4       0xc8
 .text._sbrk    0x9d0226a4       0xc8 c:/program files (x86)/microchip/xc32/v1.40/bin/bin/../../lib/gcc/pic32mx/4.8.3/../../../../pic32mx/lib\libpic32.a(sbrk.o)
                0x9d0226a4                _sbrk

.text._DHCPOptionWriteSrvIdent
                0x9d02276c       0xc4
 .text._DHCPOptionWriteSrvIdent
                0x9d02276c       0xc4 build/pic32mx/debug/_ext/1408260596/dhcp.o

.text.SYS_CMD_PRINT
                0x9d022830       0xc0
 .text.SYS_CMD_PRINT
                0x9d022830       0xc0 build/pic32mx/debug/_ext/425903153/sys_command.o
                0x9d022830                SYS_CMD_PRINT

.text.SYS_FS_Unmount
                0x9d0228f0       0xc0
 .text.SYS_FS_Unmount
                0x9d0228f0       0xc0 build/pic32mx/debug/_ext/2104899551/sys_fs.o
                0x9d0228f0                SYS_FS_Unmount

.text.SYS_FS_MEDIA_MANAGER_MediaStatusGet
                0x9d0229b0       0xc0
 .text.SYS_FS_MEDIA_MANAGER_MediaStatusGet
                0x9d0229b0       0xc0 build/pic32mx/debug/_ext/2104899551/sys_fs_media_manager.o
                0x9d0229b0                SYS_FS_MEDIA_MANAGER_MediaStatusGet

.text.TCPIP_UDP_ArrayPutRaw
                0x9d022a70       0xc0
 .text.TCPIP_UDP_ArrayPutRaw
                0x9d022a70       0xc0 build/pic32mx/debug/_ext/1408260596/udp.o
                0x9d022a70                TCPIP_UDP_ArrayPutRaw

.text._DHCPOptionProcessDns
                0x9d022b30       0xc0
 .text._DHCPOptionProcessDns
                0x9d022b30       0xc0 build/pic32mx/debug/_ext/1408260596/dhcp.o

.text.TCPIP_OAHASH_EntryLookupOrInsert
                0x9d022bf0       0xc0
 .text.TCPIP_OAHASH_EntryLookupOrInsert
                0x9d022bf0       0xc0 build/pic32mx/debug/_ext/1408260596/oahash.o
                0x9d022bf0                TCPIP_OAHASH_EntryLookupOrInsert

.text.SYS_CMDIO_ADD
                0x9d022cb0       0xbc
 .text.SYS_CMDIO_ADD
                0x9d022cb0       0xbc build/pic32mx/debug/_ext/425903153/sys_command.o
                0x9d022cb0                SYS_CMDIO_ADD

.text.SendCommandPrint
                0x9d022d6c       0xbc
 .text.SendCommandPrint
                0x9d022d6c       0xbc build/pic32mx/debug/_ext/425903153/sys_command.o

.text.SYS_FS_FileRead
                0x9d022e28       0xbc
 .text.SYS_FS_FileRead
                0x9d022e28       0xbc build/pic32mx/debug/_ext/2104899551/sys_fs.o
                0x9d022e28                SYS_FS_FileRead

.text.SYS_FS_FileStat
                0x9d022ee4       0xbc
 .text.SYS_FS_FileStat
                0x9d022ee4       0xbc build/pic32mx/debug/_ext/2104899551/sys_fs.o
                0x9d022ee4                SYS_FS_FileStat

.text.SYS_FS_MEDIA_MANAGER_Read
                0x9d022fa0       0xbc
 .text.SYS_FS_MEDIA_MANAGER_Read
                0x9d022fa0       0xbc build/pic32mx/debug/_ext/2104899551/sys_fs_media_manager.o
                0x9d022fa0                SYS_FS_MEDIA_MANAGER_Read

.text.SYS_TMR_Initialize
                0x9d02305c       0xbc
 .text.SYS_TMR_Initialize
                0x9d02305c       0xbc build/pic32mx/debug/_ext/1264926591/sys_tmr.o
                0x9d02305c                SYS_TMR_Initialize

.text._DHCPOptionWriteIPRequest
                0x9d023118       0xbc
 .text._DHCPOptionWriteIPRequest
                0x9d023118       0xbc build/pic32mx/debug/_ext/1408260596/dhcp.o

.text.TCPIP_PKT_DataSegmentGet
                0x9d0231d4       0xbc
 .text.TCPIP_PKT_DataSegmentGet
                0x9d0231d4       0xbc build/pic32mx/debug/_ext/1408260596/tcpip_packet.o
                0x9d0231d4                TCPIP_PKT_DataSegmentGet

.text._EthTxSchedList
                0x9d023290       0xb8
 .text._EthTxSchedList
                0x9d023290       0xb8 build/pic32mx/debug/_ext/1908841681/drv_ethmac_lib.o

.text._SYS_FS_DiskGet
                0x9d023348       0xb8
 .text._SYS_FS_DiskGet
                0x9d023348       0xb8 build/pic32mx/debug/_ext/2104899551/sys_fs.o
                0x9d023348                _SYS_FS_DiskGet

.text.SYS_FS_FileClose
                0x9d023400       0xb8
 .text.SYS_FS_FileClose
                0x9d023400       0xb8 build/pic32mx/debug/_ext/2104899551/sys_fs.o
                0x9d023400                SYS_FS_FileClose

.text.TCPIP_UDP_BcastIPV4AddressSet
                0x9d0234b8       0xb8
 .text.TCPIP_UDP_BcastIPV4AddressSet
                0x9d0234b8       0xb8 build/pic32mx/debug/_ext/1408260596/udp.o
                0x9d0234b8                TCPIP_UDP_BcastIPV4AddressSet

.text._DNS_RemoveHashAll
                0x9d023570       0xb8
 .text._DNS_RemoveHashAll
                0x9d023570       0xb8 build/pic32mx/debug/_ext/1408260596/dns.o

.text._DRV_ETHMAC_LinkStateNegResult
                0x9d023628       0xb4
 .text._DRV_ETHMAC_LinkStateNegResult
                0x9d023628       0xb4 build/pic32mx/debug/_ext/1908841681/drv_ethmac.o

.text.DRV_ETHMAC_PIC32MACEventAcknowledge
                0x9d0236dc       0xb4
 .text.DRV_ETHMAC_PIC32MACEventAcknowledge
                0x9d0236dc       0xb4 build/pic32mx/debug/_ext/1908841681/drv_ethmac.o
                0x9d0236dc                DRV_ETHMAC_PIC32MACEventAcknowledge

.text._EthTxSchedBuffer
                0x9d023790       0xb4
 .text._EthTxSchedBuffer
                0x9d023790       0xb4 build/pic32mx/debug/_ext/1908841681/drv_ethmac_lib.o

.rodata         0x9d023844       0xb4
 .rodata        0x9d023844       0xb4 build/pic32mx/debug/_ext/732687875/drv_ethphy.o

.text.DRV_TMR_Tasks_ISR
                0x9d0238f8       0xb4
 .text.DRV_TMR_Tasks_ISR
                0x9d0238f8       0xb4 build/pic32mx/debug/_ext/185269848/drv_tmr.o
                0x9d0238f8                DRV_TMR_Tasks_ISR

.text.Console_USB_Write
                0x9d0239ac       0xb4
 .text.Console_USB_Write
                0x9d0239ac       0xb4 build/pic32mx/debug/_ext/30809027/sys_console_usb_cdc.o
                0x9d0239ac                Console_USB_Write

.text.Console_USB_Read
                0x9d023a60       0xb4
 .text.Console_USB_Read
                0x9d023a60       0xb4 build/pic32mx/debug/_ext/30809027/sys_console_usb_cdc.o
                0x9d023a60                Console_USB_Read

.text.MPFS_Seek
                0x9d023b14       0xb4
 .text.MPFS_Seek
                0x9d023b14       0xb4 build/pic32mx/debug/_ext/850537704/mpfs.o
                0x9d023b14                MPFS_Seek

.text._ARPNotifyClients
                0x9d023bc8       0xb4
 .text._ARPNotifyClients
                0x9d023bc8       0xb4 build/pic32mx/debug/_ext/1408260596/arp.o

.text.TCPIP_DNS_GetIPv4Address
                0x9d023c7c       0xb4
 .text.TCPIP_DNS_GetIPv4Address
                0x9d023c7c       0xb4 build/pic32mx/debug/_ext/1408260596/dns.o
                0x9d023c7c                TCPIP_DNS_GetIPv4Address

.text._DRV_ETHPHY_ResetPhaseWrite
                0x9d023d30       0xb0
 .text._DRV_ETHPHY_ResetPhaseWrite
                0x9d023d30       0xb0 build/pic32mx/debug/_ext/732687875/drv_ethphy.o

.text.DRV_ETHPHY_VendorSMIWriteStart
                0x9d023de0       0xb0
 .text.DRV_ETHPHY_VendorSMIWriteStart
                0x9d023de0       0xb0 build/pic32mx/debug/_ext/732687875/drv_ethphy.o
                0x9d023de0                DRV_ETHPHY_VendorSMIWriteStart

.text.TCPIP_HTTP_PostValueRead
                0x9d023e90       0xb0
 .text.TCPIP_HTTP_PostValueRead
                0x9d023e90       0xb0 build/pic32mx/debug/_ext/1408260596/http.o
                0x9d023e90                TCPIP_HTTP_PostValueRead

.text.TCPIP_ZCLL_Initialize
                0x9d023f40       0xb0
 .text.TCPIP_ZCLL_Initialize
                0x9d023f40       0xb0 build/pic32mx/debug/_ext/1408260596/zero_conf_link_local.o
                0x9d023f40                TCPIP_ZCLL_Initialize

.text.TCPIP_STACK_AddressServiceEvent
                0x9d023ff0       0xb0
 .text.TCPIP_STACK_AddressServiceEvent
                0x9d023ff0       0xb0 build/pic32mx/debug/_ext/1408260596/tcpip_manager.o
                0x9d023ff0                TCPIP_STACK_AddressServiceEvent

.text.TCPIP_IPV4_PacketFormatTx
                0x9d0240a0       0xb0
 .text.TCPIP_IPV4_PacketFormatTx
                0x9d0240a0       0xb0 build/pic32mx/debug/_ext/1408260596/ipv4.o
                0x9d0240a0                TCPIP_IPV4_PacketFormatTx

.text._USB_DEVICE_Ep0TransmitCompleteCallback
                0x9d024150       0xb0
 .text._USB_DEVICE_Ep0TransmitCompleteCallback
                0x9d024150       0xb0 build/pic32mx/debug/_ext/610166344/usb_device.o
                0x9d024150                _USB_DEVICE_Ep0TransmitCompleteCallback

.text._DRV_ETHPHY_NegCompletePhaseRead2
                0x9d024200       0xac
 .text._DRV_ETHPHY_NegCompletePhaseRead2
                0x9d024200       0xac build/pic32mx/debug/_ext/732687875/drv_ethphy.o

.text.DRV_ETHPHY_VendorSMIReadStart
                0x9d0242ac       0xac
 .text.DRV_ETHPHY_VendorSMIReadStart
                0x9d0242ac       0xac build/pic32mx/debug/_ext/732687875/drv_ethphy.o
                0x9d0242ac                DRV_ETHPHY_VendorSMIReadStart

.text.SYS_FS_Initialize
                0x9d024358       0xac
 .text.SYS_FS_Initialize
                0x9d024358       0xac build/pic32mx/debug/_ext/2104899551/sys_fs.o
                0x9d024358                SYS_FS_Initialize

.text.TCPIP_TCP_Deinitialize
                0x9d024404       0xac
 .text.TCPIP_TCP_Deinitialize
                0x9d024404       0xac build/pic32mx/debug/_ext/1408260596/tcp.o
                0x9d024404                TCPIP_TCP_Deinitialize

.text.TCPIP_HEAP_Create
                0x9d0244b0       0xac
 .text.TCPIP_HEAP_Create
                0x9d0244b0       0xac build/pic32mx/debug/_ext/1408260596/tcpip_heap_alloc.o
                0x9d0244b0                TCPIP_HEAP_Create

.text.atol      0x9d02455c       0xac
 .text.atol     0x9d02455c       0xac c:/program files (x86)/microchip/xc32/v1.40/bin/bin/../../lib/gcc/pic32mx/4.8.3/../../../../pic32mx/lib\libc.a(atol.o)
                0x9d02455c                atol

.text.DRV_ETHMAC_PIC32MACRegisterStatisticsGet
                0x9d024608       0xa8
 .text.DRV_ETHMAC_PIC32MACRegisterStatisticsGet
                0x9d024608       0xa8 build/pic32mx/debug/_ext/1908841681/drv_ethmac.o
                0x9d024608                DRV_ETHMAC_PIC32MACRegisterStatisticsGet

.text._DRV_ETHPHY_SetupPhaseNegotiate_SubPhase6
                0x9d0246b0       0xa8
 .text._DRV_ETHPHY_SetupPhaseNegotiate_SubPhase6
                0x9d0246b0       0xa8 build/pic32mx/debug/_ext/732687875/drv_ethphy.o

.text.SYS_FS_FileNameFormat
                0x9d024758       0xa8
 .text.SYS_FS_FileNameFormat
                0x9d024758       0xa8 build/pic32mx/debug/_ext/1136935090/sys_fs_wrapper.o

.text.TCPIP_IPV4_ListPurge
                0x9d024800       0xa8
 .text.TCPIP_IPV4_ListPurge
                0x9d024800       0xa8 build/pic32mx/debug/_ext/1408260596/ipv4.o

.text._USB_DEVICE_DeInitializeAllFunctionDrivers
                0x9d0248a8       0xa8
 .text._USB_DEVICE_DeInitializeAllFunctionDrivers
                0x9d0248a8       0xa8 build/pic32mx/debug/_ext/610166344/usb_device.o
                0x9d0248a8                _USB_DEVICE_DeInitializeAllFunctionDrivers

.text           0x9d024950       0xa8
 .text          0x9d024950       0xa8 c:/program files (x86)/microchip/xc32/v1.40/bin/bin/../../lib/gcc/pic32mx/4.8.3/../../../../pic32mx/lib\libpic32.a(memset.o)
                0x9d024950                memset

.text.atoi      0x9d0249f8       0xa8
 .text.atoi     0x9d0249f8       0xa8 c:/program files (x86)/microchip/xc32/v1.40/bin/bin/../../lib/gcc/pic32mx/4.8.3/../../../../pic32mx/lib\libc.a(atoi.o)
                0x9d0249f8                atoi

.text._DRV_ETHMAC_LinkStateWaitLinkUp
                0x9d024aa0       0xa4
 .text._DRV_ETHMAC_LinkStateWaitLinkUp
                0x9d024aa0       0xa4 build/pic32mx/debug/_ext/1908841681/drv_ethmac.o

.text.TCPIP_UDP_PutIsReady
                0x9d024b44       0xa4
 .text.TCPIP_UDP_PutIsReady
                0x9d024b44       0xa4 build/pic32mx/debug/_ext/1408260596/udp.o
                0x9d024b44                TCPIP_UDP_PutIsReady

.text.TCPIP_IPV4_DeInitialize
                0x9d024be8       0xa4
 .text.TCPIP_IPV4_DeInitialize
                0x9d024be8       0xa4 build/pic32mx/debug/_ext/1408260596/ipv4.o
                0x9d024be8                TCPIP_IPV4_DeInitialize

.text.TCPIP_HTTP_Print_napiecie
                0x9d024c8c       0xa0
 .text.TCPIP_HTTP_Print_napiecie
                0x9d024c8c       0xa0 build/pic32mx/debug/_ext/1360937237/custom_http_app.o
                0x9d024c8c                TCPIP_HTTP_Print_napiecie

.text._DRV_ETHPHY_LinkStatPhaseRead
                0x9d024d2c       0xa0
 .text._DRV_ETHPHY_LinkStatPhaseRead
                0x9d024d2c       0xa0 build/pic32mx/debug/_ext/732687875/drv_ethphy.o

.text.stricmppgm2ram
                0x9d024dcc       0xa0
 .text.stricmppgm2ram
                0x9d024dcc       0xa0 build/pic32mx/debug/_ext/1136935090/helpers.o
                0x9d024dcc                stricmppgm2ram

.text._TCPSendWinIncUpdate
                0x9d024e6c       0xa0
 .text._TCPSendWinIncUpdate
                0x9d024e6c       0xa0 build/pic32mx/debug/_ext/1408260596/tcp.o

.text._DHCPPacketFilter
                0x9d024f0c       0xa0
 .text._DHCPPacketFilter
                0x9d024f0c       0xa0 build/pic32mx/debug/_ext/1408260596/dhcp.o

.text.TCPIP_Helper_SingleListNodeRemove
                0x9d024fac       0xa0
 .text.TCPIP_Helper_SingleListNodeRemove
                0x9d024fac       0xa0 build/pic32mx/debug/_ext/1408260596/tcpip_helpers.o
                0x9d024fac                TCPIP_Helper_SingleListNodeRemove

.text.TCPIP_PKT_PacketMACFormat
                0x9d02504c       0xa0
 .text.TCPIP_PKT_PacketMACFormat
                0x9d02504c       0xa0 build/pic32mx/debug/_ext/1408260596/tcpip_packet.o
                0x9d02504c                TCPIP_PKT_PacketMACFormat

.text._USB_DEVICE_ForwardControlXfrToFunction
                0x9d0250ec       0xa0
 .text._USB_DEVICE_ForwardControlXfrToFunction
                0x9d0250ec       0xa0 build/pic32mx/debug/_ext/610166344/usb_device.o
                0x9d0250ec                _USB_DEVICE_ForwardControlXfrToFunction

.text._USB_DEVICE_CDC_ReadIRPCallback
                0x9d02518c       0xa0
 .text._USB_DEVICE_CDC_ReadIRPCallback
                0x9d02518c       0xa0 build/pic32mx/debug/_ext/610166344/usb_device_cdc.o
                0x9d02518c                _USB_DEVICE_CDC_ReadIRPCallback

.text._USB_DEVICE_CDC_WriteIRPCallback
                0x9d02522c       0xa0
 .text._USB_DEVICE_CDC_WriteIRPCallback
                0x9d02522c       0xa0 build/pic32mx/debug/_ext/610166344/usb_device_cdc.o
                0x9d02522c                _USB_DEVICE_CDC_WriteIRPCallback

.text.TCPIP_ARP_Probe
                0x9d0252cc       0x9c
 .text.TCPIP_ARP_Probe
                0x9d0252cc       0x9c build/pic32mx/debug/_ext/1408260596/arp.o
                0x9d0252cc                TCPIP_ARP_Probe

.text.TCPIP_STACK_IPAddressIsLocalNetwork
                0x9d025368       0x9c
 .text.TCPIP_STACK_IPAddressIsLocalNetwork
                0x9d025368       0x9c build/pic32mx/debug/_ext/1408260596/tcpip_manager.o
                0x9d025368                TCPIP_STACK_IPAddressIsLocalNetwork

.text.write     0x9d025404       0x9c
 .text.write    0x9d025404       0x9c c:/program files (x86)/microchip/xc32/v1.40/bin/bin/../../lib/gcc/pic32mx/4.8.3/../../../../pic32mx/lib\libpic32.a(write.o)
                0x9d025404                write

.text.fpcmp     0x9d0254a0       0x9c
 .text.fpcmp    0x9d0254a0       0x9c c:/program files (x86)/microchip/xc32/v1.40/bin/bin/../../lib/gcc/pic32mx/4.8.3/../../../../pic32mx/lib\libm.a(fpcmp.o)
                0x9d0254a0                __eqsf2
                0x9d0254a0                __lesf2
                0x9d0254a0                __gtsf2
                0x9d0254a0                __nesf2
                0x9d0254a0                fpcmp
                0x9d0254a0                __gesf2
                0x9d0254a0                __ltsf2

.text.DRV_ETHMAC_LibDescriptorsPoolCleanUp
                0x9d02553c       0x98
 .text.DRV_ETHMAC_LibDescriptorsPoolCleanUp
                0x9d02553c       0x98 build/pic32mx/debug/_ext/1908841681/drv_ethmac_lib.o
                0x9d02553c                DRV_ETHMAC_LibDescriptorsPoolCleanUp

.text.TCPIP_UDP_DestinationIPAddressSet
                0x9d0255d4       0x98
 .text.TCPIP_UDP_DestinationIPAddressSet
                0x9d0255d4       0x98 build/pic32mx/debug/_ext/1408260596/udp.o
                0x9d0255d4                TCPIP_UDP_DestinationIPAddressSet

.text._DNSDiscardName
                0x9d02566c       0x98
 .text._DNSDiscardName
                0x9d02566c       0x98 build/pic32mx/debug/_ext/1408260596/dns.o

.text._TCPIPStackAsyncHandlerRegister
                0x9d025704       0x98
 .text._TCPIPStackAsyncHandlerRegister
                0x9d025704       0x98 build/pic32mx/debug/_ext/1408260596/tcpip_manager.o
                0x9d025704                _TCPIPStackAsyncHandlerRegister

.text._TCPIP_PKT_PacketFree
                0x9d02579c       0x98
 .text._TCPIP_PKT_PacketFree
                0x9d02579c       0x98 build/pic32mx/debug/_ext/1408260596/tcpip_packet.o
                0x9d02579c                _TCPIP_PKT_PacketFree

.text           0x9d025834       0x98
 .text          0x9d025834       0x98 c:/program files (x86)/microchip/xc32/v1.40/bin/bin/../../lib/gcc/pic32mx/4.8.3/../../../../pic32mx/lib\libpic32.a(memcmp.o)
                0x9d025834                memcmp

.text.SYS_FS_FileNameGet
                0x9d0258cc       0x94
 .text.SYS_FS_FileNameGet
                0x9d0258cc       0x94 build/pic32mx/debug/_ext/2104899551/sys_fs.o
                0x9d0258cc                SYS_FS_FileNameGet

.text._TcpCleanup
                0x9d025960       0x94
 .text._TcpCleanup
                0x9d025960       0x94 build/pic32mx/debug/_ext/1408260596/tcp.o

.text._UDPSetNewRxPacket
                0x9d0259f4       0x94
 .text._UDPSetNewRxPacket
                0x9d0259f4       0x94 build/pic32mx/debug/_ext/1408260596/udp.o

.text.TCPIP_ARP_EntryGet
                0x9d025a88       0x94
 .text.TCPIP_ARP_EntryGet
                0x9d025a88       0x94 build/pic32mx/debug/_ext/1408260596/arp.o
                0x9d025a88                TCPIP_ARP_EntryGet

.text.TCPIP_DNS_GetNumberOfIPAddresses
                0x9d025b1c       0x94
 .text.TCPIP_DNS_GetNumberOfIPAddresses
                0x9d025b1c       0x94 build/pic32mx/debug/_ext/1408260596/dns.o
                0x9d025b1c                TCPIP_DNS_GetNumberOfIPAddresses

.text.TCPIP_HTTP_ArgGet
                0x9d025bb0       0x94
 .text.TCPIP_HTTP_ArgGet
                0x9d025bb0       0x94 build/pic32mx/debug/_ext/1408260596/http.o
                0x9d025bb0                TCPIP_HTTP_ArgGet

.text._DRV_ETHPHY_NegCompletePhaseAN_Complete
                0x9d025c44       0x90
 .text._DRV_ETHPHY_NegCompletePhaseAN_Complete
                0x9d025c44       0x90 build/pic32mx/debug/_ext/732687875/drv_ethphy.o

.text.SYS_CONSOLE_Status
                0x9d025cd4       0x90
 .text.SYS_CONSOLE_Status
                0x9d025cd4       0x90 build/pic32mx/debug/_ext/30809027/sys_console.o
                0x9d025cd4                SYS_CONSOLE_Status

.rodata         0x9d025d64       0x90
 .rodata        0x9d025d64       0x90 build/pic32mx/debug/_ext/850537704/mpfs.o
                0x9d025d64                MPFSFunctions

.text._SYS_TMR_ClientCheckSrvLock
                0x9d025df4       0x90
 .text._SYS_TMR_ClientCheckSrvLock
                0x9d025df4       0x90 build/pic32mx/debug/_ext/1264926591/sys_tmr.o

.text._TcpAbort
                0x9d025e84       0x90
 .text._TcpAbort
                0x9d025e84       0x90 build/pic32mx/debug/_ext/1408260596/tcp.o

.text.TCPIP_UDP_SocketInfoGet
                0x9d025f14       0x90
 .text.TCPIP_UDP_SocketInfoGet
                0x9d025f14       0x90 build/pic32mx/debug/_ext/1408260596/udp.o
                0x9d025f14                TCPIP_UDP_SocketInfoGet

.text.TCPIP_UDP_TxOffsetSet
                0x9d025fa4       0x90
 .text.TCPIP_UDP_TxOffsetSet
                0x9d025fa4       0x90 build/pic32mx/debug/_ext/1408260596/udp.o
                0x9d025fa4                TCPIP_UDP_TxOffsetSet

.text._DNSHashEntryFromTransactionId
                0x9d026034       0x90
 .text._DNSHashEntryFromTransactionId
                0x9d026034       0x90 build/pic32mx/debug/_ext/1408260596/dns.o
                0x9d026034                _DNSHashEntryFromTransactionId

.text.TCPIP_DNS_ValidateIf
                0x9d0260c4       0x90
 .text.TCPIP_DNS_ValidateIf
                0x9d0260c4       0x90 build/pic32mx/debug/_ext/1408260596/dns.o

.text._TCPIPStackIpAddFromAnyNet
                0x9d026154       0x90
 .text._TCPIPStackIpAddFromAnyNet
                0x9d026154       0x90 build/pic32mx/debug/_ext/1408260596/tcpip_manager.o
                0x9d026154                _TCPIPStackIpAddFromAnyNet

.text.SYS_CONSOLE_Write
                0x9d0261e4       0x8c
 .text.SYS_CONSOLE_Write
                0x9d0261e4       0x8c build/pic32mx/debug/_ext/30809027/sys_console.o
                0x9d0261e4                SYS_CONSOLE_Write

.text._LoadFATRecord
                0x9d026270       0x8c
 .text._LoadFATRecord
                0x9d026270       0x8c build/pic32mx/debug/_ext/850537704/mpfs.o

.text.hexatob   0x9d0262fc       0x8c
 .text.hexatob  0x9d0262fc       0x8c build/pic32mx/debug/_ext/1136935090/helpers.o
                0x9d0262fc                hexatob

.text._UDPFreeTxResources
                0x9d026388       0x8c
 .text._UDPFreeTxResources
                0x9d026388       0x8c build/pic32mx/debug/_ext/1408260596/udp.o

.text._DHCPNotifyClients
                0x9d026414       0x8c
 .text._DHCPNotifyClients
                0x9d026414       0x8c build/pic32mx/debug/_ext/1408260596/dhcp.o

.text._DNS_UpdateExpiredHashEntry_Notify
                0x9d0264a0       0x8c
 .text._DNS_UpdateExpiredHashEntry_Notify
                0x9d0264a0       0x8c build/pic32mx/debug/_ext/1408260596/dns.o

.text.TCPIP_Helper_FormatNetBIOSName
                0x9d02652c       0x8c
 .text.TCPIP_Helper_FormatNetBIOSName
                0x9d02652c       0x8c build/pic32mx/debug/_ext/1408260596/tcpip_helpers.o
                0x9d02652c                TCPIP_Helper_FormatNetBIOSName

.text.rand      0x9d0265b8       0x8c
 .text.rand     0x9d0265b8       0x8c c:/program files (x86)/microchip/xc32/v1.40/bin/bin/../../lib/gcc/pic32mx/4.8.3/../../../../pic32mx/lib\libc.a(rand.o)
                0x9d0265b8                rand

.text._DRV_ETHMAC_LinkStateGetLink
                0x9d026644       0x88
 .text._DRV_ETHMAC_LinkStateGetLink
                0x9d026644       0x88 build/pic32mx/debug/_ext/1908841681/drv_ethmac.o

.text.SYS_RANDOM_Initialize
                0x9d0266cc       0x88
 .text.SYS_RANDOM_Initialize
                0x9d0266cc       0x88 build/pic32mx/debug/_ext/1283840359/sys_random.o
                0x9d0266cc                SYS_RANDOM_Initialize

.text.TCPIP_UDP_SourceIPAddressSet
                0x9d026754       0x88
 .text.TCPIP_UDP_SourceIPAddressSet
                0x9d026754       0x88 build/pic32mx/debug/_ext/1408260596/udp.o
                0x9d026754                TCPIP_UDP_SourceIPAddressSet

.text.TCPIP_Helper_ProtectedSingleListRemoveAll
                0x9d0267dc       0x88
 .text.TCPIP_Helper_ProtectedSingleListRemoveAll
                0x9d0267dc       0x88 build/pic32mx/debug/_ext/1408260596/tcpip_helpers.o
                0x9d0267dc                TCPIP_Helper_ProtectedSingleListRemoveAll

.text._USB_DEVICE_GetFunctionDriverEntryByInterface
                0x9d026864       0x88
 .text._USB_DEVICE_GetFunctionDriverEntryByInterface
                0x9d026864       0x88 build/pic32mx/debug/_ext/610166344/usb_device.o
                0x9d026864                _USB_DEVICE_GetFunctionDriverEntryByInterface

.text._USB_DEVICE_FindEndpoint
                0x9d0268ec       0x88
 .text._USB_DEVICE_FindEndpoint
                0x9d0268ec       0x88 build/pic32mx/debug/_ext/610166344/usb_device.o
                0x9d0268ec                _USB_DEVICE_FindEndpoint

.text.libm      0x9d026974       0x88
 .text.libm     0x9d026974       0x88 c:/program files (x86)/microchip/xc32/v1.40/bin/bin/../../lib/gcc/pic32mx/4.8.3/../../../../pic32mx/lib\libm.a(fpfrexp.o)
                0x9d026974                frexpf
                0x9d026974                fpfrexp

.text.DRV_ETHPHY_VendorSMIReadResultGet
                0x9d0269fc       0x84
 .text.DRV_ETHPHY_VendorSMIReadResultGet
                0x9d0269fc       0x84 build/pic32mx/debug/_ext/732687875/drv_ethphy.o
                0x9d0269fc                DRV_ETHPHY_VendorSMIReadResultGet

.text._DRV_TMR_ModuleObj
                0x9d026a80       0x84
 .text._DRV_TMR_ModuleObj
                0x9d026a80       0x84 build/pic32mx/debug/_ext/185269848/drv_tmr.o

.text.DRV_USBFS_DEVICE_Attach
                0x9d026b04       0x84
 .text.DRV_USBFS_DEVICE_Attach
                0x9d026b04       0x84 build/pic32mx/debug/_ext/764219029/drv_usbfs_device.o
                0x9d026b04                DRV_USBFS_DEVICE_Attach

.text.ReadCommandCharacter
                0x9d026b88       0x84
 .text.ReadCommandCharacter
                0x9d026b88       0x84 build/pic32mx/debug/_ext/425903153/sys_command.o

.text._TcpClientSocketConnect
                0x9d026c0c       0x84
 .text._TcpClientSocketConnect
                0x9d026c0c       0x84 build/pic32mx/debug/_ext/1408260596/tcp.o

.text.zgzc_wait_for
                0x9d026c90       0x84
 .text.zgzc_wait_for
                0x9d026c90       0x84 build/pic32mx/debug/_ext/1408260596/zero_conf_helper.o
                0x9d026c90                zgzc_wait_for

.text._TCPIP_AnnounceCleanup
                0x9d026d14       0x84
 .text._TCPIP_AnnounceCleanup
                0x9d026d14       0x84 build/pic32mx/debug/_ext/1408260596/tcpip_announce.o

.text.TCPIP_STACK_NetHandleGet
                0x9d026d98       0x84
 .text.TCPIP_STACK_NetHandleGet
                0x9d026d98       0x84 build/pic32mx/debug/_ext/1408260596/tcpip_manager.o
                0x9d026d98                TCPIP_STACK_NetHandleGet

.text.TCPIP_PKT_Initialize
                0x9d026e1c       0x84
 .text.TCPIP_PKT_Initialize
                0x9d026e1c       0x84 build/pic32mx/debug/_ext/1408260596/tcpip_packet.o
                0x9d026e1c                TCPIP_PKT_Initialize

.text.USB_DEVICE_ControlSend
                0x9d026ea0       0x84
 .text.USB_DEVICE_ControlSend
                0x9d026ea0       0x84 build/pic32mx/debug/_ext/610166344/usb_device.o
                0x9d026ea0                USB_DEVICE_ControlSend

.text._DRV_ETHPHY_SetupPhaseNegotiate_SubPhase1
                0x9d026f24       0x80
 .text._DRV_ETHPHY_SetupPhaseNegotiate_SubPhase1
                0x9d026f24       0x80 build/pic32mx/debug/_ext/732687875/drv_ethphy.o

.text.DRV_USBFS_Tasks_ISR
                0x9d026fa4       0x80
 .text.DRV_USBFS_Tasks_ISR
                0x9d026fa4       0x80 build/pic32mx/debug/_ext/764219029/drv_usbfs.o
                0x9d026fa4                DRV_USBFS_Tasks_ISR

.text.SYS_CONSOLE_Read
                0x9d027024       0x80
 .text.SYS_CONSOLE_Read
                0x9d027024       0x80 build/pic32mx/debug/_ext/30809027/sys_console.o
                0x9d027024                SYS_CONSOLE_Read

.text.SYS_TMR_SystemCountGet
                0x9d0270a4       0x80
 .text.SYS_TMR_SystemCountGet
                0x9d0270a4       0x80 build/pic32mx/debug/_ext/1264926591/sys_tmr.o
                0x9d0270a4                SYS_TMR_SystemCountGet

.text.TCPIP_DNS_OAHASH_KeyCopy
                0x9d027124       0x80
 .text.TCPIP_DNS_OAHASH_KeyCopy
                0x9d027124       0x80 build/pic32mx/debug/_ext/1408260596/dns.o

.text.fptoli    0x9d0271a4       0x80
 .text.fptoli   0x9d0271a4       0x80 c:/program files (x86)/microchip/xc32/v1.40/bin/bin/../../lib/gcc/pic32mx/4.8.3/../../../../pic32mx/lib\libm.a(fptoli.o)
                0x9d0271a4                fptoli
                0x9d0271a4                fptosi
                0x9d0271a4                __fixsfsi

.text.Arc4SetKey
                0x9d027224       0x7c
 .text.Arc4SetKey
                0x9d027224       0x7c build/pic32mx/debug/_ext/1886890887/arc4.o
                0x9d027224                Arc4SetKey

.text._DRV_ETHPHY_SetupPhaseNegotiate_SubPhase5
                0x9d0272a0       0x7c
 .text._DRV_ETHPHY_SetupPhaseNegotiate_SubPhase5
                0x9d0272a0       0x7c build/pic32mx/debug/_ext/732687875/drv_ethphy.o

.text.CommandCleanup
                0x9d02731c       0x7c
 .text.CommandCleanup
                0x9d02731c       0x7c build/pic32mx/debug/_ext/425903153/sys_command.o

.text._TCP_EphemeralPortAllocate
                0x9d027398       0x7c
 .text._TCP_EphemeralPortAllocate
                0x9d027398       0x7c build/pic32mx/debug/_ext/1408260596/tcp.o

.text._UDPAllocateEphemeralPort
                0x9d027414       0x7c
 .text._UDPAllocateEphemeralPort
                0x9d027414       0x7c build/pic32mx/debug/_ext/1408260596/udp.o

.text.TCPIP_ARP_Deinitialize
                0x9d027490       0x7c
 .text.TCPIP_ARP_Deinitialize
                0x9d027490       0x7c build/pic32mx/debug/_ext/1408260596/arp.o
                0x9d027490                TCPIP_ARP_Deinitialize

.text._DHCPOptionHostName
                0x9d02750c       0x7c
 .text._DHCPOptionHostName
                0x9d02750c       0x7c build/pic32mx/debug/_ext/1408260596/dhcp.o

.text.TCPIP_DNS_RemoveEntry
                0x9d027588       0x7c
 .text.TCPIP_DNS_RemoveEntry
                0x9d027588       0x7c build/pic32mx/debug/_ext/1408260596/dns.o
                0x9d027588                TCPIP_DNS_RemoveEntry

.text.DNS_DhcpNotify
                0x9d027604       0x7c
 .text.DNS_DhcpNotify
                0x9d027604       0x7c build/pic32mx/debug/_ext/1408260596/dns.o

.text._TCPIPStackAnyNetLinked
                0x9d027680       0x7c
 .text._TCPIPStackAnyNetLinked
                0x9d027680       0x7c build/pic32mx/debug/_ext/1408260596/tcpip_manager.o
                0x9d027680                _TCPIPStackAnyNetLinked

.text.USB_DEVICE_ControlStatus
                0x9d0276fc       0x7c
 .text.USB_DEVICE_ControlStatus
                0x9d0276fc       0x7c build/pic32mx/debug/_ext/610166344/usb_device.o
                0x9d0276fc                USB_DEVICE_ControlStatus

.text.PLIB_ETH_MACGetAddress
                0x9d027778       0x7c
 .text.PLIB_ETH_MACGetAddress
                0x9d027778       0x7c ..\..\..\..\bin\framework\peripheral\PIC32MX795F512L_peripherals.a(plib_eth_lib.o)
                0x9d027778                PLIB_ETH_MACGetAddress

.text.fptoul    0x9d0277f4       0x7c
 .text.fptoul   0x9d0277f4       0x7c c:/program files (x86)/microchip/xc32/v1.40/bin/bin/../../lib/gcc/pic32mx/4.8.3/../../../../pic32mx/lib\libm.a(fptoul.o)
                0x9d0277f4                fptoul
                0x9d0277f4                fptoui
                0x9d0277f4                __fixunssfsi

.text._DRV_ETHMAC_LinkStateNegComplete
                0x9d027870       0x78
 .text._DRV_ETHMAC_LinkStateNegComplete
                0x9d027870       0x78 build/pic32mx/debug/_ext/1908841681/drv_ethmac.o

.text.DRV_ETHPHY_Open
                0x9d0278e8       0x78
 .text.DRV_ETHPHY_Open
                0x9d0278e8       0x78 build/pic32mx/debug/_ext/732687875/drv_ethphy.o
                0x9d0278e8                DRV_ETHPHY_Open

.text._DRV_ETHPHY_NegRestartPhaseRead
                0x9d027960       0x78
 .text._DRV_ETHPHY_NegRestartPhaseRead
                0x9d027960       0x78 build/pic32mx/debug/_ext/732687875/drv_ethphy.o

.text.DRV_USBFS_ClientEventCallBackSet
                0x9d0279d8       0x78
 .text.DRV_USBFS_ClientEventCallBackSet
                0x9d0279d8       0x78 build/pic32mx/debug/_ext/764219029/drv_usbfs.o
                0x9d0279d8                DRV_USBFS_ClientEventCallBackSet

.text.SYS_CONSOLE_Initialize
                0x9d027a50       0x78
 .text.SYS_CONSOLE_Initialize
                0x9d027a50       0x78 build/pic32mx/debug/_ext/30809027/sys_console.o
                0x9d027a50                SYS_CONSOLE_Initialize

.text._Tcpv4TxAckFnc
                0x9d027ac8       0x78
 .text._Tcpv4TxAckFnc
                0x9d027ac8       0x78 build/pic32mx/debug/_ext/1408260596/tcp.o

.text.TCPIP_UDP_Close
                0x9d027b40       0x78
 .text.TCPIP_UDP_Close
                0x9d027b40       0x78 build/pic32mx/debug/_ext/1408260596/udp.o
                0x9d027b40                TCPIP_UDP_Close

.rodata         0x9d027bb8       0x78
 .rodata        0x9d027bb8       0x78 build/pic32mx/debug/_ext/1408260596/dhcp.o

.text.TCPIP_ANNOUNCE_Task
                0x9d027c30       0x78
 .text.TCPIP_ANNOUNCE_Task
                0x9d027c30       0x78 build/pic32mx/debug/_ext/1408260596/tcpip_announce.o
                0x9d027c30                TCPIP_ANNOUNCE_Task

.rodata         0x9d027ca8       0x78
 .rodata        0x9d027ca8       0x78 build/pic32mx/debug/_ext/1408260596/tcpip_helpers.o

.text.DRV_ETHMAC_PIC32MACConfigGet
                0x9d027d20       0x74
 .text.DRV_ETHMAC_PIC32MACConfigGet
                0x9d027d20       0x74 build/pic32mx/debug/_ext/1908841681/drv_ethmac.o
                0x9d027d20                DRV_ETHMAC_PIC32MACConfigGet

.text._DRV_ETHPHY_NegCompletePhaseRead1
                0x9d027d94       0x74
 .text._DRV_ETHPHY_NegCompletePhaseRead1
                0x9d027d94       0x74 build/pic32mx/debug/_ext/732687875/drv_ethphy.o

.text.DRV_NVM_CommandStatus
                0x9d027e08       0x74
 .text.DRV_NVM_CommandStatus
                0x9d027e08       0x74 build/pic32mx/debug/_ext/571308596/drv_nvm.o
                0x9d027e08                DRV_NVM_CommandStatus

.text.USBDeviceEventHandler
                0x9d027e7c       0x74
 .text.USBDeviceEventHandler
                0x9d027e7c       0x74 build/pic32mx/debug/_ext/30809027/sys_console_usb_cdc.o
                0x9d027e7c                USBDeviceEventHandler

.text.MPFSGetSize
                0x9d027ef0       0x74
 .text.MPFSGetSize
                0x9d027ef0       0x74 build/pic32mx/debug/_ext/850537704/mpfs.o
                0x9d027ef0                MPFSGetSize

.text.MPFSGetStartAddr
                0x9d027f64       0x74
 .text.MPFSGetStartAddr
                0x9d027f64       0x74 build/pic32mx/debug/_ext/850537704/mpfs.o
                0x9d027f64                MPFSGetStartAddr

.text._TcpSwapHeader
                0x9d027fd8       0x74
 .text._TcpSwapHeader
                0x9d027fd8       0x74 build/pic32mx/debug/_ext/1408260596/tcp.o

.text._DHCPOptionProcessSubNet
                0x9d02804c       0x74
 .text._DHCPOptionProcessSubNet
                0x9d02804c       0x74 build/pic32mx/debug/_ext/1408260596/dhcp.o

.text._DHCPOptionProcessRouter
                0x9d0280c0       0x74
 .text._DHCPOptionProcessRouter
                0x9d0280c0       0x74 build/pic32mx/debug/_ext/1408260596/dhcp.o

.text.TCPIP_Helper_StringToPowerMode
                0x9d028134       0x74
 .text.TCPIP_Helper_StringToPowerMode
                0x9d028134       0x74 build/pic32mx/debug/_ext/1408260596/tcpip_helpers.o
                0x9d028134                TCPIP_Helper_StringToPowerMode

.text.TCPIP_Helper_ProtectedSingleListTailAdd
                0x9d0281a8       0x74
 .text.TCPIP_Helper_ProtectedSingleListTailAdd
                0x9d0281a8       0x74 build/pic32mx/debug/_ext/1408260596/tcpip_helpers.o
                0x9d0281a8                TCPIP_Helper_ProtectedSingleListTailAdd

.text.TCPIP_Helper_ProtectedSingleListHeadRemove
                0x9d02821c       0x74
 .text.TCPIP_Helper_ProtectedSingleListHeadRemove
                0x9d02821c       0x74 build/pic32mx/debug/_ext/1408260596/tcpip_helpers.o
                0x9d02821c                TCPIP_Helper_ProtectedSingleListHeadRemove

.text.TCPIP_Helper_ProtectedSingleListNodeRemove
                0x9d028290       0x74
 .text.TCPIP_Helper_ProtectedSingleListNodeRemove
                0x9d028290       0x74 build/pic32mx/debug/_ext/1408260596/tcpip_helpers.o
                0x9d028290                TCPIP_Helper_ProtectedSingleListNodeRemove

.text._TCPIP_PKT_SocketAlloc
                0x9d028304       0x74
 .text._TCPIP_PKT_SocketAlloc
                0x9d028304       0x74 build/pic32mx/debug/_ext/1408260596/tcpip_packet.o
                0x9d028304                _TCPIP_PKT_SocketAlloc

.text.strncpy   0x9d028378       0x74
 .text.strncpy  0x9d028378       0x74 c:/program files (x86)/microchip/xc32/v1.40/bin/bin/../../lib/gcc/pic32mx/4.8.3/../../../../pic32mx/lib\libc.a(strncpy.o)
                0x9d028378                strncpy

.text.SYS_Tasks
                0x9d0283ec       0x70
 .text.SYS_Tasks
                0x9d0283ec       0x70 build/pic32mx/debug/_ext/435813987/system_tasks.o
                0x9d0283ec                SYS_Tasks

.text.Arc4Process
                0x9d02845c       0x70
 .text.Arc4Process
                0x9d02845c       0x70 build/pic32mx/debug/_ext/1886890887/arc4.o
                0x9d02845c                Arc4Process

.text._EnetPoolFreeDcptList
                0x9d0284cc       0x70
 .text._EnetPoolFreeDcptList
                0x9d0284cc       0x70 build/pic32mx/debug/_ext/1908841681/drv_ethmac_lib.o

.text._DRV_ETHPHY_LinkStatPhaseRefresh
                0x9d02853c       0x70
 .text._DRV_ETHPHY_LinkStatPhaseRefresh
                0x9d02853c       0x70 build/pic32mx/debug/_ext/732687875/drv_ethphy.o

.text.CommandQuit
                0x9d0285ac       0x70
 .text.CommandQuit
                0x9d0285ac       0x70 build/pic32mx/debug/_ext/425903153/sys_command.o

.text.SYS_FS_FileTell
                0x9d02861c       0x70
 .text.SYS_FS_FileTell
                0x9d02861c       0x70 build/pic32mx/debug/_ext/2104899551/sys_fs.o
                0x9d02861c                SYS_FS_FileTell

.text.SYS_FS_FileSize
                0x9d02868c       0x70
 .text.SYS_FS_FileSize
                0x9d02868c       0x70 build/pic32mx/debug/_ext/2104899551/sys_fs.o
                0x9d02868c                SYS_FS_FileSize

.text.TCPIP_UDP_SocketNetSet
                0x9d0286fc       0x70
 .text.TCPIP_UDP_SocketNetSet
                0x9d0286fc       0x70 build/pic32mx/debug/_ext/1408260596/udp.o
                0x9d0286fc                TCPIP_UDP_SocketNetSet

.text._ARPSetEntry
                0x9d02876c       0x70
 .text._ARPSetEntry
                0x9d02876c       0x70 build/pic32mx/debug/_ext/1408260596/arp.o

.text._ARPRemoveEntry
                0x9d0287dc       0x70
 .text._ARPRemoveEntry
                0x9d0287dc       0x70 build/pic32mx/debug/_ext/1408260596/arp.o

.text.TCPIP_ARP_HandlerRegister
                0x9d02884c       0x70
 .text.TCPIP_ARP_HandlerRegister
                0x9d02884c       0x70 build/pic32mx/debug/_ext/1408260596/arp.o
                0x9d02884c                TCPIP_ARP_HandlerRegister

.text.TCPIP_DNS_GetArrayOfDataFromUDPBuff
                0x9d0288bc       0x70
 .text.TCPIP_DNS_GetArrayOfDataFromUDPBuff
                0x9d0288bc       0x70 build/pic32mx/debug/_ext/1408260596/dns.o

.text.TCPIP_SNTP_Deinitialize
                0x9d02892c       0x70
 .text.TCPIP_SNTP_Deinitialize
                0x9d02892c       0x70 build/pic32mx/debug/_ext/1408260596/sntp.o
                0x9d02892c                TCPIP_SNTP_Deinitialize

.text._USB_DEVICE_CDC_Deinitialization
                0x9d02899c       0x70
 .text._USB_DEVICE_CDC_Deinitialization
                0x9d02899c       0x70 build/pic32mx/debug/_ext/610166344/usb_device_cdc.o
                0x9d02899c                _USB_DEVICE_CDC_Deinitialization

.text.strncmp   0x9d028a0c       0x70
 .text.strncmp  0x9d028a0c       0x70 c:/program files (x86)/microchip/xc32/v1.40/bin/bin/../../lib/gcc/pic32mx/4.8.3/../../../../pic32mx/lib\libc.a(strncmp.o)
                0x9d028a0c                strncmp

.text._MacRxFreeCallback
                0x9d028a7c       0x6c
 .text._MacRxFreeCallback
                0x9d028a7c       0x6c build/pic32mx/debug/_ext/1908841681/drv_ethmac.o

.text._DRV_ETHPHY_SetupPhaseNegotiate_SubPhase2
                0x9d028ae8       0x6c
 .text._DRV_ETHPHY_SetupPhaseNegotiate_SubPhase2
                0x9d028ae8       0x6c build/pic32mx/debug/_ext/732687875/drv_ethphy.o

.text.DRV_USBFS_DEVICE_Detach
                0x9d028b54       0x6c
 .text.DRV_USBFS_DEVICE_Detach
                0x9d028b54       0x6c build/pic32mx/debug/_ext/764219029/drv_usbfs_device.o
                0x9d028b54                DRV_USBFS_DEVICE_Detach

.text._UDPClose
                0x9d028bc0       0x6c
 .text._UDPClose
                0x9d028bc0       0x6c build/pic32mx/debug/_ext/1408260596/udp.o

.text.TCPIP_DHCP_HandlerRegister
                0x9d028c2c       0x6c
 .text.TCPIP_DHCP_HandlerRegister
                0x9d028c2c       0x6c build/pic32mx/debug/_ext/1408260596/dhcp.o
                0x9d028c2c                TCPIP_DHCP_HandlerRegister

.text._HTTP_Cleanup
                0x9d028c98       0x6c
 .text._HTTP_Cleanup
                0x9d028c98       0x6c build/pic32mx/debug/_ext/1408260596/http.o

.text.TCPIP_ANNOUNCE_DeInit
                0x9d028d04       0x6c
 .text.TCPIP_ANNOUNCE_DeInit
                0x9d028d04       0x6c build/pic32mx/debug/_ext/1408260596/tcpip_announce.o
                0x9d028d04                TCPIP_ANNOUNCE_DeInit

.text.TCPIP_Helper_ProtectedSingleListDeinitialize
                0x9d028d70       0x6c
 .text.TCPIP_Helper_ProtectedSingleListDeinitialize
                0x9d028d70       0x6c build/pic32mx/debug/_ext/1408260596/tcpip_helpers.o
                0x9d028d70                TCPIP_Helper_ProtectedSingleListDeinitialize

.text.TCPIP_IPV4_Initialize
                0x9d028ddc       0x6c
 .text.TCPIP_IPV4_Initialize
                0x9d028ddc       0x6c build/pic32mx/debug/_ext/1408260596/ipv4.o
                0x9d028ddc                TCPIP_IPV4_Initialize

.text.strncat   0x9d028e48       0x6c
 .text.strncat  0x9d028e48       0x6c c:/program files (x86)/microchip/xc32/v1.40/bin/bin/../../lib/gcc/pic32mx/4.8.3/../../../../pic32mx/lib\libc.a(strncat.o)
                0x9d028e48                strncat

.text.SYS_PORTS_Initialize
                0x9d028eb4       0x68
 .text.SYS_PORTS_Initialize
                0x9d028eb4       0x68 build/pic32mx/debug/_ext/148571690/sys_ports_static.o
                0x9d028eb4                SYS_PORTS_Initialize

.text.DRV_NVM_Erase
                0x9d028f1c       0x68
 .text.DRV_NVM_Erase
                0x9d028f1c       0x68 build/pic32mx/debug/_ext/571308596/drv_nvm.o
                0x9d028f1c                DRV_NVM_Erase

.text._DRV_USBFS_DEVICE_IRPQueueFlush
                0x9d028f84       0x68
 .text._DRV_USBFS_DEVICE_IRPQueueFlush
                0x9d028f84       0x68 build/pic32mx/debug/_ext/764219029/drv_usbfs_device.o
                0x9d028f84                _DRV_USBFS_DEVICE_IRPQueueFlush

.text.TCPIP_TCP_Close
                0x9d028fec       0x68
 .text.TCPIP_TCP_Close
                0x9d028fec       0x68 build/pic32mx/debug/_ext/1408260596/tcp.o
                0x9d028fec                TCPIP_TCP_Close

.text._TCP_PayloadSet
                0x9d029054       0x68
 .text._TCP_PayloadSet
                0x9d029054       0x68 build/pic32mx/debug/_ext/1408260596/tcp.o

.text.TCPIP_UDP_OpenClientSkt
                0x9d0290bc       0x68
 .text.TCPIP_UDP_OpenClientSkt
                0x9d0290bc       0x68 build/pic32mx/debug/_ext/1408260596/udp.o
                0x9d0290bc                TCPIP_UDP_OpenClientSkt

.text.TCPIP_ARP_HashEntryDelete
                0x9d029124       0x68
 .text.TCPIP_ARP_HashEntryDelete
                0x9d029124       0x68 build/pic32mx/debug/_ext/1408260596/arp.o
                0x9d029124                TCPIP_ARP_HashEntryDelete

.text._DHCPSetTimeout
                0x9d02918c       0x68
 .text._DHCPSetTimeout
                0x9d02918c       0x68 build/pic32mx/debug/_ext/1408260596/dhcp.o

.text._ZCLLEnable
                0x9d0291f4       0x68
 .text._ZCLLEnable
                0x9d0291f4       0x68 build/pic32mx/debug/_ext/1408260596/zero_conf_link_local.o

.text.TCPIP_ZCLL_Enable
                0x9d02925c       0x68
 .text.TCPIP_ZCLL_Enable
                0x9d02925c       0x68 build/pic32mx/debug/_ext/1408260596/zero_conf_link_local.o
                0x9d02925c                TCPIP_ZCLL_Enable

.text.TCPIP_STACK_IsBcastAddress
                0x9d0292c4       0x68
 .text.TCPIP_STACK_IsBcastAddress
                0x9d0292c4       0x68 build/pic32mx/debug/_ext/1408260596/tcpip_manager.o
                0x9d0292c4                TCPIP_STACK_IsBcastAddress

.text._TCPIPStackInsertRxPacket
                0x9d02932c       0x68
 .text._TCPIPStackInsertRxPacket
                0x9d02932c       0x68 build/pic32mx/debug/_ext/1408260596/tcpip_manager.o
                0x9d02932c                _TCPIPStackInsertRxPacket

.text._sprintf_cdnopsuxX
                0x9d029394       0x68
 .text._sprintf_cdnopsuxX
                0x9d029394       0x68 c:/program files (x86)/microchip/xc32/v1.40/bin/bin/../../lib/gcc/pic32mx/4.8.3/../../../../pic32mx/lib\libc.a(sprintf_cdnopsuxX.eo)
                0x9d029394                _sprintf_cdnopuxX
                0x9d029394                _sprintf_cdnopsuxX

.rodata         0x9d0293fc       0x68
 .rodata        0x9d0293fc       0x68 c:/program files (x86)/microchip/xc32/v1.40/bin/bin/../../lib/gcc/pic32mx/4.8.3/../../../../pic32mx/lib\libc.a(powersf.o)
                0x9d0293fc                _powers_f
                0x9d029430                _npowers_f

.text.DRV_TMR_Start
                0x9d029464       0x64
 .text.DRV_TMR_Start
                0x9d029464       0x64 build/pic32mx/debug/_ext/185269848/drv_tmr.o
                0x9d029464                DRV_TMR_Start

.text.SendCommandCharacter
                0x9d0294c8       0x64
 .text.SendCommandCharacter
                0x9d0294c8       0x64 build/pic32mx/debug/_ext/425903153/sys_command.o

.text.TCPIP_TCP_Discard
                0x9d02952c       0x64
 .text.TCPIP_TCP_Discard
                0x9d02952c       0x64 build/pic32mx/debug/_ext/1408260596/tcp.o
                0x9d02952c                TCPIP_TCP_Discard

.text.TCPIP_UDP_GetIsReady
                0x9d029590       0x64
 .text.TCPIP_UDP_GetIsReady
                0x9d029590       0x64 build/pic32mx/debug/_ext/1408260596/udp.o
                0x9d029590                TCPIP_UDP_GetIsReady

.text._DHCPCleanup
                0x9d0295f4       0x64
 .text._DHCPCleanup
                0x9d0295f4       0x64 build/pic32mx/debug/_ext/1408260596/dhcp.o

.text.TCPIP_DHCP_Deinitialize
                0x9d029658       0x64
 .text.TCPIP_DHCP_Deinitialize
                0x9d029658       0x64 build/pic32mx/debug/_ext/1408260596/dhcp.o
                0x9d029658                TCPIP_DHCP_Deinitialize

.text.InitRng   0x9d0296bc       0x60
 .text.InitRng  0x9d0296bc       0x60 build/pic32mx/debug/_ext/1886890887/random.o
                0x9d0296bc                InitRng

.text.DRV_ETHMAC_PIC32MACParametersGet
                0x9d02971c       0x60
 .text.DRV_ETHMAC_PIC32MACParametersGet
                0x9d02971c       0x60 build/pic32mx/debug/_ext/1908841681/drv_ethmac.o
                0x9d02971c                DRV_ETHMAC_PIC32MACParametersGet

.text._DRV_ETHPHY_SetupPhaseNegotiate
                0x9d02977c       0x60
 .text._DRV_ETHPHY_SetupPhaseNegotiate
                0x9d02977c       0x60 build/pic32mx/debug/_ext/732687875/drv_ethphy.o

.text._DRV_ETHPHY_ClientOpNegRestart
                0x9d0297dc       0x60
 .text._DRV_ETHPHY_ClientOpNegRestart
                0x9d0297dc       0x60 build/pic32mx/debug/_ext/732687875/drv_ethphy.o

.text._DRV_ETHPHY_ClientOpNegComplete
                0x9d02983c       0x60
 .text._DRV_ETHPHY_ClientOpNegComplete
                0x9d02983c       0x60 build/pic32mx/debug/_ext/732687875/drv_ethphy.o

.text._DRV_ETHPHY_ClientOpNegResult
                0x9d02989c       0x60
 .text._DRV_ETHPHY_ClientOpNegResult
                0x9d02989c       0x60 build/pic32mx/debug/_ext/732687875/drv_ethphy.o

.text._DRV_ETHPHY_ClientOpLinkStat
                0x9d0298fc       0x60
 .text._DRV_ETHPHY_ClientOpLinkStat
                0x9d0298fc       0x60 build/pic32mx/debug/_ext/732687875/drv_ethphy.o

.text._DRV_ETHPHY_ClientOpReset
                0x9d02995c       0x60
 .text._DRV_ETHPHY_ClientOpReset
                0x9d02995c       0x60 build/pic32mx/debug/_ext/732687875/drv_ethphy.o

.text.SYS_FS_MEDIA_MANAGER_Register
                0x9d0299bc       0x60
 .text.SYS_FS_MEDIA_MANAGER_Register
                0x9d0299bc       0x60 build/pic32mx/debug/_ext/2104899551/sys_fs_media_manager.o
                0x9d0299bc                SYS_FS_MEDIA_MANAGER_Register

.text._TCPIsPutReady
                0x9d029a1c       0x60
 .text._TCPIsPutReady
                0x9d029a1c       0x60 build/pic32mx/debug/_ext/1408260596/tcp.o

.text.TCPIP_ARP_CallbacksRegister
                0x9d029a7c       0x60
 .text.TCPIP_ARP_CallbacksRegister
                0x9d029a7c       0x60 build/pic32mx/debug/_ext/1408260596/arp.o
                0x9d029a7c                TCPIP_ARP_CallbacksRegister

.text._DHCPOptionProcessMsgType
                0x9d029adc       0x60
 .text._DHCPOptionProcessMsgType
                0x9d029adc       0x60 build/pic32mx/debug/_ext/1408260596/dhcp.o

.text.IPv4RegisterFilter
                0x9d029b3c       0x60
 .text.IPv4RegisterFilter
                0x9d029b3c       0x60 build/pic32mx/debug/_ext/1408260596/ipv4.o
                0x9d029b3c                IPv4RegisterFilter

.text._USB_DEVICE_CDC_EndpointDisable
                0x9d029b9c       0x60
 .text._USB_DEVICE_CDC_EndpointDisable
                0x9d029b9c       0x60 build/pic32mx/debug/_ext/610166344/usb_device_cdc.o
                0x9d029b9c                _USB_DEVICE_CDC_EndpointDisable

.text.sitofp    0x9d029bfc       0x60
 .text.sitofp   0x9d029bfc       0x60 c:/program files (x86)/microchip/xc32/v1.40/bin/bin/../../lib/gcc/pic32mx/4.8.3/../../../../pic32mx/lib\libm.a(sitofp.o)
                0x9d029bfc                sitofp
                0x9d029bfc                litofp
                0x9d029bfc                __floatsisf

.text.TCPIP_HTTP_FileAuthenticate
                0x9d029c5c       0x5c
 .text.TCPIP_HTTP_FileAuthenticate
                0x9d029c5c       0x5c build/pic32mx/debug/_ext/1360937237/custom_http_app.o
                0x9d029c5c                TCPIP_HTTP_FileAuthenticate

.text._DRV_ETHPHY_ClientOpSetup
                0x9d029cb8       0x5c
 .text._DRV_ETHPHY_ClientOpSetup
                0x9d029cb8       0x5c build/pic32mx/debug/_ext/732687875/drv_ethphy.o

.text._DRV_ETHPHY_ClientOpSmiRead
                0x9d029d14       0x5c
 .text._DRV_ETHPHY_ClientOpSmiRead
                0x9d029d14       0x5c build/pic32mx/debug/_ext/732687875/drv_ethphy.o

.text.DRV_ETHPHY_NegotiationResultGet
                0x9d029d70       0x5c
 .text.DRV_ETHPHY_NegotiationResultGet
                0x9d029d70       0x5c build/pic32mx/debug/_ext/732687875/drv_ethphy.o
                0x9d029d70                DRV_ETHPHY_NegotiationResultGet

.text.DRV_ETHPHY_LinkStatusGet
                0x9d029dcc       0x5c
 .text.DRV_ETHPHY_LinkStatusGet
                0x9d029dcc       0x5c build/pic32mx/debug/_ext/732687875/drv_ethphy.o
                0x9d029dcc                DRV_ETHPHY_LinkStatusGet

.text.DRV_TMR_Open
                0x9d029e28       0x5c
 .text.DRV_TMR_Open
                0x9d029e28       0x5c build/pic32mx/debug/_ext/185269848/drv_tmr.o
                0x9d029e28                DRV_TMR_Open

.text.SYS_FS_MEDIA_MANAGER_CommandStatusGet
                0x9d029e84       0x5c
 .text.SYS_FS_MEDIA_MANAGER_CommandStatusGet
                0x9d029e84       0x5c build/pic32mx/debug/_ext/2104899551/sys_fs_media_manager.o
                0x9d029e84                SYS_FS_MEDIA_MANAGER_CommandStatusGet

.text.TCPIP_ICMP_Initialize
                0x9d029ee0       0x5c
 .text.TCPIP_ICMP_Initialize
                0x9d029ee0       0x5c build/pic32mx/debug/_ext/1408260596/icmp.o
                0x9d029ee0                TCPIP_ICMP_Initialize

.text.fnv_32_hash
                0x9d029f3c       0x5c
 .text.fnv_32_hash
                0x9d029f3c       0x5c build/pic32mx/debug/_ext/1408260596/hash_fnv.o
                0x9d029f3c                fnv_32_hash

.text.TCPIP_OAHASH_EntriesRemoveAll
                0x9d029f98       0x5c
 .text.TCPIP_OAHASH_EntriesRemoveAll
                0x9d029f98       0x5c build/pic32mx/debug/_ext/1408260596/oahash.o
                0x9d029f98                TCPIP_OAHASH_EntriesRemoveAll

.text.TCPIP_STACK_MACIdToNet
                0x9d029ff4       0x5c
 .text.TCPIP_STACK_MACIdToNet
                0x9d029ff4       0x5c build/pic32mx/debug/_ext/1408260596/tcpip_manager.o
                0x9d029ff4                TCPIP_STACK_MACIdToNet

.text.vsnprintf
                0x9d02a050       0x5c
 .text.vsnprintf
                0x9d02a050       0x5c c:/program files (x86)/microchip/xc32/v1.40/bin/bin/../../lib/gcc/pic32mx/4.8.3/../../../../pic32mx/lib\libc.a(vsnprintf.o)
                0x9d02a050                vsnprintf

.text.SYS_CLK_Initialize
                0x9d02a0ac       0x58
 .text.SYS_CLK_Initialize
                0x9d02a0ac       0x58 build/pic32mx/debug/_ext/1482089478/sys_clk_static.o
                0x9d02a0ac                SYS_CLK_Initialize

.text.TCPIP_STACK_Init
                0x9d02a104       0x58
 .text.TCPIP_STACK_Init
                0x9d02a104       0x58 build/pic32mx/debug/_ext/435813987/system_init.o
                0x9d02a104                TCPIP_STACK_Init

.text.RNG_GenerateBlock
                0x9d02a15c       0x58
 .text.RNG_GenerateBlock
                0x9d02a15c       0x58 build/pic32mx/debug/_ext/1886890887/random.o
                0x9d02a15c                RNG_GenerateBlock

.text.DRV_ETHMAC_PIC32MACOpen
                0x9d02a1b4       0x58
 .text.DRV_ETHMAC_PIC32MACOpen
                0x9d02a1b4       0x58 build/pic32mx/debug/_ext/1908841681/drv_ethmac.o
                0x9d02a1b4                DRV_ETHMAC_PIC32MACOpen

.text.DRV_ETHMAC_PIC32MACLinkCheck
                0x9d02a20c       0x58
 .text.DRV_ETHMAC_PIC32MACLinkCheck
                0x9d02a20c       0x58 build/pic32mx/debug/_ext/1908841681/drv_ethmac.o
                0x9d02a20c                DRV_ETHMAC_PIC32MACLinkCheck

.text._MacTxDiscardQueues
                0x9d02a264       0x58
 .text._MacTxDiscardQueues
                0x9d02a264       0x58 build/pic32mx/debug/_ext/1908841681/drv_ethmac.o

.text.DRV_ETHPHY_Initialize
                0x9d02a2bc       0x58
 .text.DRV_ETHPHY_Initialize
                0x9d02a2bc       0x58 build/pic32mx/debug/_ext/732687875/drv_ethphy.o
                0x9d02a2bc                DRV_ETHPHY_Initialize

.text._DRV_NVM_WriteBufferObjProcess
                0x9d02a314       0x58
 .text._DRV_NVM_WriteBufferObjProcess
                0x9d02a314       0x58 build/pic32mx/debug/_ext/571308596/drv_nvm.o
                0x9d02a314                _DRV_NVM_WriteBufferObjProcess

.text.SendCommandMessage
                0x9d02a36c       0x58
 .text.SendCommandMessage
                0x9d02a36c       0x58 build/pic32mx/debug/_ext/425903153/sys_command.o

.text.SYS_DEVCON_SystemUnlock
                0x9d02a3c4       0x58
 .text.SYS_DEVCON_SystemUnlock
                0x9d02a3c4       0x58 build/pic32mx/debug/_ext/1271179505/sys_devcon.o
                0x9d02a3c4                SYS_DEVCON_SystemUnlock

.text.SYS_INT_SourceDisable
                0x9d02a41c       0x58
 .text.SYS_INT_SourceDisable
                0x9d02a41c       0x58 build/pic32mx/debug/_ext/122796885/sys_int_pic32.o
                0x9d02a41c                SYS_INT_SourceDisable

.text._TcpSocketKill
                0x9d02a474       0x58
 .text._TcpSocketKill
                0x9d02a474       0x58 build/pic32mx/debug/_ext/1408260596/tcp.o

.text._TCPSocketTxFreeSize
                0x9d02a4cc       0x58
 .text._TCPSocketTxFreeSize
                0x9d02a4cc       0x58 build/pic32mx/debug/_ext/1408260596/tcp.o

.text._TCP_PortIsAvailable
                0x9d02a524       0x58
 .text._TCP_PortIsAvailable
                0x9d02a524       0x58 build/pic32mx/debug/_ext/1408260596/tcp.o

.text._DHCPOptionProcessLease
                0x9d02a57c       0x58
 .text._DHCPOptionProcessLease
                0x9d02a57c       0x58 build/pic32mx/debug/_ext/1408260596/dhcp.o

.text._DHCPOptionProcessRenewT
                0x9d02a5d4       0x58
 .text._DHCPOptionProcessRenewT
                0x9d02a5d4       0x58 build/pic32mx/debug/_ext/1408260596/dhcp.o

.text._DHCPOptionProcessRebindT
                0x9d02a62c       0x58
 .text._DHCPOptionProcessRebindT
                0x9d02a62c       0x58 build/pic32mx/debug/_ext/1408260596/dhcp.o

.text.TCPIP_HTTP_PostNameRead
                0x9d02a684       0x58
 .text.TCPIP_HTTP_PostNameRead
                0x9d02a684       0x58 build/pic32mx/debug/_ext/1408260596/http.o
                0x9d02a684                TCPIP_HTTP_PostNameRead

.text.TCPIP_ZCLL_Deinitialize
                0x9d02a6dc       0x58
 .text.TCPIP_ZCLL_Deinitialize
                0x9d02a6dc       0x58 build/pic32mx/debug/_ext/1408260596/zero_conf_link_local.o
                0x9d02a6dc                TCPIP_ZCLL_Deinitialize

.text.TCPIP_STACK_NetByAddress
                0x9d02a734       0x58
 .text.TCPIP_STACK_NetByAddress
                0x9d02a734       0x58 build/pic32mx/debug/_ext/1408260596/tcpip_manager.o
                0x9d02a734                TCPIP_STACK_NetByAddress

.text.USB_DEVICE_EventHandlerSet
                0x9d02a78c       0x58
 .text.USB_DEVICE_EventHandlerSet
                0x9d02a78c       0x58 build/pic32mx/debug/_ext/610166344/usb_device.o
                0x9d02a78c                USB_DEVICE_EventHandlerSet

.text.main_entry
                0x9d02a7e4       0x54
 .text.main_entry
                0x9d02a7e4       0x54 c:/program files (x86)/microchip/xc32/v1.40/bin/bin/../../lib/gcc/pic32mx/4.8.3/../../../../pic32mx/lib/./proc/32MX795F512L/crt0_mips32r2.o
                0x9d02a818                __crt0_exit

.text.TCPIP_HTTP_UserAuthenticate
                0x9d02a838       0x54
 .text.TCPIP_HTTP_UserAuthenticate
                0x9d02a838       0x54 build/pic32mx/debug/_ext/1360937237/custom_http_app.o
                0x9d02a838                TCPIP_HTTP_UserAuthenticate

.text._EnetDescriptorsCount
                0x9d02a88c       0x54
 .text._EnetDescriptorsCount
                0x9d02a88c       0x54 build/pic32mx/debug/_ext/1908841681/drv_ethmac_lib.o

.text.DRV_USBFS_Open
                0x9d02a8e0       0x54
 .text.DRV_USBFS_Open
                0x9d02a8e0       0x54 build/pic32mx/debug/_ext/764219029/drv_usbfs.o
                0x9d02a8e0                DRV_USBFS_Open

.text.SYS_TMR_ObjectDelete
                0x9d02a934       0x54
 .text.SYS_TMR_ObjectDelete
                0x9d02a934       0x54 build/pic32mx/debug/_ext/1264926591/sys_tmr.o
                0x9d02a934                SYS_TMR_ObjectDelete

.text.TCPIP_STACK_AddressServiceSelect
                0x9d02a988       0x54
 .text.TCPIP_STACK_AddressServiceSelect
                0x9d02a988       0x54 build/pic32mx/debug/_ext/1408260596/tcpip_manager.o
                0x9d02a988                TCPIP_STACK_AddressServiceSelect

.text.TCPIP_Notification_Remove
                0x9d02a9dc       0x54
 .text.TCPIP_Notification_Remove
                0x9d02a9dc       0x54 build/pic32mx/debug/_ext/1408260596/tcpip_notify.o
                0x9d02a9dc                TCPIP_Notification_Remove

.text._XtlEventsTcp2Eth
                0x9d02aa30       0x50
 .text._XtlEventsTcp2Eth
                0x9d02aa30       0x50 build/pic32mx/debug/_ext/1908841681/drv_ethmac.o

.text.DRV_ETHPHY_HWConfigFlagsGet
                0x9d02aa80       0x50
 .text.DRV_ETHPHY_HWConfigFlagsGet
                0x9d02aa80       0x50 build/pic32mx/debug/_ext/732687875/drv_ethphy.o
                0x9d02aa80                DRV_ETHPHY_HWConfigFlagsGet

.text._DRV_ETHPHY_NegResultPhase_ANEXP
                0x9d02aad0       0x50
 .text._DRV_ETHPHY_NegResultPhase_ANEXP
                0x9d02aad0       0x50 build/pic32mx/debug/_ext/732687875/drv_ethphy.o

.text._DRV_ETHPHY_NegResultPhase_ANLPAD
                0x9d02ab20       0x50
 .text._DRV_ETHPHY_NegResultPhase_ANLPAD
                0x9d02ab20       0x50 build/pic32mx/debug/_ext/732687875/drv_ethphy.o

.text.Console_USB_Flush
                0x9d02ab70       0x50
 .text.Console_USB_Flush
                0x9d02ab70       0x50 build/pic32mx/debug/_ext/30809027/sys_console_usb_cdc.o
                0x9d02ab70                Console_USB_Flush

.text._TCPSetSourceAddress
                0x9d02abc0       0x50
 .text._TCPSetSourceAddress
                0x9d02abc0       0x50 build/pic32mx/debug/_ext/1408260596/tcp.o

.text.TCPIP_TCP_Flush
                0x9d02ac10       0x50
 .text.TCPIP_TCP_Flush
                0x9d02ac10       0x50 build/pic32mx/debug/_ext/1408260596/tcp.o
                0x9d02ac10                TCPIP_TCP_Flush

.text._TcpFlush
                0x9d02ac60       0x50
 .text._TcpFlush
                0x9d02ac60       0x50 build/pic32mx/debug/_ext/1408260596/tcp.o

.text.TCPIP_TCP_FifoRxFreeGet
                0x9d02acb0       0x50
 .text.TCPIP_TCP_FifoRxFreeGet
                0x9d02acb0       0x50 build/pic32mx/debug/_ext/1408260596/tcp.o
                0x9d02acb0                TCPIP_TCP_FifoRxFreeGet

.text._TCPSetHalfFlushFlag
                0x9d02ad00       0x50
 .text._TCPSetHalfFlushFlag
                0x9d02ad00       0x50 build/pic32mx/debug/_ext/1408260596/tcp.o

.text._DHCPOptionProcessSrvIdent
                0x9d02ad50       0x50
 .text._DHCPOptionProcessSrvIdent
                0x9d02ad50       0x50 build/pic32mx/debug/_ext/1408260596/dhcp.o

.text._DHCPOptionWriteParamRequest
                0x9d02ada0       0x50
 .text._DHCPOptionWriteParamRequest
                0x9d02ada0       0x50 build/pic32mx/debug/_ext/1408260596/dhcp.o

.text.TCPIP_DNS_OAHASH_KeyHash
                0x9d02adf0       0x50
 .text.TCPIP_DNS_OAHASH_KeyHash
                0x9d02adf0       0x50 build/pic32mx/debug/_ext/1408260596/dns.o

.text.TCPIP_NBNS_Deinitialize
                0x9d02ae40       0x50
 .text.TCPIP_NBNS_Deinitialize
                0x9d02ae40       0x50 build/pic32mx/debug/_ext/1408260596/nbns.o
                0x9d02ae40                TCPIP_NBNS_Deinitialize

.text._ZCLLDisable
                0x9d02ae90       0x50
 .text._ZCLLDisable
                0x9d02ae90       0x50 build/pic32mx/debug/_ext/1408260596/zero_conf_link_local.o

.text.TCPIP_HEAP_Delete
                0x9d02aee0       0x50
 .text.TCPIP_HEAP_Delete
                0x9d02aee0       0x50 build/pic32mx/debug/_ext/1408260596/tcpip_heap_alloc.o
                0x9d02aee0                TCPIP_HEAP_Delete

.text._TCPIP_PKT_PacketAcknowledge
                0x9d02af30       0x50
 .text._TCPIP_PKT_PacketAcknowledge
                0x9d02af30       0x50 build/pic32mx/debug/_ext/1408260596/tcpip_packet.o
                0x9d02af30                _TCPIP_PKT_PacketAcknowledge

.text.USB_DEVICE_Open
                0x9d02af80       0x50
 .text.USB_DEVICE_Open
                0x9d02af80       0x50 build/pic32mx/debug/_ext/610166344/usb_device.o
                0x9d02af80                USB_DEVICE_Open

.text.sbrk      0x9d02afd0       0x50
 .text.sbrk     0x9d02afd0       0x50 c:/program files (x86)/microchip/xc32/v1.40/bin/bin/../../lib/gcc/pic32mx/4.8.3/../../../../pic32mx/lib\libpic32.a(sbrk.o)
                0x9d02afd0                sbrk

.text._DRV_ETHMAC_LinkStateStartLink
                0x9d02b020       0x4c
 .text._DRV_ETHMAC_LinkStateStartLink
                0x9d02b020       0x4c build/pic32mx/debug/_ext/1908841681/drv_ethmac.o

.text._MACTxPacketAckCallback
                0x9d02b06c       0x4c
 .text._MACTxPacketAckCallback
                0x9d02b06c       0x4c build/pic32mx/debug/_ext/1908841681/drv_ethmac.o

.text._DRV_ETHPHY_SetupPhaseNegotiate_SubPhase4
                0x9d02b0b8       0x4c
 .text._DRV_ETHPHY_SetupPhaseNegotiate_SubPhase4
                0x9d02b0b8       0x4c build/pic32mx/debug/_ext/732687875/drv_ethphy.o

.text.DRV_ETHPHY_NegotiationIsComplete
                0x9d02b104       0x4c
 .text.DRV_ETHPHY_NegotiationIsComplete
                0x9d02b104       0x4c build/pic32mx/debug/_ext/732687875/drv_ethphy.o
                0x9d02b104                DRV_ETHPHY_NegotiationIsComplete

.text._DRV_PHY_NegCompleteSetOperResult
                0x9d02b150       0x4c
 .text._DRV_PHY_NegCompleteSetOperResult
                0x9d02b150       0x4c build/pic32mx/debug/_ext/732687875/drv_ethphy.o

.text.DRV_USBFS_DEVICE_SOFNumberGet
                0x9d02b19c       0x4c
 .text.DRV_USBFS_DEVICE_SOFNumberGet
                0x9d02b19c       0x4c build/pic32mx/debug/_ext/764219029/drv_usbfs_device.o
                0x9d02b19c                DRV_USBFS_DEVICE_SOFNumberGet

.text.SYS_CONSOLE_Tasks
                0x9d02b1e8       0x4c
 .text.SYS_CONSOLE_Tasks
                0x9d02b1e8       0x4c build/pic32mx/debug/_ext/30809027/sys_console.o
                0x9d02b1e8                SYS_CONSOLE_Tasks

.text.SYS_CONSOLE_Flush
                0x9d02b234       0x4c
 .text.SYS_CONSOLE_Flush
                0x9d02b234       0x4c build/pic32mx/debug/_ext/30809027/sys_console.o
                0x9d02b234                SYS_CONSOLE_Flush

.text.Console_USB_Status
                0x9d02b280       0x4c
 .text.Console_USB_Status
                0x9d02b280       0x4c build/pic32mx/debug/_ext/30809027/sys_console_usb_cdc.o
                0x9d02b280                Console_USB_Status

.text._ARPRemoveCacheEntries
                0x9d02b2cc       0x4c
 .text._ARPRemoveCacheEntries
                0x9d02b2cc       0x4c build/pic32mx/debug/_ext/1408260596/arp.o

.text.TCPIP_ICMP_Deinitialize
                0x9d02b318       0x4c
 .text.TCPIP_ICMP_Deinitialize
                0x9d02b318       0x4c build/pic32mx/debug/_ext/1408260596/icmp.o
                0x9d02b318                TCPIP_ICMP_Deinitialize

.text.TCPIP_NBNS_Cleanup
                0x9d02b364       0x4c
 .text.TCPIP_NBNS_Cleanup
                0x9d02b364       0x4c build/pic32mx/debug/_ext/1408260596/nbns.o

.text.TCPIP_SNTP_Cleanup
                0x9d02b3b0       0x4c
 .text.TCPIP_SNTP_Cleanup
                0x9d02b3b0       0x4c build/pic32mx/debug/_ext/1408260596/sntp.o

.text._TCPIP_HEAP_Calloc
                0x9d02b3fc       0x4c
 .text._TCPIP_HEAP_Calloc
                0x9d02b3fc       0x4c build/pic32mx/debug/_ext/1408260596/tcpip_heap_alloc.o
                0x9d02b3fc                _TCPIP_HEAP_Calloc

.text.TCPIP_STACK_StringToMACId
                0x9d02b448       0x4c
 .text.TCPIP_STACK_StringToMACId
                0x9d02b448       0x4c build/pic32mx/debug/_ext/1408260596/tcpip_manager.o
                0x9d02b448                TCPIP_STACK_StringToMACId

.text.TCPIP_Notification_Add
                0x9d02b494       0x4c
 .text.TCPIP_Notification_Add
                0x9d02b494       0x4c build/pic32mx/debug/_ext/1408260596/tcpip_notify.o
                0x9d02b494                TCPIP_Notification_Add

.text._USB_DEVICE_RedirectControlXfrToClient
                0x9d02b4e0       0x4c
 .text._USB_DEVICE_RedirectControlXfrToClient
                0x9d02b4e0       0x4c build/pic32mx/debug/_ext/610166344/usb_device.o
                0x9d02b4e0                _USB_DEVICE_RedirectControlXfrToClient

.text           0x9d02b52c       0x4c
 .text          0x9d02b52c       0x4c c:/program files (x86)/microchip/xc32/v1.40/bin/bin/../../lib/gcc/pic32mx/4.8.3\libgcc.a(floatunsisf.o)
                0x9d02b52c                __floatunsisf

.text.DRV_ETHPHY_Tasks
                0x9d02b578       0x48
 .text.DRV_ETHPHY_Tasks
                0x9d02b578       0x48 build/pic32mx/debug/_ext/732687875/drv_ethphy.o
                0x9d02b578                DRV_ETHPHY_Tasks

.text._DRV_ETHPHY_ClientOpSmiWrite
                0x9d02b5c0       0x48
 .text._DRV_ETHPHY_ClientOpSmiWrite
                0x9d02b5c0       0x48 build/pic32mx/debug/_ext/732687875/drv_ethphy.o

.text._DRV_ETHPHY_NegRestartPhaseWrite
                0x9d02b608       0x48
 .text._DRV_ETHPHY_NegRestartPhaseWrite
                0x9d02b608       0x48 build/pic32mx/debug/_ext/732687875/drv_ethphy.o

.text.SYS_DEVCON_SystemLock
                0x9d02b650       0x48
 .text.SYS_DEVCON_SystemLock
                0x9d02b650       0x48 build/pic32mx/debug/_ext/1271179505/sys_devcon.o
                0x9d02b650                SYS_DEVCON_SystemLock

.text.SYS_RESET_SoftwareReset
                0x9d02b698       0x48
 .text.SYS_RESET_SoftwareReset
                0x9d02b698       0x48 build/pic32mx/debug/_ext/813494389/sys_reset.o
                0x9d02b698                SYS_RESET_SoftwareReset

.text.SYS_FS_FileStat_Wrapper
                0x9d02b6e0       0x48
 .text.SYS_FS_FileStat_Wrapper
                0x9d02b6e0       0x48 build/pic32mx/debug/_ext/1136935090/sys_fs_wrapper.o
                0x9d02b6e0                SYS_FS_FileStat_Wrapper

.text.strupr    0x9d02b728       0x48
 .text.strupr   0x9d02b728       0x48 build/pic32mx/debug/_ext/1136935090/helpers.o
                0x9d02b728                strupr

.text.TCPIP_TCP_WasReset
                0x9d02b770       0x48
 .text.TCPIP_TCP_WasReset
                0x9d02b770       0x48 build/pic32mx/debug/_ext/1408260596/tcp.o
                0x9d02b770                TCPIP_TCP_WasReset

.text.TCPIP_TCP_StringPut
                0x9d02b7b8       0x48
 .text.TCPIP_TCP_StringPut
                0x9d02b7b8       0x48 build/pic32mx/debug/_ext/1408260596/tcp.o
                0x9d02b7b8                TCPIP_TCP_StringPut

.text.TCPIP_UDP_TxPointerGet
                0x9d02b800       0x48
 .text.TCPIP_UDP_TxPointerGet
                0x9d02b800       0x48 build/pic32mx/debug/_ext/1408260596/udp.o
                0x9d02b800                TCPIP_UDP_TxPointerGet

.text._UDPIsAvailablePort
                0x9d02b848       0x48
 .text._UDPIsAvailablePort
                0x9d02b848       0x48 build/pic32mx/debug/_ext/1408260596/udp.o

.rodata         0x9d02b890       0x48
 .rodata        0x9d02b890       0x48 build/pic32mx/debug/_ext/1408260596/arp.o

.text.TCPIP_ARP_HandlerDeRegister
                0x9d02b8d8       0x48
 .text.TCPIP_ARP_HandlerDeRegister
                0x9d02b8d8       0x48 build/pic32mx/debug/_ext/1408260596/arp.o
                0x9d02b8d8                TCPIP_ARP_HandlerDeRegister

.text._DHCPOptionWriteMsgType
                0x9d02b920       0x48
 .text._DHCPOptionWriteMsgType
                0x9d02b920       0x48 build/pic32mx/debug/_ext/1408260596/dhcp.o

.text.ANNOUNCE_Notify
                0x9d02b968       0x48
 .text.ANNOUNCE_Notify
                0x9d02b968       0x48 build/pic32mx/debug/_ext/1408260596/tcpip_announce.o

.text.TCPIP_Helper_ProtectedSingleListLock
                0x9d02b9b0       0x48
 .text.TCPIP_Helper_ProtectedSingleListLock
                0x9d02b9b0       0x48 build/pic32mx/debug/_ext/1408260596/tcpip_helpers.o
                0x9d02b9b0                TCPIP_Helper_ProtectedSingleListLock

.text.TCPIP_STACK_IPAddToNet
                0x9d02b9f8       0x48
 .text.TCPIP_STACK_IPAddToNet
                0x9d02b9f8       0x48 build/pic32mx/debug/_ext/1408260596/tcpip_manager.o
                0x9d02b9f8                TCPIP_STACK_IPAddToNet

.text.TCPIP_Notification_RemoveAll
                0x9d02ba40       0x48
 .text.TCPIP_Notification_RemoveAll
                0x9d02ba40       0x48 build/pic32mx/debug/_ext/1408260596/tcpip_notify.o
                0x9d02ba40                TCPIP_Notification_RemoveAll

.text.USB_DEVICE_ControlReceive
                0x9d02ba88       0x48
 .text.USB_DEVICE_ControlReceive
                0x9d02ba88       0x48 build/pic32mx/debug/_ext/610166344/usb_device.o
                0x9d02ba88                USB_DEVICE_ControlReceive

.text._bootstrap_exception_handler
                0x9d02bad0       0x48
 .text._bootstrap_exception_handler
                0x9d02bad0       0x48 c:/program files (x86)/microchip/xc32/v1.40/bin/bin/../../lib/gcc/pic32mx/4.8.3/../../../../pic32mx/lib\libpic32.a(default-bootstrap-exception-handler.o)
                0x9d02bad0                _bootstrap_exception_handler

.vector_default
                0x9d02bb18       0x48
 .vector_default
                0x9d02bb18       0x48 c:/program files (x86)/microchip/xc32/v1.40/bin/bin/../../lib/gcc/pic32mx/4.8.3/../../../../pic32mx/lib\libpic32.a(defaultinterrupt.o)
                0x9d02bb18                _DefaultInterrupt

.text._general_exception_handler
                0x9d02bb60       0x44
 .text._general_exception_handler
                0x9d02bb60       0x44 build/pic32mx/debug/_ext/435813987/system_exceptions.o
                0x9d02bb60                _general_exception_handler

.text.TCPIP_HTTP_Print
                0x9d02bba4       0x44
 .text.TCPIP_HTTP_Print
                0x9d02bba4       0x44 build/pic32mx/debug/_ext/1360937237/http_print.o
                0x9d02bba4                TCPIP_HTTP_Print

.text._DRV_NVM_ClientHandleValidate
                0x9d02bbe8       0x44
 .text._DRV_NVM_ClientHandleValidate
                0x9d02bbe8       0x44 build/pic32mx/debug/_ext/571308596/drv_nvm.o
                0x9d02bbe8                _DRV_NVM_ClientHandleValidate

.text.DRV_USBFS_DEVICE_EndpointIsEnabled
                0x9d02bc2c       0x44
 .text.DRV_USBFS_DEVICE_EndpointIsEnabled
                0x9d02bc2c       0x44 build/pic32mx/debug/_ext/764219029/drv_usbfs_device.o
                0x9d02bc2c                DRV_USBFS_DEVICE_EndpointIsEnabled

.text.DRV_USBFS_DEVICE_EndpointIsStalled
                0x9d02bc70       0x44
 .text.DRV_USBFS_DEVICE_EndpointIsStalled
                0x9d02bc70       0x44 build/pic32mx/debug/_ext/764219029/drv_usbfs_device.o
                0x9d02bc70                DRV_USBFS_DEVICE_EndpointIsStalled

.text.IsCommandReady
                0x9d02bcb4       0x44
 .text.IsCommandReady
                0x9d02bcb4       0x44 build/pic32mx/debug/_ext/425903153/sys_command.o

.text.MPFS_EOF  0x9d02bcf8       0x44
 .text.MPFS_EOF
                0x9d02bcf8       0x44 build/pic32mx/debug/_ext/850537704/mpfs.o
                0x9d02bcf8                MPFS_EOF

.text._SwapARPPacket
                0x9d02bd3c       0x44
 .text._SwapARPPacket
                0x9d02bd3c       0x44 build/pic32mx/debug/_ext/1408260596/arp.o

.text.TCPIP_DHCP_HandlerDeRegister
                0x9d02bd80       0x44
 .text.TCPIP_DHCP_HandlerDeRegister
                0x9d02bd80       0x44 build/pic32mx/debug/_ext/1408260596/dhcp.o
                0x9d02bd80                TCPIP_DHCP_HandlerDeRegister

.text.TCPIP_STACK_NetIsBcastAddress
                0x9d02bdc4       0x44
 .text.TCPIP_STACK_NetIsBcastAddress
                0x9d02bdc4       0x44 build/pic32mx/debug/_ext/1408260596/tcpip_manager.o
                0x9d02bdc4                TCPIP_STACK_NetIsBcastAddress

.text.Ipv4DeRegisterFilter
                0x9d02be08       0x44
 .text.Ipv4DeRegisterFilter
                0x9d02be08       0x44 build/pic32mx/debug/_ext/1408260596/ipv4.o
                0x9d02be08                Ipv4DeRegisterFilter

.text.PLIB_ETH_RxSetBufferSize
                0x9d02be4c       0x44
 .text.PLIB_ETH_RxSetBufferSize
                0x9d02be4c       0x44 ..\..\..\..\bin\framework\peripheral\PIC32MX795F512L_peripherals.a(plib_eth_lib.o)
                0x9d02be4c                PLIB_ETH_RxSetBufferSize

.text           0x9d02be90       0x44
 .text          0x9d02be90       0x44 c:/program files (x86)/microchip/xc32/v1.40/bin/bin/../../lib/gcc/pic32mx/4.8.3/../../../../pic32mx/lib\pic32_software_reset.o
                0x9d02be90                __pic32_software_reset

.text._DRV_ETHPHY_NegCompletePhaseResultNoWait
                0x9d02bed4       0x40
 .text._DRV_ETHPHY_NegCompletePhaseResultNoWait
                0x9d02bed4       0x40 build/pic32mx/debug/_ext/732687875/drv_ethphy.o

.text._DRV_NVM_EraseBufferObjProcess
                0x9d02bf14       0x40
 .text._DRV_NVM_EraseBufferObjProcess
                0x9d02bf14       0x40 build/pic32mx/debug/_ext/571308596/drv_nvm.o
                0x9d02bf14                _DRV_NVM_EraseBufferObjProcess

.text.DRV_NVM_EventHandlerSet
                0x9d02bf54       0x40
 .text.DRV_NVM_EventHandlerSet
                0x9d02bf54       0x40 build/pic32mx/debug/_ext/571308596/drv_nvm.o
                0x9d02bf54                DRV_NVM_EventHandlerSet

.text.consUSBReset
                0x9d02bf94       0x40
 .text.consUSBReset
                0x9d02bf94       0x40 build/pic32mx/debug/_ext/30809027/sys_console_usb_cdc.o

.text.MPFSGetPosition
                0x9d02bfd4       0x40
 .text.MPFSGetPosition
                0x9d02bfd4       0x40 build/pic32mx/debug/_ext/850537704/mpfs.o
                0x9d02bfd4                MPFSGetPosition

.text.SYS_FS_FileOpen_Wrapper
                0x9d02c014       0x40
 .text.SYS_FS_FileOpen_Wrapper
                0x9d02c014       0x40 build/pic32mx/debug/_ext/1136935090/sys_fs_wrapper.o
                0x9d02c014                SYS_FS_FileOpen_Wrapper

.text.TCPIP_TCP_Find
                0x9d02c054       0x40
 .text.TCPIP_TCP_Find
                0x9d02c054       0x40 build/pic32mx/debug/_ext/1408260596/tcp.o
                0x9d02c054                TCPIP_TCP_Find

.text._DRV_ETHMAC_LinkStateDown
                0x9d02c094       0x3c
 .text._DRV_ETHMAC_LinkStateDown
                0x9d02c094       0x3c build/pic32mx/debug/_ext/1908841681/drv_ethmac.o

.text.DRV_ETHMAC_SingleListHeadRemove
                0x9d02c0d0       0x3c
 .text.DRV_ETHMAC_SingleListHeadRemove
                0x9d02c0d0       0x3c build/pic32mx/debug/_ext/1908841681/drv_ethmac_lib.o
                0x9d02c0d0                DRV_ETHMAC_SingleListHeadRemove

.text._DRV_USBFS_DEVICE_Initialize
                0x9d02c10c       0x3c
 .text._DRV_USBFS_DEVICE_Initialize
                0x9d02c10c       0x3c build/pic32mx/debug/_ext/764219029/drv_usbfs_device.o
                0x9d02c10c                _DRV_USBFS_DEVICE_Initialize

.text.SYS_FS_MEDIA_MANAGER_AddressGet
                0x9d02c148       0x3c
 .text.SYS_FS_MEDIA_MANAGER_AddressGet
                0x9d02c148       0x3c build/pic32mx/debug/_ext/2104899551/sys_fs_media_manager.o
                0x9d02c148                SYS_FS_MEDIA_MANAGER_AddressGet

.text.MD5Initialize
                0x9d02c184       0x3c
 .text.MD5Initialize
                0x9d02c184       0x3c build/pic32mx/debug/_ext/1136935090/hashes.o
                0x9d02c184                MD5Initialize

.text.LFSRRand  0x9d02c1c0       0x3c
 .text.LFSRRand
                0x9d02c1c0       0x3c build/pic32mx/debug/_ext/1136935090/lfsr.o
                0x9d02c1c0                LFSRRand

.text._TCP_TxPktValid
                0x9d02c1fc       0x3c
 .text._TCP_TxPktValid
                0x9d02c1fc       0x3c build/pic32mx/debug/_ext/1408260596/tcp.o

.text.TCPIP_TCP_Disconnect
                0x9d02c238       0x3c
 .text.TCPIP_TCP_Disconnect
                0x9d02c238       0x3c build/pic32mx/debug/_ext/1408260596/tcp.o
                0x9d02c238                TCPIP_TCP_Disconnect

.text._TCPIsGetReady
                0x9d02c274       0x3c
 .text._TCPIsGetReady
                0x9d02c274       0x3c build/pic32mx/debug/_ext/1408260596/tcp.o

.text._UDPTxPktValid
                0x9d02c2b0       0x3c
 .text._UDPTxPktValid
                0x9d02c2b0       0x3c build/pic32mx/debug/_ext/1408260596/udp.o

.text._UDPFreeRxQueue
                0x9d02c2ec       0x3c
 .text._UDPFreeRxQueue
                0x9d02c2ec       0x3c build/pic32mx/debug/_ext/1408260596/udp.o

.text.TCPIP_ARP_CallbacksDeregister
                0x9d02c328       0x3c
 .text.TCPIP_ARP_CallbacksDeregister
                0x9d02c328       0x3c build/pic32mx/debug/_ext/1408260596/arp.o
                0x9d02c328                TCPIP_ARP_CallbacksDeregister

.text._ARPTxAckFnc
                0x9d02c364       0x3c
 .text._ARPTxAckFnc
                0x9d02c364       0x3c build/pic32mx/debug/_ext/1408260596/arp.o

.text.TCPIP_ARP_HashKeyHash
                0x9d02c3a0       0x3c
 .text.TCPIP_ARP_HashKeyHash
                0x9d02c3a0       0x3c build/pic32mx/debug/_ext/1408260596/arp.o
                0x9d02c3a0                TCPIP_ARP_HashKeyHash

.text._ICMPAllocateTxPacketStruct
                0x9d02c3dc       0x3c
 .text._ICMPAllocateTxPacketStruct
                0x9d02c3dc       0x3c build/pic32mx/debug/_ext/1408260596/icmp.o

.text._ZCLLCleanup
                0x9d02c418       0x3c
 .text._ZCLLCleanup
                0x9d02c418       0x3c build/pic32mx/debug/_ext/1408260596/zero_conf_link_local.o

.text.TCPIP_OAHASH_Initialize
                0x9d02c454       0x3c
 .text.TCPIP_OAHASH_Initialize
                0x9d02c454       0x3c build/pic32mx/debug/_ext/1408260596/oahash.o
                0x9d02c454                TCPIP_OAHASH_Initialize

.text.TCPIP_Helper_SingleListHeadRemove
                0x9d02c490       0x3c
 .text.TCPIP_Helper_SingleListHeadRemove
                0x9d02c490       0x3c build/pic32mx/debug/_ext/1408260596/tcpip_helpers.o
                0x9d02c490                TCPIP_Helper_SingleListHeadRemove

.text.TCPIP_Helper_ProtectedSingleListInitialize
                0x9d02c4cc       0x3c
 .text.TCPIP_Helper_ProtectedSingleListInitialize
                0x9d02c4cc       0x3c build/pic32mx/debug/_ext/1408260596/tcpip_helpers.o
                0x9d02c4cc                TCPIP_Helper_ProtectedSingleListInitialize

.text._TCPIPStackSetConfigAddress
                0x9d02c508       0x3c
 .text._TCPIPStackSetConfigAddress
                0x9d02c508       0x3c build/pic32mx/debug/_ext/1408260596/tcpip_manager.o
                0x9d02c508                _TCPIPStackSetConfigAddress

.text._EthMacReset
                0x9d02c544       0x38
 .text._EthMacReset
                0x9d02c544       0x38 build/pic32mx/debug/_ext/1908841681/drv_ethmac_lib.o

.text.DRV_ETHMAC_LibDescriptorGetBuffer
                0x9d02c57c       0x38
 .text.DRV_ETHMAC_LibDescriptorGetBuffer
                0x9d02c57c       0x38 build/pic32mx/debug/_ext/1908841681/drv_ethmac_lib.o
                0x9d02c57c                DRV_ETHMAC_LibDescriptorGetBuffer

.text.DRV_ETHMAC_LibRxPendingBuffersGet
                0x9d02c5b4       0x38
 .text.DRV_ETHMAC_LibRxPendingBuffersGet
                0x9d02c5b4       0x38 build/pic32mx/debug/_ext/1908841681/drv_ethmac_lib.o
                0x9d02c5b4                DRV_ETHMAC_LibRxPendingBuffersGet

.text.DRV_ETHMAC_LibRxScheduledBuffersGet
                0x9d02c5ec       0x38
 .text.DRV_ETHMAC_LibRxScheduledBuffersGet
                0x9d02c5ec       0x38 build/pic32mx/debug/_ext/1908841681/drv_ethmac_lib.o
                0x9d02c5ec                DRV_ETHMAC_LibRxScheduledBuffersGet

.text.DRV_ETHMAC_LibTxPendingBuffersGet
                0x9d02c624       0x38
 .text.DRV_ETHMAC_LibTxPendingBuffersGet
                0x9d02c624       0x38 build/pic32mx/debug/_ext/1908841681/drv_ethmac_lib.o
                0x9d02c624                DRV_ETHMAC_LibTxPendingBuffersGet

.text._DRV_PHY_SMIReadStart
                0x9d02c65c       0x38
 .text._DRV_PHY_SMIReadStart
                0x9d02c65c       0x38 build/pic32mx/debug/_ext/732687875/drv_ethphy.o

.text._DRV_PHY_SMIWriteStart
                0x9d02c694       0x38
 .text._DRV_PHY_SMIWriteStart
                0x9d02c694       0x38 build/pic32mx/debug/_ext/732687875/drv_ethphy.o

.text._DRV_ETHPHY_ResetPhaseIdle
                0x9d02c6cc       0x38
 .text._DRV_ETHPHY_ResetPhaseIdle
                0x9d02c6cc       0x38 build/pic32mx/debug/_ext/732687875/drv_ethphy.o

.text.DRV_NVM_AddressGet
                0x9d02c704       0x38
 .text.DRV_NVM_AddressGet
                0x9d02c704       0x38 build/pic32mx/debug/_ext/571308596/drv_nvm.o
                0x9d02c704                DRV_NVM_AddressGet

.text.DRV_USBFS_DEVICE_AddressSet
                0x9d02c73c       0x38
 .text.DRV_USBFS_DEVICE_AddressSet
                0x9d02c73c       0x38 build/pic32mx/debug/_ext/764219029/drv_usbfs_device.o
                0x9d02c73c                DRV_USBFS_DEVICE_AddressSet

.text.CommandReset
                0x9d02c774       0x38
 .text.CommandReset
                0x9d02c774       0x38 build/pic32mx/debug/_ext/425903153/sys_command.o

.text.SYS_FS_Unmount_Wrapper
                0x9d02c7ac       0x38
 .text.SYS_FS_Unmount_Wrapper
                0x9d02c7ac       0x38 build/pic32mx/debug/_ext/1136935090/sys_fs_wrapper.o
                0x9d02c7ac                SYS_FS_Unmount_Wrapper

.text._TcpSocketChk
                0x9d02c7e4       0x38
 .text._TcpSocketChk
                0x9d02c7e4       0x38 build/pic32mx/debug/_ext/1408260596/tcp.o

.text._UDPSocketDcpt
                0x9d02c81c       0x38
 .text._UDPSocketDcpt
                0x9d02c81c       0x38 build/pic32mx/debug/_ext/1408260596/udp.o

.text._ARPAllocateTxPacket
                0x9d02c854       0x38
 .text._ARPAllocateTxPacket
                0x9d02c854       0x38 build/pic32mx/debug/_ext/1408260596/arp.o

.rodata         0x9d02c88c       0x38
 .rodata        0x9d02c88c       0x38 build/pic32mx/debug/_ext/1408260596/sntp.o

.text.TCPIP_STACK_AddressServiceDefaultSet
                0x9d02c8c4       0x38
 .text.TCPIP_STACK_AddressServiceDefaultSet
                0x9d02c8c4       0x38 build/pic32mx/debug/_ext/1408260596/tcpip_manager.o
                0x9d02c8c4                TCPIP_STACK_AddressServiceDefaultSet

.text.USB_DEVICE_CDC_EventHandlerSet
                0x9d02c8fc       0x38
 .text.USB_DEVICE_CDC_EventHandlerSet
                0x9d02c8fc       0x38 build/pic32mx/debug/_ext/610166344/usb_device_cdc.o
                0x9d02c8fc                USB_DEVICE_CDC_EventHandlerSet

.text.SYS_INT_SourceRestore
                0x9d02c934       0x34
 .text.SYS_INT_SourceRestore
                0x9d02c934       0x34 build/pic32mx/debug/_ext/435813987/system_interrupt.o
                0x9d02c934                SYS_INT_SourceRestore

.text.BSP_LEDStateSet
                0x9d02c968       0x34
 .text.BSP_LEDStateSet
                0x9d02c968       0x34 build/pic32mx/debug/_ext/1837361561/bsp_sys_init.o
                0x9d02c968                BSP_LEDStateSet

.text.DRV_ETHMAC_LibTxAcknowledgeBuffer
                0x9d02c99c       0x34
 .text.DRV_ETHMAC_LibTxAcknowledgeBuffer
                0x9d02c99c       0x34 build/pic32mx/debug/_ext/1908841681/drv_ethmac_lib.o
                0x9d02c99c                DRV_ETHMAC_LibTxAcknowledgeBuffer

.text.DRV_ETHPHY_PhyAddressGet
                0x9d02c9d0       0x34
 .text.DRV_ETHPHY_PhyAddressGet
                0x9d02c9d0       0x34 build/pic32mx/debug/_ext/732687875/drv_ethphy.o
                0x9d02c9d0                DRV_ETHPHY_PhyAddressGet

.text._DRV_ETHPHY_NegRestartPhaseIdle
                0x9d02ca04       0x34
 .text._DRV_ETHPHY_NegRestartPhaseIdle
                0x9d02ca04       0x34 build/pic32mx/debug/_ext/732687875/drv_ethphy.o

.text._DRV_ETHPHY_NegCompletePhaseIdle
                0x9d02ca38       0x34
 .text._DRV_ETHPHY_NegCompletePhaseIdle
                0x9d02ca38       0x34 build/pic32mx/debug/_ext/732687875/drv_ethphy.o

.text._DRV_ETHPHY_NegResultPhaseIdle
                0x9d02ca6c       0x34
 .text._DRV_ETHPHY_NegResultPhaseIdle
                0x9d02ca6c       0x34 build/pic32mx/debug/_ext/732687875/drv_ethphy.o

.text._DRV_ETHPHY_LinkStatPhaseIdle
                0x9d02caa0       0x34
 .text._DRV_ETHPHY_LinkStatPhaseIdle
                0x9d02caa0       0x34 build/pic32mx/debug/_ext/732687875/drv_ethphy.o

.text.SYS_CMDIO_GET_HANDLE
                0x9d02cad4       0x34
 .text.SYS_CMDIO_GET_HANDLE
                0x9d02cad4       0x34 build/pic32mx/debug/_ext/425903153/sys_command.o
                0x9d02cad4                SYS_CMDIO_GET_HANDLE

.text.MPFS_Unmount
                0x9d02cb08       0x34
 .text.MPFS_Unmount
                0x9d02cb08       0x34 build/pic32mx/debug/_ext/850537704/mpfs.o
                0x9d02cb08                MPFS_Unmount

.text.MPFSClose
                0x9d02cb3c       0x34
 .text.MPFSClose
                0x9d02cb3c       0x34 build/pic32mx/debug/_ext/850537704/mpfs.o
                0x9d02cb3c                MPFSClose

.text.TCPIP_TCP_PutIsReady
                0x9d02cb70       0x34
 .text.TCPIP_TCP_PutIsReady
                0x9d02cb70       0x34 build/pic32mx/debug/_ext/1408260596/tcp.o
                0x9d02cb70                TCPIP_TCP_PutIsReady

.text.TCPIP_TCP_GetIsReady
                0x9d02cba4       0x34
 .text.TCPIP_TCP_GetIsReady
                0x9d02cba4       0x34 build/pic32mx/debug/_ext/1408260596/tcp.o
                0x9d02cba4                TCPIP_TCP_GetIsReady

.text._UDPUpdatePacketLock
                0x9d02cbd8       0x34
 .text._UDPUpdatePacketLock
                0x9d02cbd8       0x34 build/pic32mx/debug/_ext/1408260596/udp.o

.text.TCPIP_Helper_ProtectedSingleListUnlock
                0x9d02cc0c       0x34
 .text.TCPIP_Helper_ProtectedSingleListUnlock
                0x9d02cc0c       0x34 build/pic32mx/debug/_ext/1408260596/tcpip_helpers.o
                0x9d02cc0c                TCPIP_Helper_ProtectedSingleListUnlock

.text.TCPIP_STACK_IndexToNet
                0x9d02cc40       0x34
 .text.TCPIP_STACK_IndexToNet
                0x9d02cc40       0x34 build/pic32mx/debug/_ext/1408260596/tcpip_manager.o
                0x9d02cc40                TCPIP_STACK_IndexToNet

.text.TCPIP_STACK_NetAddress
                0x9d02cc74       0x34
 .text.TCPIP_STACK_NetAddress
                0x9d02cc74       0x34 build/pic32mx/debug/_ext/1408260596/tcpip_manager.o
                0x9d02cc74                TCPIP_STACK_NetAddress

.text.TCPIP_STACK_NetAddressBcast
                0x9d02cca8       0x34
 .text.TCPIP_STACK_NetAddressBcast
                0x9d02cca8       0x34 build/pic32mx/debug/_ext/1408260596/tcpip_manager.o
                0x9d02cca8                TCPIP_STACK_NetAddressBcast

.text.TCPIP_STACK_NetIsReady
                0x9d02ccdc       0x34
 .text.TCPIP_STACK_NetIsReady
                0x9d02ccdc       0x34 build/pic32mx/debug/_ext/1408260596/tcpip_manager.o
                0x9d02ccdc                TCPIP_STACK_NetIsReady

.text.TCPIP_STACK_DNSServiceSelect
                0x9d02cd10       0x34
 .text.TCPIP_STACK_DNSServiceSelect
                0x9d02cd10       0x34 build/pic32mx/debug/_ext/1408260596/tcpip_manager.o
                0x9d02cd10                TCPIP_STACK_DNSServiceSelect

.text._TCPIPStackHandleToNetLinked
                0x9d02cd44       0x34
 .text._TCPIPStackHandleToNetLinked
                0x9d02cd44       0x34 build/pic32mx/debug/_ext/1408260596/tcpip_manager.o
                0x9d02cd44                _TCPIPStackHandleToNetLinked

.text._TCPIPStackAsyncHandlerDeRegister
                0x9d02cd78       0x34
 .text._TCPIPStackAsyncHandlerDeRegister
                0x9d02cd78       0x34 build/pic32mx/debug/_ext/1408260596/tcpip_manager.o
                0x9d02cd78                _TCPIPStackAsyncHandlerDeRegister

.text.CRYPT_RNG_Initialize
                0x9d02cdac       0x30
 .text.CRYPT_RNG_Initialize
                0x9d02cdac       0x30 build/pic32mx/debug/_ext/1886890887/crypto.o
                0x9d02cdac                CRYPT_RNG_Initialize

.text.DRV_ETHMAC_PIC32MACDeinitialize
                0x9d02cddc       0x30
 .text.DRV_ETHMAC_PIC32MACDeinitialize
                0x9d02cddc       0x30 build/pic32mx/debug/_ext/1908841681/drv_ethmac.o
                0x9d02cddc                DRV_ETHMAC_PIC32MACDeinitialize

.text._MacCallocCallback
                0x9d02ce0c       0x30
 .text._MacCallocCallback
                0x9d02ce0c       0x30 build/pic32mx/debug/_ext/1908841681/drv_ethmac.o

.text.DRV_ETHMAC_SingleListTailAdd
                0x9d02ce3c       0x30
 .text.DRV_ETHMAC_SingleListTailAdd
                0x9d02ce3c       0x30 build/pic32mx/debug/_ext/1908841681/drv_ethmac_lib.o
                0x9d02ce3c                DRV_ETHMAC_SingleListTailAdd

.text.DRV_ETHPHY_VendorDataGet
                0x9d02ce6c       0x30
 .text.DRV_ETHPHY_VendorDataGet
                0x9d02ce6c       0x30 build/pic32mx/debug/_ext/732687875/drv_ethphy.o
                0x9d02ce6c                DRV_ETHPHY_VendorDataGet

.rodata         0x9d02ce9c       0x30
 .rodata        0x9d02ce9c       0x30 build/pic32mx/debug/_ext/571308596/drv_nvm.o
                0x9d02ce9c                nvmMediaFunctions

.text.popQ      0x9d02cecc       0x30
 .text.popQ     0x9d02cecc       0x30 build/pic32mx/debug/_ext/30809027/sys_console_usb_cdc.o

.text.SYS_FS_MEDIA_MANAGER_EventHandler
                0x9d02cefc       0x30
 .text.SYS_FS_MEDIA_MANAGER_EventHandler
                0x9d02cefc       0x30 build/pic32mx/debug/_ext/2104899551/sys_fs_media_manager.o
                0x9d02cefc                SYS_FS_MEDIA_MANAGER_EventHandler

.text._Tcpv4UnlinkDataSeg
                0x9d02cf2c       0x30
 .text._Tcpv4UnlinkDataSeg
                0x9d02cf2c       0x30 build/pic32mx/debug/_ext/1408260596/tcp.o

.text.TCPIP_Helper_SingleListTailAdd
                0x9d02cf5c       0x30
 .text.TCPIP_Helper_SingleListTailAdd
                0x9d02cf5c       0x30 build/pic32mx/debug/_ext/1408260596/tcpip_helpers.o
                0x9d02cf5c                TCPIP_Helper_SingleListTailAdd

.text._TCPIP_MacEventCB
                0x9d02cf8c       0x30
 .text._TCPIP_MacEventCB
                0x9d02cf8c       0x30 build/pic32mx/debug/_ext/1408260596/tcpip_manager.o

.text.TCPIP_STACK_NetNameGet
                0x9d02cfbc       0x30
 .text.TCPIP_STACK_NetNameGet
                0x9d02cfbc       0x30 build/pic32mx/debug/_ext/1408260596/tcpip_manager.o
                0x9d02cfbc                TCPIP_STACK_NetNameGet

.text.TCPIP_STACK_NetAddressGet
                0x9d02cfec       0x30
 .text.TCPIP_STACK_NetAddressGet
                0x9d02cfec       0x30 build/pic32mx/debug/_ext/1408260596/tcpip_manager.o
                0x9d02cfec                TCPIP_STACK_NetAddressGet

.text.TCPIP_STACK_NetMaskGet
                0x9d02d01c       0x30
 .text.TCPIP_STACK_NetMaskGet
                0x9d02d01c       0x30 build/pic32mx/debug/_ext/1408260596/tcpip_manager.o
                0x9d02d01c                TCPIP_STACK_NetMaskGet

.text.TCPIP_STACK_NetworkIsLinked
                0x9d02d04c       0x30
 .text.TCPIP_STACK_NetworkIsLinked
                0x9d02d04c       0x30 build/pic32mx/debug/_ext/1408260596/tcpip_manager.o
                0x9d02d04c                TCPIP_STACK_NetworkIsLinked

.text.free      0x9d02d07c       0x30
 .text.free     0x9d02d07c       0x30 c:/program files (x86)/microchip/xc32/v1.40/bin/bin/../../lib/gcc/pic32mx/4.8.3/../../../../pic32mx/lib\libc.a(malloc.o)
                0x9d02d07c                free

.text.DRV_USBFS_DEVICE_RemoteWakeupStart
                0x9d02d0ac       0x2c
 .text.DRV_USBFS_DEVICE_RemoteWakeupStart
                0x9d02d0ac       0x2c build/pic32mx/debug/_ext/764219029/drv_usbfs_device.o
                0x9d02d0ac                DRV_USBFS_DEVICE_RemoteWakeupStart

.text.DRV_USBFS_DEVICE_RemoteWakeupStop
                0x9d02d0d8       0x2c
 .text.DRV_USBFS_DEVICE_RemoteWakeupStop
                0x9d02d0d8       0x2c build/pic32mx/debug/_ext/764219029/drv_usbfs_device.o
                0x9d02d0d8                DRV_USBFS_DEVICE_RemoteWakeupStop

.text.MPFS_Read
                0x9d02d104       0x2c
 .text.MPFS_Read
                0x9d02d104       0x2c build/pic32mx/debug/_ext/850537704/mpfs.o
                0x9d02d104                MPFS_Read

.text._SYS_TMR_AlarmCallback
                0x9d02d130       0x2c
 .text._SYS_TMR_AlarmCallback
                0x9d02d130       0x2c build/pic32mx/debug/_ext/1264926591/sys_tmr.o

.text.TCPIP_UDP_Discard
                0x9d02d15c       0x2c
 .text.TCPIP_UDP_Discard
                0x9d02d15c       0x2c build/pic32mx/debug/_ext/1408260596/udp.o
                0x9d02d15c                TCPIP_UDP_Discard

.text.TCPIP_OAHASH_EntryGet
                0x9d02d188       0x2c
 .text.TCPIP_OAHASH_EntryGet
                0x9d02d188       0x2c build/pic32mx/debug/_ext/1408260596/oahash.o
                0x9d02d188                TCPIP_OAHASH_EntryGet

.text.TCPIP_Notification_Deinitialize
                0x9d02d1b4       0x2c
 .text.TCPIP_Notification_Deinitialize
                0x9d02d1b4       0x2c build/pic32mx/debug/_ext/1408260596/tcpip_notify.o
                0x9d02d1b4                TCPIP_Notification_Deinitialize

.text._stub_sbd_memlayout
                0x9d02d1e0       0x2c
 .text._stub_sbd_memlayout
                0x9d02d1e0       0x2c c:/program files (x86)/microchip/xc32/v1.40/bin/bin/../../lib/gcc/pic32mx/4.8.3/../../../../pic32mx/lib\libpic32.a(sbrk.o)
                0x9d02d1e0                _sbd_memlayout
                0x9d02d1e0                _stub_sbd_memlayout

.text.Heartbeat
                0x9d02d20c       0x28
 .text.Heartbeat
                0x9d02d20c       0x28 build/pic32mx/debug/_ext/1360937237/app.o
                0x9d02d20c                Heartbeat

.text.BSP_Initialize
                0x9d02d234       0x28
 .text.BSP_Initialize
                0x9d02d234       0x28 build/pic32mx/debug/_ext/1837361561/bsp_sys_init.o
                0x9d02d234                BSP_Initialize

.text._MacTxFreeCallback
                0x9d02d25c       0x28
 .text._MacTxFreeCallback
                0x9d02d25c       0x28 build/pic32mx/debug/_ext/1908841681/drv_ethmac.o

.text.DRV_NVM_GeometryGet
                0x9d02d284       0x28
 .text.DRV_NVM_GeometryGet
                0x9d02d284       0x28 build/pic32mx/debug/_ext/571308596/drv_nvm.o
                0x9d02d284                DRV_NVM_GeometryGet

.text.DRV_USBFS_Close
                0x9d02d2ac       0x28
 .text.DRV_USBFS_Close
                0x9d02d2ac       0x28 build/pic32mx/debug/_ext/764219029/drv_usbfs.o
                0x9d02d2ac                DRV_USBFS_Close

.text.Console_USB_RegisterCallback
                0x9d02d2d4       0x28
 .text.Console_USB_RegisterCallback
                0x9d02d2d4       0x28 build/pic32mx/debug/_ext/30809027/sys_console_usb_cdc.o
                0x9d02d2d4                Console_USB_RegisterCallback

.text.TCPIP_TCP_Put
                0x9d02d2fc       0x28
 .text.TCPIP_TCP_Put
                0x9d02d2fc       0x28 build/pic32mx/debug/_ext/1408260596/tcp.o
                0x9d02d2fc                TCPIP_TCP_Put

.text.TCPIP_TCP_SocketNetGet
                0x9d02d324       0x28
 .text.TCPIP_TCP_SocketNetGet
                0x9d02d324       0x28 build/pic32mx/debug/_ext/1408260596/tcp.o
                0x9d02d324                TCPIP_TCP_SocketNetGet

.text.TCPIP_UDP_Put
                0x9d02d34c       0x28
 .text.TCPIP_UDP_Put
                0x9d02d34c       0x28 build/pic32mx/debug/_ext/1408260596/udp.o
                0x9d02d34c                TCPIP_UDP_Put

.text.TCPIP_UDP_SocketNetGet
                0x9d02d374       0x28
 .text.TCPIP_UDP_SocketNetGet
                0x9d02d374       0x28 build/pic32mx/debug/_ext/1408260596/udp.o
                0x9d02d374                TCPIP_UDP_SocketNetGet

.text.TCPIP_STACK_NetMACAddressGet
                0x9d02d39c       0x28
 .text.TCPIP_STACK_NetMACAddressGet
                0x9d02d39c       0x28 build/pic32mx/debug/_ext/1408260596/tcpip_manager.o
                0x9d02d39c                TCPIP_STACK_NetMACAddressGet

.text._USB_DEVICE_ClientHandleValidate
                0x9d02d3c4       0x28
 .text._USB_DEVICE_ClientHandleValidate
                0x9d02d3c4       0x28 build/pic32mx/debug/_ext/610166344/usb_device.o
                0x9d02d3c4                _USB_DEVICE_ClientHandleValidate

.text.PLIB_ETH_MACSetMaxFrame
                0x9d02d3ec       0x28
 .text.PLIB_ETH_MACSetMaxFrame
                0x9d02d3ec       0x28 ..\..\..\..\bin\framework\peripheral\PIC32MX795F512L_peripherals.a(plib_eth_lib.o)
                0x9d02d3ec                PLIB_ETH_MACSetMaxFrame

.text.DRV_ETHMAC_PIC32MACClose
                0x9d02d414       0x24
 .text.DRV_ETHMAC_PIC32MACClose
                0x9d02d414       0x24 build/pic32mx/debug/_ext/1908841681/drv_ethmac.o
                0x9d02d414                DRV_ETHMAC_PIC32MACClose

.text.SYS_TMR_TickCountGet
                0x9d02d438       0x24
 .text.SYS_TMR_TickCountGet
                0x9d02d438       0x24 build/pic32mx/debug/_ext/1264926591/sys_tmr.o
                0x9d02d438                SYS_TMR_TickCountGet

.text.SYS_TMR_TickCounterFrequencyGet
                0x9d02d45c       0x24
 .text.SYS_TMR_TickCounterFrequencyGet
                0x9d02d45c       0x24 build/pic32mx/debug/_ext/1264926591/sys_tmr.o
                0x9d02d45c                SYS_TMR_TickCounterFrequencyGet

.text.SYS_TMR_SystemCountFrequencyGet
                0x9d02d480       0x24
 .text.SYS_TMR_SystemCountFrequencyGet
                0x9d02d480       0x24 build/pic32mx/debug/_ext/1264926591/sys_tmr.o
                0x9d02d480                SYS_TMR_SystemCountFrequencyGet

.text._DHCPOptionWriteEnd
                0x9d02d4a4       0x24
 .text._DHCPOptionWriteEnd
                0x9d02d4a4       0x24 build/pic32mx/debug/_ext/1408260596/dhcp.o

.text.TCPIP_DNS_IsEnabled
                0x9d02d4c8       0x24
 .text.TCPIP_DNS_IsEnabled
                0x9d02d4c8       0x24 build/pic32mx/debug/_ext/1408260596/dns.o
                0x9d02d4c8                TCPIP_DNS_IsEnabled

.text.TCPIP_HEAP_FreeSize
                0x9d02d4ec       0x24
 .text.TCPIP_HEAP_FreeSize
                0x9d02d4ec       0x24 build/pic32mx/debug/_ext/1408260596/tcpip_heap_alloc.o
                0x9d02d4ec                TCPIP_HEAP_FreeSize

.text.toupper   0x9d02d510       0x24
 .text.toupper  0x9d02d510       0x24 c:/program files (x86)/microchip/xc32/v1.40/bin/bin/../../lib/gcc/pic32mx/4.8.3/../../../../pic32mx/lib\libc.a(ctypef.o)
                0x9d02d510                toupper

.text.main      0x9d02d534       0x20
 .text.main     0x9d02d534       0x20 build/pic32mx/debug/_ext/1360937237/main.o
                0x9d02d534                main

.text.DRV_ETHMAC_PIC32MACStatus
                0x9d02d554       0x20
 .text.DRV_ETHMAC_PIC32MACStatus
                0x9d02d554       0x20 build/pic32mx/debug/_ext/1908841681/drv_ethmac.o
                0x9d02d554                DRV_ETHMAC_PIC32MACStatus

.text._DRV_ETHMAC_GetFrmTxOk
                0x9d02d574       0x20
 .text._DRV_ETHMAC_GetFrmTxOk
                0x9d02d574       0x20 build/pic32mx/debug/_ext/1908841681/drv_ethmac.o

.text._DRV_ETHMAC_GetFrmRxOk
                0x9d02d594       0x20
 .text._DRV_ETHMAC_GetFrmRxOk
                0x9d02d594       0x20 build/pic32mx/debug/_ext/1908841681/drv_ethmac.o

.text._DRV_ETHMAC_GetFrmPktCount
                0x9d02d5b4       0x20
 .text._DRV_ETHMAC_GetFrmPktCount
                0x9d02d5b4       0x20 build/pic32mx/debug/_ext/1908841681/drv_ethmac.o

.text._DRV_ETHMAC_GetFrmRxOvflow
                0x9d02d5d4       0x20
 .text._DRV_ETHMAC_GetFrmRxOvflow
                0x9d02d5d4       0x20 build/pic32mx/debug/_ext/1908841681/drv_ethmac.o

.text._DRV_ETHMAC_GetFrmFcsError
                0x9d02d5f4       0x20
 .text._DRV_ETHMAC_GetFrmFcsError
                0x9d02d5f4       0x20 build/pic32mx/debug/_ext/1908841681/drv_ethmac.o

.text._DRV_ETHMAC_GetAlignError
                0x9d02d614       0x20
 .text._DRV_ETHMAC_GetAlignError
                0x9d02d614       0x20 build/pic32mx/debug/_ext/1908841681/drv_ethmac.o

.text._DRV_ETHMAC_GetSCollisionCount
                0x9d02d634       0x20
 .text._DRV_ETHMAC_GetSCollisionCount
                0x9d02d634       0x20 build/pic32mx/debug/_ext/1908841681/drv_ethmac.o

.text._DRV_ETHMAC_GetMCollisionCount
                0x9d02d654       0x20
 .text._DRV_ETHMAC_GetMCollisionCount
                0x9d02d654       0x20 build/pic32mx/debug/_ext/1908841681/drv_ethmac.o

.text._DRV_ETHPHY_ClientObjectAllocate
                0x9d02d674       0x20
 .text._DRV_ETHPHY_ClientObjectAllocate
                0x9d02d674       0x20 build/pic32mx/debug/_ext/732687875/drv_ethphy.o
                0x9d02d674                _DRV_ETHPHY_ClientObjectAllocate

.text.DRV_ETHPHY_Close
                0x9d02d694       0x20
 .text.DRV_ETHPHY_Close
                0x9d02d694       0x20 build/pic32mx/debug/_ext/732687875/drv_ethphy.o
                0x9d02d694                DRV_ETHPHY_Close

.text.DRV_NVM_IsAttached
                0x9d02d6b4       0x20
 .text.DRV_NVM_IsAttached
                0x9d02d6b4       0x20 build/pic32mx/debug/_ext/571308596/drv_nvm.o
                0x9d02d6b4                DRV_NVM_IsAttached

.text.SYS_CMD_MESSAGE
                0x9d02d6d4       0x20
 .text.SYS_CMD_MESSAGE
                0x9d02d6d4       0x20 build/pic32mx/debug/_ext/425903153/sys_command.o
                0x9d02d6d4                SYS_CMD_MESSAGE

.text.MPFS_Close
                0x9d02d6f4       0x20
 .text.MPFS_Close
                0x9d02d6f4       0x20 build/pic32mx/debug/_ext/850537704/mpfs.o
                0x9d02d6f4                MPFS_Close

.text.SYS_INT_Disable
                0x9d02d714       0x20
 .text.SYS_INT_Disable
                0x9d02d714       0x20 build/pic32mx/debug/_ext/122796885/sys_int_pic32.o
                0x9d02d714                SYS_INT_Disable

.text.TCPIP_TCP_ArrayPut
                0x9d02d734       0x20
 .text.TCPIP_TCP_ArrayPut
                0x9d02d734       0x20 build/pic32mx/debug/_ext/1408260596/tcp.o
                0x9d02d734                TCPIP_TCP_ArrayPut

.text.TCPIP_TCP_Get
                0x9d02d754       0x20
 .text.TCPIP_TCP_Get
                0x9d02d754       0x20 build/pic32mx/debug/_ext/1408260596/tcp.o
                0x9d02d754                TCPIP_TCP_Get

.text.TCPIP_TCP_ArrayGet
                0x9d02d774       0x20
 .text.TCPIP_TCP_ArrayGet
                0x9d02d774       0x20 build/pic32mx/debug/_ext/1408260596/tcp.o
                0x9d02d774                TCPIP_TCP_ArrayGet

.text.TCPIP_UDP_ServerOpen
                0x9d02d794       0x20
 .text.TCPIP_UDP_ServerOpen
                0x9d02d794       0x20 build/pic32mx/debug/_ext/1408260596/udp.o
                0x9d02d794                TCPIP_UDP_ServerOpen

.text.TCPIP_UDP_ClientOpen
                0x9d02d7b4       0x20
 .text.TCPIP_UDP_ClientOpen
                0x9d02d7b4       0x20 build/pic32mx/debug/_ext/1408260596/udp.o
                0x9d02d7b4                TCPIP_UDP_ClientOpen

.text.TCPIP_UDP_IsConnected
                0x9d02d7d4       0x20
 .text.TCPIP_UDP_IsConnected
                0x9d02d7d4       0x20 build/pic32mx/debug/_ext/1408260596/udp.o
                0x9d02d7d4                TCPIP_UDP_IsConnected

.text.TCPIP_UDP_ArrayPut
                0x9d02d7f4       0x20
 .text.TCPIP_UDP_ArrayPut
                0x9d02d7f4       0x20 build/pic32mx/debug/_ext/1408260596/udp.o
                0x9d02d7f4                TCPIP_UDP_ArrayPut

.text.TCPIP_UDP_Get
                0x9d02d814       0x20
 .text.TCPIP_UDP_Get
                0x9d02d814       0x20 build/pic32mx/debug/_ext/1408260596/udp.o
                0x9d02d814                TCPIP_UDP_Get

.text.TCPIP_UDP_ArrayGet
                0x9d02d834       0x20
 .text.TCPIP_UDP_ArrayGet
                0x9d02d834       0x20 build/pic32mx/debug/_ext/1408260596/udp.o
                0x9d02d834                TCPIP_UDP_ArrayGet

.text.TCPIP_DNS_OAHASH_KeyCompare
                0x9d02d854       0x20
 .text.TCPIP_DNS_OAHASH_KeyCompare
                0x9d02d854       0x20 build/pic32mx/debug/_ext/1408260596/dns.o

.text._ICMPAckPacket
                0x9d02d874       0x20
 .text._ICMPAckPacket
                0x9d02d874       0x20 build/pic32mx/debug/_ext/1408260596/icmp.o

.text.TCPIP_STACK_Status
                0x9d02d894       0x20
 .text.TCPIP_STACK_Status
                0x9d02d894       0x20 build/pic32mx/debug/_ext/1408260596/tcpip_manager.o
                0x9d02d894                TCPIP_STACK_Status

.text.TCPIP_STACK_AddressServiceCanStart
                0x9d02d8b4       0x20
 .text.TCPIP_STACK_AddressServiceCanStart
                0x9d02d8b4       0x20 build/pic32mx/debug/_ext/1408260596/tcpip_manager.o
                0x9d02d8b4                TCPIP_STACK_AddressServiceCanStart

.text._USB_DEVICE_CDC_GlobalInitialize
                0x9d02d8d4       0x20
 .text._USB_DEVICE_CDC_GlobalInitialize
                0x9d02d8d4       0x20 build/pic32mx/debug/_ext/610166344/usb_device_cdc.o
                0x9d02d8d4                _USB_DEVICE_CDC_GlobalInitialize

.text.Singleshot
                0x9d02d8f4       0x1c
 .text.Singleshot
                0x9d02d8f4       0x1c build/pic32mx/debug/_ext/1360937237/app.o
                0x9d02d8f4                Singleshot

.text.BSP_LEDToggle
                0x9d02d910       0x1c
 .text.BSP_LEDToggle
                0x9d02d910       0x1c build/pic32mx/debug/_ext/1837361561/bsp_sys_init.o
                0x9d02d910                BSP_LEDToggle

.text._DRV_ETHPHY_ClientOpSmiScan
                0x9d02d92c       0x1c
 .text._DRV_ETHPHY_ClientOpSmiScan
                0x9d02d92c       0x1c build/pic32mx/debug/_ext/732687875/drv_ethphy.o

.text.DRV_ETHPHY_VendorDataSet
                0x9d02d948       0x1c
 .text.DRV_ETHPHY_VendorDataSet
                0x9d02d948       0x1c build/pic32mx/debug/_ext/732687875/drv_ethphy.o
                0x9d02d948                DRV_ETHPHY_VendorDataSet

.rodata         0x9d02d964       0x1c
 .rodata        0x9d02d964       0x1c build/pic32mx/debug/_ext/185269848/drv_tmr.o

.text.SYS_FS_Tasks
                0x9d02d980       0x1c
 .text.SYS_FS_Tasks
                0x9d02d980       0x1c build/pic32mx/debug/_ext/2104899551/sys_fs.o
                0x9d02d980                SYS_FS_Tasks

.text.MPFS_GetSize
                0x9d02d99c       0x1c
 .text.MPFS_GetSize
                0x9d02d99c       0x1c build/pic32mx/debug/_ext/850537704/mpfs.o
                0x9d02d99c                MPFS_GetSize

.text.MPFS_GetPosition
                0x9d02d9b8       0x1c
 .text.MPFS_GetPosition
                0x9d02d9b8       0x1c build/pic32mx/debug/_ext/850537704/mpfs.o
                0x9d02d9b8                MPFS_GetPosition

.text.SYS_RANDOM_PseudoGet
                0x9d02d9d4       0x1c
 .text.SYS_RANDOM_PseudoGet
                0x9d02d9d4       0x1c build/pic32mx/debug/_ext/1283840359/sys_random.o
                0x9d02d9d4                SYS_RANDOM_PseudoGet

.text.SYS_TMR_CallbackStop
                0x9d02d9f0       0x1c
 .text.SYS_TMR_CallbackStop
                0x9d02d9f0       0x1c build/pic32mx/debug/_ext/1264926591/sys_tmr.o
                0x9d02d9f0                SYS_TMR_CallbackStop

.text.SYS_TMR_CallbackPeriodic
                0x9d02da0c       0x1c
 .text.SYS_TMR_CallbackPeriodic
                0x9d02da0c       0x1c build/pic32mx/debug/_ext/1264926591/sys_tmr.o
                0x9d02da0c                SYS_TMR_CallbackPeriodic

.text.SYS_TMR_CallbackSingle
                0x9d02da28       0x1c
 .text.SYS_TMR_CallbackSingle
                0x9d02da28       0x1c build/pic32mx/debug/_ext/1264926591/sys_tmr.o
                0x9d02da28                SYS_TMR_CallbackSingle

.text.btohexa_high
                0x9d02da44       0x1c
 .text.btohexa_high
                0x9d02da44       0x1c build/pic32mx/debug/_ext/1136935090/helpers.o
                0x9d02da44                btohexa_high

.text.btohexa_low
                0x9d02da60       0x1c
 .text.btohexa_low
                0x9d02da60       0x1c build/pic32mx/debug/_ext/1136935090/helpers.o
                0x9d02da60                btohexa_low

.text.TCPIP_UDP_TxPutIsReady
                0x9d02da7c       0x1c
 .text.TCPIP_UDP_TxPutIsReady
                0x9d02da7c       0x1c build/pic32mx/debug/_ext/1408260596/udp.o
                0x9d02da7c                TCPIP_UDP_TxPutIsReady

.text.TCPIP_OAHASH_EntryRemove
                0x9d02da98       0x1c
 .text.TCPIP_OAHASH_EntryRemove
                0x9d02da98       0x1c build/pic32mx/debug/_ext/1408260596/oahash.o
                0x9d02da98                TCPIP_OAHASH_EntryRemove

.text.TCPIP_Helper_ChecksumFold
                0x9d02dab4       0x1c
 .text.TCPIP_Helper_ChecksumFold
                0x9d02dab4       0x1c build/pic32mx/debug/_ext/1408260596/tcpip_helpers.o
                0x9d02dab4                TCPIP_Helper_ChecksumFold

.text.TCPIP_STACK_MACIdToString
                0x9d02dad0       0x1c
 .text.TCPIP_STACK_MACIdToString
                0x9d02dad0       0x1c build/pic32mx/debug/_ext/1408260596/tcpip_manager.o
                0x9d02dad0                TCPIP_STACK_MACIdToString

.text.TCPIP_Notification_Initialize
                0x9d02daec       0x1c
 .text.TCPIP_Notification_Initialize
                0x9d02daec       0x1c build/pic32mx/debug/_ext/1408260596/tcpip_notify.o
                0x9d02daec                TCPIP_Notification_Initialize

.text.PLIB_ETH_RxFiltersHTSet
                0x9d02db08       0x1c
 .text.PLIB_ETH_RxFiltersHTSet
                0x9d02db08       0x1c ..\..\..\..\bin\framework\peripheral\PIC32MX795F512L_peripherals.a(plib_eth_lib.o)
                0x9d02db08                PLIB_ETH_RxFiltersHTSet

.text.PLIB_ETH_EventsGet
                0x9d02db24       0x1c
 .text.PLIB_ETH_EventsGet
                0x9d02db24       0x1c ..\..\..\..\bin\framework\peripheral\PIC32MX795F512L_peripherals.a(plib_eth_lib.o)
                0x9d02db24                PLIB_ETH_EventsGet

.text.srand     0x9d02db40       0x1c
 .text.srand    0x9d02db40       0x1c c:/program files (x86)/microchip/xc32/v1.40/bin/bin/../../lib/gcc/pic32mx/4.8.3/../../../../pic32mx/lib\libc.a(rand.o)
                0x9d02db40                srand

.text.DRV_ETHPHY_Deinitialize
                0x9d02db5c       0x18
 .text.DRV_ETHPHY_Deinitialize
                0x9d02db5c       0x18 build/pic32mx/debug/_ext/732687875/drv_ethphy.o
                0x9d02db5c                DRV_ETHPHY_Deinitialize

.text.DRV_ETHPHY_ClientStatus
                0x9d02db74       0x18
 .text.DRV_ETHPHY_ClientStatus
                0x9d02db74       0x18 build/pic32mx/debug/_ext/732687875/drv_ethphy.o
                0x9d02db74                DRV_ETHPHY_ClientStatus

.text.DRV_ETHPHY_ClientOperationResult
                0x9d02db8c       0x18
 .text.DRV_ETHPHY_ClientOperationResult
                0x9d02db8c       0x18 build/pic32mx/debug/_ext/732687875/drv_ethphy.o
                0x9d02db8c                DRV_ETHPHY_ClientOperationResult

.text.SYS_DEVCON_JTAGEnable
                0x9d02dba4       0x18
 .text.SYS_DEVCON_JTAGEnable
                0x9d02dba4       0x18 build/pic32mx/debug/_ext/1271179505/sys_devcon.o
                0x9d02dba4                SYS_DEVCON_JTAGEnable

.rodata         0x9d02dbbc       0x18
 .rodata        0x9d02dbbc       0x18 build/pic32mx/debug/_ext/2104899551/sys_fs_media_manager.o

.text.SYS_INT_Initialize
                0x9d02dbd4       0x18
 .text.SYS_INT_Initialize
                0x9d02dbd4       0x18 build/pic32mx/debug/_ext/122796885/sys_int_pic32.o
                0x9d02dbd4                SYS_INT_Initialize

.text.TCPIP_ARP_HashKeyCompare
                0x9d02dbec       0x18
 .text.TCPIP_ARP_HashKeyCompare
                0x9d02dbec       0x18 build/pic32mx/debug/_ext/1408260596/arp.o
                0x9d02dbec                TCPIP_ARP_HashKeyCompare

.rodata         0x9d02dc04       0x18
 .rodata        0x9d02dc04       0x18 build/pic32mx/debug/_ext/1408260596/dns.o

.text._TCPIP_STACK_FindMacModule
                0x9d02dc1c       0x18
 .text._TCPIP_STACK_FindMacModule
                0x9d02dc1c       0x18 build/pic32mx/debug/_ext/1408260596/tcpip_manager.o
                0x9d02dc1c                _TCPIP_STACK_FindMacModule

.text.TCPIP_STACK_NetIxGet
                0x9d02dc34       0x18
 .text.TCPIP_STACK_NetIxGet
                0x9d02dc34       0x18 build/pic32mx/debug/_ext/1408260596/tcpip_manager.o
                0x9d02dc34                TCPIP_STACK_NetIxGet

.text.TCPIP_STACK_GatewayAddressSet
                0x9d02dc4c       0x18
 .text.TCPIP_STACK_GatewayAddressSet
                0x9d02dc4c       0x18 build/pic32mx/debug/_ext/1408260596/tcpip_manager.o
                0x9d02dc4c                TCPIP_STACK_GatewayAddressSet

.text.TCPIP_STACK_PrimaryDNSAddressSet
                0x9d02dc64       0x18
 .text.TCPIP_STACK_PrimaryDNSAddressSet
                0x9d02dc64       0x18 build/pic32mx/debug/_ext/1408260596/tcpip_manager.o
                0x9d02dc64                TCPIP_STACK_PrimaryDNSAddressSet

.text.TCPIP_STACK_SecondaryDNSAddressSet
                0x9d02dc7c       0x18
 .text.TCPIP_STACK_SecondaryDNSAddressSet
                0x9d02dc7c       0x18 build/pic32mx/debug/_ext/1408260596/tcpip_manager.o
                0x9d02dc7c                TCPIP_STACK_SecondaryDNSAddressSet

.text.PLIB_ETH_RxFiltersSet
                0x9d02dc94       0x18
 .text.PLIB_ETH_RxFiltersSet
                0x9d02dc94       0x18 ..\..\..\..\bin\framework\peripheral\PIC32MX795F512L_peripherals.a(plib_eth_lib.o)
                0x9d02dc94                PLIB_ETH_RxFiltersSet

.text.PLIB_ETH_RxFiltersClr
                0x9d02dcac       0x18
 .text.PLIB_ETH_RxFiltersClr
                0x9d02dcac       0x18 ..\..\..\..\bin\framework\peripheral\PIC32MX795F512L_peripherals.a(plib_eth_lib.o)
                0x9d02dcac                PLIB_ETH_RxFiltersClr

.text           0x9d02dcc4       0x18
 .text          0x9d02dcc4       0x18 c:/program files (x86)/microchip/xc32/v1.40/bin/bin/../../lib/gcc/pic32mx/4.8.3/../../../../pic32mx/lib\libpic32.a(default-nmi-handler.o)
                0x9d02dcc4                _nmi_handler

.text.SYS_DEVCON_Initialize
                0x9d02dcdc       0x14
 .text.SYS_DEVCON_Initialize
                0x9d02dcdc       0x14 build/pic32mx/debug/_ext/1271179505/sys_devcon.o
                0x9d02dcdc                SYS_DEVCON_Initialize

.text._TCPIP_STACK_TickHandler
                0x9d02dcf0       0x14
 .text._TCPIP_STACK_TickHandler
                0x9d02dcf0       0x14 build/pic32mx/debug/_ext/1408260596/tcpip_manager.o

.rodata         0x9d02dd04       0x14
 .rodata        0x9d02dd04       0x14 build/pic32mx/debug/_ext/610166344/usb_device_cdc.o
                0x9d02dd04                cdcFunctionDriver

.text.PLIB_ETH_EventsEnableSet
                0x9d02dd18       0x14
 .text.PLIB_ETH_EventsEnableSet
                0x9d02dd18       0x14 ..\..\..\..\bin\framework\peripheral\PIC32MX795F512L_peripherals.a(plib_eth_lib.o)
                0x9d02dd18                PLIB_ETH_EventsEnableSet

.text.PLIB_ETH_EventsEnableClr
                0x9d02dd2c       0x14
 .text.PLIB_ETH_EventsEnableClr
                0x9d02dd2c       0x14 ..\..\..\..\bin\framework\peripheral\PIC32MX795F512L_peripherals.a(plib_eth_lib.o)
                0x9d02dd2c                PLIB_ETH_EventsEnableClr

.text.PLIB_ETH_EventsClr
                0x9d02dd40       0x14
 .text.PLIB_ETH_EventsClr
                0x9d02dd40       0x14 ..\..\..\..\bin\framework\peripheral\PIC32MX795F512L_peripherals.a(plib_eth_lib.o)
                0x9d02dd40                PLIB_ETH_EventsClr

.rodata         0x9d02dd54       0x10
 .rodata        0x9d02dd54       0x10 build/pic32mx/debug/_ext/732687875/drv_extphy_dp83848.o
                0x9d02dd54                DRV_ETHPHY_OBJECT_National_DP83848

.text.DRV_USBFS_DEVICE_CurrentSpeedGet
                0x9d02dd64       0x10
 .text.DRV_USBFS_DEVICE_CurrentSpeedGet
                0x9d02dd64       0x10 build/pic32mx/debug/_ext/764219029/drv_usbfs_device.o
                0x9d02dd64                DRV_USBFS_DEVICE_CurrentSpeedGet

.rodata         0x9d02dd74       0x10
 .rodata        0x9d02dd74       0x10 build/pic32mx/debug/_ext/1136935090/sys_fs_wrapper.o

.text.TCPIP_ARP_HashKeyCopy
                0x9d02dd84       0x10
 .text.TCPIP_ARP_HashKeyCopy
                0x9d02dd84       0x10 build/pic32mx/debug/_ext/1408260596/arp.o
                0x9d02dd84                TCPIP_ARP_HashKeyCopy

.text.TCPIP_HTTP_CurrentConnectionByteCountDec
                0x9d02dd94       0x10
 .text.TCPIP_HTTP_CurrentConnectionByteCountDec
                0x9d02dd94       0x10 build/pic32mx/debug/_ext/1408260596/http.o
                0x9d02dd94                TCPIP_HTTP_CurrentConnectionByteCountDec

.text.TCPIP_Helper_SingleListInitialize
                0x9d02dda4       0x10
 .text.TCPIP_Helper_SingleListInitialize
                0x9d02dda4       0x10 build/pic32mx/debug/_ext/1408260596/tcpip_helpers.o
                0x9d02dda4                TCPIP_Helper_SingleListInitialize

.text.__exception_handler_break
                0x9d02ddb4        0xc
 .text.__exception_handler_break
                0x9d02ddb4        0xc c:/program files (x86)/microchip/xc32/v1.40/bin/bin/../../lib/gcc/pic32mx/4.8.3/../../../../pic32mx/lib\software-debug-break.o
                0x9d02ddb4                __exception_handler_break

.text.SYS_CLK_SystemFrequencyGet
                0x9d02ddc0        0xc
 .text.SYS_CLK_SystemFrequencyGet
                0x9d02ddc0        0xc build/pic32mx/debug/_ext/1482089478/sys_clk_static.o
                0x9d02ddc0                SYS_CLK_SystemFrequencyGet

.text.SYS_CLK_PeripheralFrequencyGet
                0x9d02ddcc        0xc
 .text.SYS_CLK_PeripheralFrequencyGet
                0x9d02ddcc        0xc build/pic32mx/debug/_ext/1482089478/sys_clk_static.o
                0x9d02ddcc                SYS_CLK_PeripheralFrequencyGet

.text.APP_Initialize
                0x9d02ddd8        0xc
 .text.APP_Initialize
                0x9d02ddd8        0xc build/pic32mx/debug/_ext/1360937237/app.o
                0x9d02ddd8                APP_Initialize

.text.DRV_ETHMAC_PIC32MACEventPendingGet
                0x9d02dde4        0xc
 .text.DRV_ETHMAC_PIC32MACEventPendingGet
                0x9d02dde4        0xc build/pic32mx/debug/_ext/1908841681/drv_ethmac.o
                0x9d02dde4                DRV_ETHMAC_PIC32MACEventPendingGet

.text.DRV_EXTPHY_SMIClockGet
                0x9d02ddf0        0xc
 .text.DRV_EXTPHY_SMIClockGet
                0x9d02ddf0        0xc build/pic32mx/debug/_ext/732687875/drv_extphy_dp83848.o

.text.SYS_TMR_ModuleStatusGet
                0x9d02ddfc        0xc
 .text.SYS_TMR_ModuleStatusGet
                0x9d02ddfc        0xc build/pic32mx/debug/_ext/1264926591/sys_tmr.o
                0x9d02ddfc                SYS_TMR_ModuleStatusGet

.text.TCPIP_ANNOUNCE_SendTaskPending
                0x9d02de08        0xc
 .text.TCPIP_ANNOUNCE_SendTaskPending
                0x9d02de08        0xc build/pic32mx/debug/_ext/1408260596/tcpip_announce.o
                0x9d02de08                TCPIP_ANNOUNCE_SendTaskPending

.text.TCPIP_STACK_NumberOfNetworksGet
                0x9d02de14        0xc
 .text.TCPIP_STACK_NumberOfNetworksGet
                0x9d02de14        0xc build/pic32mx/debug/_ext/1408260596/tcpip_manager.o
                0x9d02de14                TCPIP_STACK_NumberOfNetworksGet

.text.TCPIP_STACK_NetBIOSName
                0x9d02de20        0xc
 .text.TCPIP_STACK_NetBIOSName
                0x9d02de20        0xc build/pic32mx/debug/_ext/1408260596/tcpip_manager.o
                0x9d02de20                TCPIP_STACK_NetBIOSName

.rodata         0x9d02de2c        0x8
 .rodata        0x9d02de2c        0x8 build/pic32mx/debug/_ext/1360937237/http_print.o

.text.DRV_ETHMAC_PIC32MACReinitialize
                0x9d02de34        0x8
 .text.DRV_ETHMAC_PIC32MACReinitialize
                0x9d02de34        0x8 build/pic32mx/debug/_ext/1908841681/drv_ethmac.o
                0x9d02de34                DRV_ETHMAC_PIC32MACReinitialize

.text.DRV_ETHMAC_PIC32MACPowerMode
                0x9d02de3c        0x8
 .text.DRV_ETHMAC_PIC32MACPowerMode
                0x9d02de3c        0x8 build/pic32mx/debug/_ext/1908841681/drv_ethmac.o
                0x9d02de3c                DRV_ETHMAC_PIC32MACPowerMode

.text._DRV_ETHPHY_ClientOpNone
                0x9d02de44        0x8
 .text._DRV_ETHPHY_ClientOpNone
                0x9d02de44        0x8 build/pic32mx/debug/_ext/732687875/drv_ethphy.o

.text.DRV_TMR_Tasks
                0x9d02de4c        0x8
 .text.DRV_TMR_Tasks
                0x9d02de4c        0x8 build/pic32mx/debug/_ext/185269848/drv_tmr.o
                0x9d02de4c                DRV_TMR_Tasks

.text.DRV_USBFS_Tasks
                0x9d02de54        0x8
 .text.DRV_USBFS_Tasks
                0x9d02de54        0x8 build/pic32mx/debug/_ext/764219029/drv_usbfs.o
                0x9d02de54                DRV_USBFS_Tasks

.text.GetCommandCharacter
                0x9d02de5c        0x8
 .text.GetCommandCharacter
                0x9d02de5c        0x8 build/pic32mx/debug/_ext/425903153/sys_command.o

.text.SYS_DEVCON_Tasks
                0x9d02de64        0x8
 .text.SYS_DEVCON_Tasks
                0x9d02de64        0x8 build/pic32mx/debug/_ext/1271179505/sys_devcon.o
                0x9d02de64                SYS_DEVCON_Tasks

.rodata         0x9d02de6c       0x18
 .rodata        0x9d02de6c        0x8 build/pic32mx/debug/_ext/2104899551/sys_fs.o
 .rodata        0x9d02de74        0x8 build/pic32mx/debug/_ext/1264926591/sys_tmr.o
 .rodata        0x9d02de7c        0x8 build/pic32mx/debug/_ext/1408260596/tcp.o

.text.TCPIP_TLSTCP_StillHandshaking
                0x9d02de84        0x8
 .text.TCPIP_TLSTCP_StillHandshaking
                0x9d02de84        0x8 build/pic32mx/debug/_ext/1408260596/tcp.o
                0x9d02de84                TCPIP_TLSTCP_StillHandshaking

.text.TCPIP_TLSTCP_SocketIsSecuredByTLS
                0x9d02de8c        0x8
 .text.TCPIP_TLSTCP_SocketIsSecuredByTLS
                0x9d02de8c        0x8 build/pic32mx/debug/_ext/1408260596/tcp.o
                0x9d02de8c                TCPIP_TLSTCP_SocketIsSecuredByTLS

.rodata         0x9d02de94        0x8
 .rodata        0x9d02de94        0x8 build/pic32mx/debug/_ext/1408260596/udp.o

.text._DHCPOptionProcessEnd
                0x9d02de9c        0x8
 .text._DHCPOptionProcessEnd
                0x9d02de9c        0x8 build/pic32mx/debug/_ext/1408260596/dhcp.o

.text.TCPIP_HTTP_CurrentConnectionFileGet
                0x9d02dea4        0x8
 .text.TCPIP_HTTP_CurrentConnectionFileGet
                0x9d02dea4        0x8 build/pic32mx/debug/_ext/1408260596/http.o
                0x9d02dea4                TCPIP_HTTP_CurrentConnectionFileGet

.text.TCPIP_HTTP_CurrentConnectionPostSmGet
                0x9d02deac        0x8
 .text.TCPIP_HTTP_CurrentConnectionPostSmGet
                0x9d02deac        0x8 build/pic32mx/debug/_ext/1408260596/http.o
                0x9d02deac                TCPIP_HTTP_CurrentConnectionPostSmGet

.text.TCPIP_HTTP_CurrentConnectionPostSmSet
                0x9d02deb4        0x8
 .text.TCPIP_HTTP_CurrentConnectionPostSmSet
                0x9d02deb4        0x8 build/pic32mx/debug/_ext/1408260596/http.o
                0x9d02deb4                TCPIP_HTTP_CurrentConnectionPostSmSet

.text.TCPIP_HTTP_CurrentConnectionDataBufferGet
                0x9d02debc        0x8
 .text.TCPIP_HTTP_CurrentConnectionDataBufferGet
                0x9d02debc        0x8 build/pic32mx/debug/_ext/1408260596/http.o
                0x9d02debc                TCPIP_HTTP_CurrentConnectionDataBufferGet

.text.TCPIP_HTTP_CurrentConnectionStatusSet
                0x9d02dec4        0x8
 .text.TCPIP_HTTP_CurrentConnectionStatusSet
                0x9d02dec4        0x8 build/pic32mx/debug/_ext/1408260596/http.o
                0x9d02dec4                TCPIP_HTTP_CurrentConnectionStatusSet

.text.TCPIP_HTTP_CurrentConnectionHasArgsSet
                0x9d02decc        0x8
 .text.TCPIP_HTTP_CurrentConnectionHasArgsSet
                0x9d02decc        0x8 build/pic32mx/debug/_ext/1408260596/http.o
                0x9d02decc                TCPIP_HTTP_CurrentConnectionHasArgsSet

.text.TCPIP_HTTP_CurrentConnectionByteCountGet
                0x9d02ded4        0x8
 .text.TCPIP_HTTP_CurrentConnectionByteCountGet
                0x9d02ded4        0x8 build/pic32mx/debug/_ext/1408260596/http.o
                0x9d02ded4                TCPIP_HTTP_CurrentConnectionByteCountGet

.text.TCPIP_HTTP_CurrentConnectionSocketGet
                0x9d02dedc        0x8
 .text.TCPIP_HTTP_CurrentConnectionSocketGet
                0x9d02dedc        0x8 build/pic32mx/debug/_ext/1408260596/http.o
                0x9d02dedc                TCPIP_HTTP_CurrentConnectionSocketGet

.text.TCPIP_STACK_NetDefaultGet
                0x9d02dee4        0x8
 .text.TCPIP_STACK_NetDefaultGet
                0x9d02dee4        0x8 build/pic32mx/debug/_ext/1408260596/tcpip_manager.o
                0x9d02dee4                TCPIP_STACK_NetDefaultGet

.text.TCPIP_STACK_DNSServiceCanStart
                0x9d02deec        0x8
 .text.TCPIP_STACK_DNSServiceCanStart
                0x9d02deec        0x8 build/pic32mx/debug/_ext/1408260596/tcpip_manager.o
                0x9d02deec                TCPIP_STACK_DNSServiceCanStart

.text.TCPIP_PKT_Deinitialize
                0x9d02def4        0x8
 .text.TCPIP_PKT_Deinitialize
                0x9d02def4        0x8 build/pic32mx/debug/_ext/1408260596/tcpip_packet.o
                0x9d02def4                TCPIP_PKT_Deinitialize

.text._on_reset
                0x9d02defc        0x8
 .text._on_reset
                0x9d02defc        0x8 c:/program files (x86)/microchip/xc32/v1.40/bin/bin/../../lib/gcc/pic32mx/4.8.3/../../../../pic32mx/lib\libpic32.a(default-on-reset.o)
                0x9d02defc                _on_reset

.text._on_bootstrap
                0x9d02df04        0x8
 .text._on_bootstrap
                0x9d02df04        0x8 c:/program files (x86)/microchip/xc32/v1.40/bin/bin/../../lib/gcc/pic32mx/4.8.3/../../../../pic32mx/lib\libpic32.a(default-on-bootstrap.o)
                0x9d02df04                _on_bootstrap

.rodata         0x9d02069c        0x4
 .rodata        0x9d02069c        0x4 build/pic32mx/debug/_ext/1408260596/tcpip_announce.o
